L251 LINKER/LOCATER V4.66.93.0                                                          10/07/2023  14:21:18  PAGE 1


L251 LINKER/LOCATER V4.66.93.0, INVOKED BY:
C:\PROGRAM FILES\KEIL-5\C251\BIN\L251.EXE .\Out_File\board.obj, .\Out_File\common.obj, .\Out_File\zf_adc.obj, .\Out_File
>> \zf_delay.obj, .\Out_File\zf_eeprom.obj, .\Out_File\zf_exti.obj, .\Out_File\zf_gpio.obj, .\Out_File\zf_nvic.obj, .\Ou
>> t_File\zf_pwm.obj, .\Out_File\zf_spi.obj, .\Out_File\zf_tim.obj, .\Out_File\zf_uart.obj, .\Out_File\zf_fifo.obj, .\Ou
>> t_File\SEEKFREE_18TFT.obj, .\Out_File\SEEKFREE_BLUETOOTH_CH9141.obj, ..\..\Libraries\seekfree_peripheral\SEEKFREE_CON
>> FIG.LIB, .\Out_File\SEEKFREE_DL1A.obj, .\Out_File\SEEKFREE_DL1B.obj, .\Out_File\SEEKFREE_FONT.obj, .\Out_File\SEEKFRE
>> E_ICM20602.obj, .\Out_File\SEEKFREE_IMU660RA.obj, .\Out_File\SEEKFREE_IMU963RA.obj, .\Out_File\SEEKFREE_IPS114_SPI.ob
>> j, .\Out_File\SEEKFREE_MPU6050.obj, .\Out_File\SEEKFREE_OLED.obj, .\Out_File\SEEKFREE_PRINTF.obj, .\Out_File\SEEKFREE
>> _VIRSCO.obj, .\Out_File\SEEKFREE_WIRELESS.obj, .\Out_File\SEEKFREE_WIRELESS_CH573.obj, .\Out_File\isr.obj, .\Out_File
>> \main.obj, .\Out_File\motor.obj, .\Out_File\pid.obj, .\Out_File\steer.obj, .\Out_File\allinit.obj, .\Out_File\pidcc.o
>> bj TO .\Out_File\SEEKFREE PRINT (.\Out_File\SEEKFREE.map) CASE DISABLEWARNING (15, 16, 57) REMOVEUNUSED CLASSES (EDAT
>> A (0X0-0XFFF), HDATA (0X0-0XFFF))


CPU MODE:     251 SOURCE MODE
INTR FRAME:   2 BYTES SAVED ON INTERRUPT
MEMORY MODEL: XSMALL WITH FLOATING POINT ARITHMETIC


INPUT MODULES INCLUDED:
  .\Out_File\board.obj (board)
         COMMENT TYPE 0: C251 V5.60.0
  .\Out_File\common.obj (common)
         COMMENT TYPE 0: C251 V5.60.0
  .\Out_File\zf_adc.obj (zf_adc)
         COMMENT TYPE 0: C251 V5.60.0
  .\Out_File\zf_delay.obj (zf_delay)
         COMMENT TYPE 0: C251 V5.60.0
  .\Out_File\zf_eeprom.obj (zf_eeprom)
         COMMENT TYPE 0: C251 V5.60.0
  .\Out_File\zf_exti.obj (zf_exti)
         COMMENT TYPE 0: C251 V5.60.0
  .\Out_File\zf_gpio.obj (zf_gpio)
         COMMENT TYPE 0: C251 V5.60.0
  .\Out_File\zf_nvic.obj (zf_nvic)
         COMMENT TYPE 0: C251 V5.60.0
  .\Out_File\zf_pwm.obj (zf_pwm)
         COMMENT TYPE 0: C251 V5.60.0
  .\Out_File\zf_spi.obj (zf_spi)
         COMMENT TYPE 0: C251 V5.60.0
  .\Out_File\zf_tim.obj (zf_tim)
         COMMENT TYPE 0: C251 V5.60.0
  .\Out_File\zf_uart.obj (zf_uart)
         COMMENT TYPE 0: C251 V5.60.0
  .\Out_File\zf_fifo.obj (zf_fifo)
         COMMENT TYPE 0: C251 V5.60.0
  .\Out_File\SEEKFREE_18TFT.obj (SEEKFREE_18TFT)
         COMMENT TYPE 0: C251 V5.60.0
  .\Out_File\SEEKFREE_BLUETOOTH_CH9141.obj (SEEKFREE_BLUETOOTH_CH9141)
         COMMENT TYPE 0: C251 V5.60.0
  .\Out_File\SEEKFREE_DL1A.obj (SEEKFREE_DL1A)
         COMMENT TYPE 0: C251 V5.60.0
  .\Out_File\SEEKFREE_DL1B.obj (SEEKFREE_DL1B)
         COMMENT TYPE 0: C251 V5.60.0
  .\Out_File\SEEKFREE_FONT.obj (SEEKFREE_FONT)
         COMMENT TYPE 0: C251 V5.60.0
  .\Out_File\SEEKFREE_ICM20602.obj (SEEKFREE_ICM20602)
         COMMENT TYPE 0: C251 V5.60.0
  .\Out_File\SEEKFREE_IMU660RA.obj (SEEKFREE_IMU660RA)
         COMMENT TYPE 0: C251 V5.60.0
  .\Out_File\SEEKFREE_IMU963RA.obj (SEEKFREE_IMU963RA)
         COMMENT TYPE 0: C251 V5.60.0
  .\Out_File\SEEKFREE_IPS114_SPI.obj (SEEKFREE_IPS114_SPI)
         COMMENT TYPE 0: C251 V5.60.0
  .\Out_File\SEEKFREE_MPU6050.obj (SEEKFREE_MPU6050)
         COMMENT TYPE 0: C251 V5.60.0
L251 LINKER/LOCATER V4.66.93.0                                                        10/07/2023  14:21:18  PAGE 2


  .\Out_File\SEEKFREE_OLED.obj (SEEKFREE_OLED)
         COMMENT TYPE 0: C251 V5.60.0
  .\Out_File\SEEKFREE_PRINTF.obj (SEEKFREE_PRINTF)
         COMMENT TYPE 0: C251 V5.60.0
  .\Out_File\SEEKFREE_VIRSCO.obj (SEEKFREE_VIRSCO)
         COMMENT TYPE 0: C251 V5.60.0
  .\Out_File\SEEKFREE_WIRELESS.obj (SEEKFREE_WIRELESS)
         COMMENT TYPE 0: C251 V5.60.0
  .\Out_File\SEEKFREE_WIRELESS_CH573.obj (SEEKFREE_WIRELESS_CH573)
         COMMENT TYPE 0: C251 V5.60.0
  .\Out_File\isr.obj (isr)
         COMMENT TYPE 0: C251 V5.60.0
  .\Out_File\main.obj (main)
         COMMENT TYPE 0: C251 V5.60.0
  .\Out_File\motor.obj (motor)
         COMMENT TYPE 0: C251 V5.60.0
  .\Out_File\pid.obj (pid)
         COMMENT TYPE 0: C251 V5.60.0
  .\Out_File\steer.obj (steer)
         COMMENT TYPE 0: C251 V5.60.0
  .\Out_File\allinit.obj (allinit)
         COMMENT TYPE 0: C251 V5.60.0
  .\Out_File\pidcc.obj (pidcc)
         COMMENT TYPE 0: C251 V5.60.0
  ..\..\Libraries\seekfree_peripheral\SEEKFREE_CONFIG.LIB (SEEKFREE_CONFIG)
         COMMENT TYPE 0: C251 V5.60.0
  C:\PROGRAM FILES\KEIL-5\C251\LIB\C2SFPXS.LIB (?C?FPADD)
         COMMENT TYPE 0: A251 V4.69.6.0
  C:\PROGRAM FILES\KEIL-5\C251\LIB\C2SFPXS.LIB (?C?FPMUL)
         COMMENT TYPE 0: A251 V4.69.6.0
  C:\PROGRAM FILES\KEIL-5\C251\LIB\C2SFPXS.LIB (?C?FPDIV)
         COMMENT TYPE 0: A251 V4.69.6.0
  C:\PROGRAM FILES\KEIL-5\C251\LIB\C2SFPXS.LIB (?C?FPCMP)
         COMMENT TYPE 0: A251 V4.69.6.0
  C:\PROGRAM FILES\KEIL-5\C251\LIB\C2SFPXS.LIB (?C?FCAST)
         COMMENT TYPE 0: A251 V4.69.6.0
  C:\PROGRAM FILES\KEIL-5\C251\LIB\C2SFPXS.LIB (?C?CASTF)
         COMMENT TYPE 0: A251 V4.69.6.0
  C:\PROGRAM FILES\KEIL-5\C251\LIB\C2SFPXS.LIB (PRINTF)
         COMMENT TYPE 0: A251 V4.69.6.0
  C:\PROGRAM FILES\KEIL-5\C251\LIB\C2SFPXS.LIB (?C?FPGETOPN)
         COMMENT TYPE 0: A251 V4.69.6.0
  C:\PROGRAM FILES\KEIL-5\C251\LIB\C2SFPXS.LIB (?C?PRNFMT)
         COMMENT TYPE 0: A251 V4.69.6.0
  C:\PROGRAM FILES\KEIL-5\C251\LIB\C2SFPXS.LIB (?C?FPCONVERT)
         COMMENT TYPE 0: A251 V4.69.6.0
  C:\PROGRAM FILES\KEIL-5\C251\LIB\C2SFPXS.LIB (?C?FTNPWR)
         COMMENT TYPE 0: A251 V4.69.6.0
  C:\PROGRAM FILES\KEIL-5\C251\LIB\C2SXS.LIB (?C_START)
         COMMENT TYPE 0: A251 V4.69.6.0
  C:\PROGRAM FILES\KEIL-5\C251\LIB\C2SXS.LIB (?C?INITEDATA)
         COMMENT TYPE 0: A251 V4.69.6.0
  C:\PROGRAM FILES\KEIL-5\C251\LIB\C2SXS.LIB (?C?SIDIV)
         COMMENT TYPE 0: A251 V4.69.6.0
  C:\PROGRAM FILES\KEIL-5\C251\LIB\C2SXS.LIB (?C?LMUL)
         COMMENT TYPE 0: A251 V4.69.6.0
  C:\PROGRAM FILES\KEIL-5\C251\LIB\C2SXS.LIB (?C?LIMUL)
         COMMENT TYPE 0: A251 V4.69.6.0
  C:\PROGRAM FILES\KEIL-5\C251\LIB\C2SXS.LIB (?C?ULDIV)
         COMMENT TYPE 0: A251 V4.69.6.0
  C:\PROGRAM FILES\KEIL-5\C251\LIB\C2SXS.LIB (?C?SLDIV)
         COMMENT TYPE 0: A251 V4.69.6.0
  C:\PROGRAM FILES\KEIL-5\C251\LIB\C2SXS.LIB (memcpy)
         COMMENT TYPE 0: C251 V5.58.7
  C:\PROGRAM FILES\KEIL-5\C251\LIB\C2SXS.LIB (memset)
L251 LINKER/LOCATER V4.66.93.0                                                        10/07/2023  14:21:18  PAGE 3


         COMMENT TYPE 0: C251 V5.58.7
  C:\PROGRAM FILES\KEIL-5\C251\LIB\C2SXS.LIB (?C?INITEDATA_END)
         COMMENT TYPE 0: A251 V4.69.6.0


ACTIVE MEMORY CLASSES OF MODULE:  .\Out_File\SEEKFREE (board)

BASE        START       END         USED      MEMORY CLASS
==========================================================
000000H     000000H     000FFFH     000C3DH   EDATA
000000H     000000H     000FFFH               HDATA
FF0000H     FF0000H     FFFFFFH     007711H   CODE
000000H     FF0000H     FFFFFFH     000283H   HCONST
FF0000H     FF0000H     FFFFFFH     000004H   CONST
000000H     000000H     00007FH     000008H   DATA


MEMORY MAP OF MODULE:  .\Out_File\SEEKFREE (board)


START     STOP      LENGTH    ALIGN  RELOC    MEMORY CLASS   SEGMENT NAME
=========================================================================
000000H   000007H   000008H   ---    AT..     DATA           "REG BANK 0"
000008H   000099H   000092H   BYTE   UNIT     EDATA          ?ED?PIDCC
00009AH   000125H   00008CH   BYTE   UNIT     EDATA          ?ED?DL1B_INIT?SEEKFREE_DL1B
000126H   000184H   00005FH   BYTE   UNIT     EDATA          ?ED?ZF_SPRINTF?SEEKFREE_PRINTF
000185H   0001D9H   000055H   BYTE   UNIT     EDATA          ?ED?SEEKFREE_BLUETOOTH_CH9141
0001DAH   00022EH   000055H   BYTE   UNIT     EDATA          ?ED?SEEKFREE_WIRELESS
00022FH   000283H   000055H   BYTE   UNIT     EDATA          ?ED?SEEKFREE_WIRELESS_CH573
000284H   0002D1H   00004EH   BYTE   UNIT     EDATA          ?ED?PID
0002D2H   000301H   000030H   BYTE   UNIT     EDATA          ?ED?LCD_SHOWFLOAT_SIMSPI?SEEKFREE_18TFT
000302H   000331H   000030H   BYTE   UNIT     EDATA          ?ED?LCD_SHOWFLOAT?SEEKFREE_18TFT
000332H   000361H   000030H   BYTE   UNIT     EDATA          ?ED?IPS114_SHOWFLOAT_SIMSPI?SEEKFREE_IPS114_SPI
000362H   000391H   000030H   BYTE   UNIT     EDATA          ?ED?IPS114_SHOWFLOAT?SEEKFREE_IPS114_SPI
000392H   0003C1H   000030H   BYTE   UNIT     EDATA          ?ED?OLED_PRINTF_FLOAT?SEEKFREE_OLED
0003C2H   0003F1H   000030H   BYTE   UNIT     EDATA          ?ED?OLED_PRINTF_FLOAT_SPI?SEEKFREE_OLED
0003F2H   000420H   00002FH   BYTE   UNIT     EDATA          ?ED?DL1A_SET_MEASUREMENT_TIMING_BUDGET?SEEKFREE_DL1A
000421H   00044CH   00002CH   BYTE   UNIT     EDATA          ?ED?LCD_SHOWINT32_SIMSPI?SEEKFREE_18TFT
00044DH   000478H   00002CH   BYTE   UNIT     EDATA          ?ED?LCD_SHOWINT32?SEEKFREE_18TFT
000479H   0004A4H   00002CH   BYTE   UNIT     EDATA          ?ED?IPS114_SHOWINT32_SIMSPI?SEEKFREE_IPS114_SPI
0004A5H   0004D0H   00002CH   BYTE   UNIT     EDATA          ?ED?IPS114_SHOWINT32?SEEKFREE_IPS114_SPI
0004D1H   0004FCH   00002CH   BYTE   UNIT     EDATA          ?ED?OLED_PRINTF_INT32?SEEKFREE_OLED
0004FDH   000528H   00002CH   BYTE   UNIT     EDATA          ?ED?OLED_PRINTF_INT32_SPI?SEEKFREE_OLED
000529H   000548H   000020H   BYTE   UNIT     EDATA          ?ED?FILTER?ZF_ADC
000549H   000567H   00001FH   BYTE   UNIT     EDATA          ?ED?DL1A_GET_MEASUREMENT_TIMING_BUDGET?SEEKFREE_DL1A
000568H   00057CH   000015H   BYTE   UNIT     EDATA          ?ED?DL1A_INIT?SEEKFREE_DL1A
00057DH   000590H   000014H   BYTE   UNIT     EDATA          ?ED?PWM_INIT?ZF_PWM
000591H   0005A4H   000014H   BYTE   UNIT     EDATA          ?ED?PWM_FREQ?ZF_PWM
0005A5H   0005B8H   000014H   BYTE   UNIT     EDATA          ?ED?NUMBER_CONVERSION_ASCII?SEEKFREE_PRINTF
0005B9H   0005CCH   000014H   BYTE   UNIT     EDATA          ?ED?ELE_DIRECTION_CONTROL?PIDCC
0005CDH   0005DFH   000013H   BYTE   UNIT     EDATA          ?ED?FIFO_READ_BUFFER?ZF_FIFO
0005E0H   0005F1H   000012H   BYTE   UNIT     EDATA          ?ED?SEEKFREE_IMU963RA
0005F2H   000603H   000012H   BYTE   UNIT     EDATA          ?ED?OLED_DIS_BMP?SEEKFREE_OLED
000604H   000615H   000012H   BYTE   UNIT     EDATA          ?ED?OLED_DIS_BMP_SPI?SEEKFREE_OLED
000616H   000625H   000010H   BYTE   UNIT     EDATA          ?ED?FIFO_WRITE_BUFFER?ZF_FIFO
000626H   000635H   000010H   BYTE   UNIT     EDATA          ?ED?DL1B_IIC_TRANSFER_8BIT_ARRAY?SEEKFREE_DL1B
000636H   000643H   00000EH   BYTE   UNIT     EDATA          ?ED?PWM_DUTY?ZF_PWM
000644H   000651H   00000EH   BYTE   UNIT     EDATA          ?ED?UART_INIT?ZF_UART
000652H   00065FH   00000EH   BYTE   UNIT     EDATA          ?ED?OLED_PRINT_CHINESE?SEEKFREE_OLED
000660H   00066DH   00000EH   BYTE   UNIT     EDATA          ?ED?OLED_PRINT_CHINESE_SPI?SEEKFREE_OLED
00066EH   00067BH   00000EH   BYTE   UNIT     EDATA          ?ED?DATA_CONVERSION?SEEKFREE_VIRSCO
00067CH   000688H   00000DH   BYTE   UNIT     EDATA          ?ED?ICM20602_SIMSPI_R_REG_BYTES?SEEKFREE_ICM20602
000689H   000695H   00000DH   BYTE   UNIT     EDATA          ?ED?PRINTF_REVERSE_ORDER?SEEKFREE_PRINTF
000696H   0006A2H   00000DH   BYTE   UNIT     EDATA          ?ED?ISR
0006A3H   0006AEH   00000CH   BYTE   UNIT     EDATA          ?ED?FIFO_INIT?ZF_FIFO
L251 LINKER/LOCATER V4.66.93.0                                                        10/07/2023  14:21:18  PAGE 4


0006AFH   0006BAH   00000CH   BYTE   UNIT     EDATA          ?ED?LCD_SHOWINT16_SIMSPI?SEEKFREE_18TFT
0006BBH   0006C6H   00000CH   BYTE   UNIT     EDATA          ?ED?LCD_SHOWUINT16_SIMSPI?SEEKFREE_18TFT
0006C7H   0006D2H   00000CH   BYTE   UNIT     EDATA          ?ED?LCD_SHOWINT16?SEEKFREE_18TFT
0006D3H   0006DEH   00000CH   BYTE   UNIT     EDATA          ?ED?LCD_SHOWUINT16?SEEKFREE_18TFT
0006DFH   0006EAH   00000CH   BYTE   UNIT     EDATA          ?ED?SHOWIMAGE?SEEKFREE_18TFT
0006EBH   0006F6H   00000CH   BYTE   UNIT     EDATA          ?ED?BLUETOOTH_CH9141_READ_BUFF?SEEKFREE_BLUETOOTH_CH9141
0006F7H   000702H   00000CH   BYTE   UNIT     EDATA          ?ED?DL1A_GET_SPAD_INFO?SEEKFREE_DL1A
000703H   00070EH   00000CH   BYTE   UNIT     EDATA          ?ED?DL1A_GET_SEQUENCE_STEP_TIMEOUTS?SEEKFREE_DL1A
00070FH   00071AH   00000CH   BYTE   UNIT     EDATA          ?ED?SEEKFREE_ICM20602
00071BH   000726H   00000CH   BYTE   UNIT     EDATA          ?ED?SEEKFREE_IMU660RA
000727H   000732H   00000CH   BYTE   UNIT     EDATA          ?ED?IPS114_SHOWINT16_SIMSPI?SEEKFREE_IPS114_SPI
000733H   00073EH   00000CH   BYTE   UNIT     EDATA          ?ED?IPS114_SHOWUINT16_SIMSPI?SEEKFREE_IPS114_SPI
00073FH   00074AH   00000CH   BYTE   UNIT     EDATA          ?ED?IPS114_SHOWINT16?SEEKFREE_IPS114_SPI
00074BH   000756H   00000CH   BYTE   UNIT     EDATA          ?ED?IPS114_SHOWUINT16?SEEKFREE_IPS114_SPI
000757H   000762H   00000CH   BYTE   UNIT     EDATA          ?ED?SEEKFREE_MPU6050
000763H   00076EH   00000CH   BYTE   UNIT     EDATA          ?ED?WIRELESS_UART_READ_BUFF?SEEKFREE_WIRELESS
00076FH   00077AH   00000CH   BYTE   UNIT     EDATA          ?ED?WIRELESS_CH573_READ_BUFF?SEEKFREE_WIRELESS_CH573
00077BH   000786H   00000CH   BYTE   UNIT     EDATA          ?ED?JUDGE_CIRCLE_IN?PIDCC
000787H   000792H   00000CH   BYTE   UNIT     EDATA          ?ED?JUDGE_CIRCLE_OUT?PIDCC
000793H   00079DH   00000BH   BYTE   UNIT     EDATA          ?ED?OLED_UINT16?SEEKFREE_OLED
00079EH   0007A8H   00000BH   BYTE   UNIT     EDATA          ?ED?OLED_INT16?SEEKFREE_OLED
0007A9H   0007B3H   00000BH   BYTE   UNIT     EDATA          ?ED?OLED_UINT16_SPI?SEEKFREE_OLED
0007B4H   0007BEH   00000BH   BYTE   UNIT     EDATA          ?ED?OLED_INT16_SPI?SEEKFREE_OLED
0007BFH   0007C8H   00000AH   BYTE   UNIT     EDATA          ?ED?IAP_READ_BYTES?ZF_EEPROM
0007C9H   0007D2H   00000AH   BYTE   UNIT     EDATA          ?ED?IAP_WRITE_BYTES?ZF_EEPROM
0007D3H   0007DCH   00000AH   BYTE   UNIT     EDATA          ?ED?LCD_SHOWSTR_SIMSPI?SEEKFREE_18TFT
0007DDH   0007E6H   00000AH   BYTE   UNIT     EDATA          ?ED?LCD_SHOWSTR?SEEKFREE_18TFT
0007E7H   0007F0H   00000AH   BYTE   UNIT     EDATA          ?ED?BLUETOOTH_CH9141_SEND_BUFF?SEEKFREE_BLUETOOTH_CH9141
0007F1H   0007FAH   00000AH   BYTE   UNIT     EDATA          ?ED?DL1A_SIMIIC_READ_REGS?SEEKFREE_DL1A
0007FBH   000804H   00000AH   BYTE   UNIT     EDATA          ?ED?DL1A_SIMIIC_READ_REGS_1?SEEKFREE_DL1A
000805H   00080EH   00000AH   BYTE   UNIT     EDATA          ?ED?DL1A_ENCODE_TIMEOUT?SEEKFREE_DL1A
00080FH   000818H   00000AH   BYTE   UNIT     EDATA          ?ED?IPS114_SHOWSTR_SIMSPI?SEEKFREE_IPS114_SPI
000819H   000822H   00000AH   BYTE   UNIT     EDATA          ?ED?IPS114_SHOWSTR?SEEKFREE_IPS114_SPI
000823H   00082CH   00000AH   BYTE   UNIT     EDATA          ?ED?SEEKFREE_VIRSCO
00082DH   000835H   000009H   BYTE   UNIT     EDATA          ?ED?LCD_SHOWINT8_SIMSPI?SEEKFREE_18TFT
000836H   00083EH   000009H   BYTE   UNIT     EDATA          ?ED?LCD_SHOWUINT8_SIMSPI?SEEKFREE_18TFT
00083FH   000847H   000009H   BYTE   UNIT     EDATA          ?ED?LCD_SHOWINT8?SEEKFREE_18TFT
000848H   000850H   000009H   BYTE   UNIT     EDATA          ?ED?LCD_SHOWUINT8?SEEKFREE_18TFT
000851H   000859H   000009H   BYTE   UNIT     EDATA          ?ED?DL1A_SIMIIC_WRITE_DATS?SEEKFREE_DL1A
00085AH   000862H   000009H   BYTE   UNIT     EDATA          ?ED?DL1A_TIMEOUT_MICROSECONDS_TO_MCLKS?SEEKFREE_DL1A
000863H   00086BH   000009H   BYTE   UNIT     EDATA          ?ED?DL1A_SET_SIGNAL_RATE_LIMIT?SEEKFREE_DL1A
00086CH   000874H   000009H   BYTE   UNIT     EDATA          ?ED?ICM20602_READ_REGISTERS?SEEKFREE_ICM20602
000875H   00087DH   000009H   BYTE   UNIT     EDATA          ?ED?IMU660RA_SIMSPI_W_REG_BYTES?SEEKFREE_IMU660RA
00087EH   000886H   000009H   BYTE   UNIT     EDATA          ?ED?IMU660RA_SIMSPI_R_REG_BYTES?SEEKFREE_IMU660RA
000887H   00088FH   000009H   BYTE   UNIT     EDATA          ?ED?IMU660RA_WRITE_REGISTERS?SEEKFREE_IMU660RA
000890H   000898H   000009H   BYTE   UNIT     EDATA          ?ED?IMU660RA_READ_REGISTERS?SEEKFREE_IMU660RA
000899H   0008A1H   000009H   BYTE   UNIT     EDATA          ?ED?IMU963RA_SIMSPI_R_REG_BYTES?SEEKFREE_IMU963RA
0008A2H   0008AAH   000009H   BYTE   UNIT     EDATA          ?ED?IMU963RA_READ_ACC_GYRO_REGISTERS?SEEKFREE_IMU963RA
0008ABH   0008B3H   000009H   BYTE   UNIT     EDATA          ?ED?IPS114_SHOWINT8_SIMSPI?SEEKFREE_IPS114_SPI
0008B4H   0008BCH   000009H   BYTE   UNIT     EDATA          ?ED?IPS114_SHOWUINT8_SIMSPI?SEEKFREE_IPS114_SPI
0008BDH   0008C5H   000009H   BYTE   UNIT     EDATA          ?ED?IPS114_SHOWINT8?SEEKFREE_IPS114_SPI
0008C6H   0008CEH   000009H   BYTE   UNIT     EDATA          ?ED?IPS114_SHOWUINT8?SEEKFREE_IPS114_SPI
0008CFH   0008D7H   000009H   BYTE   UNIT     EDATA          ?ED?OLED_P6X8STR?SEEKFREE_OLED
0008D8H   0008E0H   000009H   BYTE   UNIT     EDATA          ?ED?OLED_P8X16STR?SEEKFREE_OLED
0008E1H   0008E9H   000009H   BYTE   UNIT     EDATA          ?ED?OLED_P6X8STR_SPI?SEEKFREE_OLED
0008EAH   0008F2H   000009H   BYTE   UNIT     EDATA          ?ED?OLED_P8X16STR_SPI?SEEKFREE_OLED
0008F3H   0008FBH   000009H   BYTE   UNIT     EDATA          ?ED?CRC_CHECK?SEEKFREE_VIRSCO
0008FCH   000903H   000008H   BYTE   UNIT     EDATA          ?ED?UART_PUTBUFF?ZF_UART
000904H   00090BH   000008H   BYTE   UNIT     EDATA          ?ED?FIFO_HEAD_OFFSET?ZF_FIFO
00090CH   000913H   000008H   BYTE   UNIT     EDATA          ?ED?FIFO_END_OFFSET?ZF_FIFO
000914H   00091BH   000008H   BYTE   UNIT     EDATA          ?ED?LCD_SET_REGION_SIMSPI?SEEKFREE_18TFT
00091CH   000923H   000008H   BYTE   UNIT     EDATA          ?ED?LCD_SHOWCHAR_SIMSPI?SEEKFREE_18TFT
000924H   00092BH   000008H   BYTE   UNIT     EDATA          ?ED?LCD_SET_REGION?SEEKFREE_18TFT
00092CH   000933H   000008H   BYTE   UNIT     EDATA          ?ED?LCD_SHOWCHAR?SEEKFREE_18TFT
000934H   00093BH   000008H   BYTE   UNIT     EDATA          ?ED?IPS114_SET_REGION_SIMSPI?SEEKFREE_IPS114_SPI
L251 LINKER/LOCATER V4.66.93.0                                                        10/07/2023  14:21:18  PAGE 5


00093CH   000943H   000008H   BYTE   UNIT     EDATA          ?ED?IPS114_SHOWCHAR_SIMSPI?SEEKFREE_IPS114_SPI
000944H   00094BH   000008H   BYTE   UNIT     EDATA          ?ED?IPS114_SET_REGION?SEEKFREE_IPS114_SPI
00094CH   000953H   000008H   BYTE   UNIT     EDATA          ?ED?IPS114_SHOWCHAR?SEEKFREE_IPS114_SPI
000954H   00095BH   000008H   BYTE   UNIT     EDATA          ?ED?OLED_HEXASCII?SEEKFREE_OLED
00095CH   000963H   000008H   BYTE   UNIT     EDATA          ?ED?OLED_HEXASCII_SPI?SEEKFREE_OLED
000964H   00096BH   000008H   BYTE   UNIT     EDATA          ?ED?SPEEDLEFT_PID_REALIZE?PIDCC
00096CH   000973H   000008H   BYTE   UNIT     EDATA          ?ED?SPEEDRIGHT_PID_REALIZE?PIDCC
000974H   00097AH   000007H   BYTE   UNIT     EDATA          ?ED?SPI_INIT?ZF_SPI
00097BH   000981H   000007H   BYTE   UNIT     EDATA          ?ED?DL1A_TIMEOUT_MCLKS_TO_MICROSECONDS?SEEKFREE_DL1A
000982H   000988H   000007H   BYTE   UNIT     EDATA          ?ED?IMU660RA_GET_ACC?SEEKFREE_IMU660RA
000989H   00098FH   000007H   BYTE   UNIT     EDATA          ?ED?IMU660RA_GET_GYRO?SEEKFREE_IMU660RA
000990H   000996H   000007H   BYTE   UNIT     EDATA          ?ED?IMU963RA_GET_MAG?SEEKFREE_IMU963RA
000997H   00099DH   000007H   BYTE   UNIT     EDATA          ?ED?MPU6050_SIMIIC_READ_REGS?SEEKFREE_MPU6050
00099EH   0009A3H   000006H   BYTE   UNIT     EDATA          ?ED?ADC_ONCE?ZF_ADC
0009A4H   0009A9H   000006H   BYTE   UNIT     EDATA          ?ED?DELAY_US?ZF_DELAY
0009AAH   0009AFH   000006H   BYTE   UNIT     EDATA          ?ED?PIT_TIMER_MS?ZF_TIM
0009B0H   0009B5H   000006H   BYTE   UNIT     EDATA          ?ED?UART_PUTSTR?ZF_UART
0009B6H   0009BBH   000006H   BYTE   UNIT     EDATA          ?ED?LCD_DRAWPOINT_SIMSPI?SEEKFREE_18TFT
0009BCH   0009C1H   000006H   BYTE   UNIT     EDATA          ?ED?LCD_DRAWPOINT?SEEKFREE_18TFT
0009C2H   0009C7H   000006H   BYTE   UNIT     EDATA          ?ED?ICM20602_GET_ACC?SEEKFREE_ICM20602
0009C8H   0009CDH   000006H   BYTE   UNIT     EDATA          ?ED?ICM20602_GET_GYRO?SEEKFREE_ICM20602
0009CEH   0009D3H   000006H   BYTE   UNIT     EDATA          ?ED?ICM20602_ACC_TRANSITION?SEEKFREE_ICM20602
0009D4H   0009D9H   000006H   BYTE   UNIT     EDATA          ?ED?ICM20602_GYRO_TRANSITION?SEEKFREE_ICM20602
0009DAH   0009DFH   000006H   BYTE   UNIT     EDATA          ?ED?IMU660RA_ACC_TRANSITION?SEEKFREE_IMU660RA
0009E0H   0009E5H   000006H   BYTE   UNIT     EDATA          ?ED?IMU660RA_GYRO_TRANSITION?SEEKFREE_IMU660RA
0009E6H   0009EBH   000006H   BYTE   UNIT     EDATA          ?ED?IMU963RA_WRITE_MAG_REGISTER?SEEKFREE_IMU963RA
0009ECH   0009F1H   000006H   BYTE   UNIT     EDATA          ?ED?IMU963RA_GET_ACC?SEEKFREE_IMU963RA
0009F2H   0009F7H   000006H   BYTE   UNIT     EDATA          ?ED?IMU963RA_GET_GYRO?SEEKFREE_IMU963RA
0009F8H   0009FDH   000006H   BYTE   UNIT     EDATA          ?ED?IMU963RA_ACC_TRANSITION?SEEKFREE_IMU963RA
0009FEH   000A03H   000006H   BYTE   UNIT     EDATA          ?ED?IMU963RA_GYRO_TRANSITION?SEEKFREE_IMU963RA
000A04H   000A09H   000006H   BYTE   UNIT     EDATA          ?ED?IMU963RA_MAG_TRANSITION?SEEKFREE_IMU963RA
000A0AH   000A0FH   000006H   BYTE   UNIT     EDATA          ?ED?IPS114_CLEAR_SIMSPI?SEEKFREE_IPS114_SPI
000A10H   000A15H   000006H   BYTE   UNIT     EDATA          ?ED?IPS114_DRAWPOINT_SIMSPI?SEEKFREE_IPS114_SPI
000A16H   000A1BH   000006H   BYTE   UNIT     EDATA          ?ED?IPS114_CLEAR?SEEKFREE_IPS114_SPI
000A1CH   000A21H   000006H   BYTE   UNIT     EDATA          ?ED?IPS114_DRAWPOINT?SEEKFREE_IPS114_SPI
000A22H   000A27H   000006H   BYTE   UNIT     EDATA          ?ED?MPU6050_GET_ACCDATA?SEEKFREE_MPU6050
000A28H   000A2DH   000006H   BYTE   UNIT     EDATA          ?ED?MPU6050_GET_GYRO?SEEKFREE_MPU6050
000A2EH   000A33H   000006H   BYTE   UNIT     EDATA          ?ED?WIRELESS_UART_SEND_BUFF?SEEKFREE_WIRELESS
000A34H   000A39H   000006H   BYTE   UNIT     EDATA          ?ED?WIRELESS_CH573_SEND_BUFF?SEEKFREE_WIRELESS_CH573
000A3AH   000A3EH   000005H   BYTE   UNIT     EDATA          ?ED?ZF_UART
000A3FH   000A43H   000005H   BYTE   UNIT     EDATA          ?ED?DL1A_GET_SEQUENCE_STEP_ENABLES?SEEKFREE_DL1A
000A44H   000A48H   000005H   BYTE   UNIT     EDATA          ?ED?DL1A_PERFORM_SINGLE_REF_CALIBRATION?SEEKFREE_DL1A
000A49H   000A4DH   000005H   BYTE   UNIT     EDATA          ?ED?DL1B_GET_DISTANCE?SEEKFREE_DL1B
000A4EH   000A52H   000005H   BYTE   UNIT     EDATA          ?ED?ICM20602_SIMSPI_R_REG_BYTE?SEEKFREE_ICM20602
000A53H   000A57H   000005H   BYTE   UNIT     EDATA          ?ED?IMU963RA_SIMSPI_R_REG_BYTE?SEEKFREE_IMU963RA
000A58H   000A5BH   000004H   BYTE   UNIT     EDATA          ?ED?BOARD
000A5CH   000A5FH   000004H   BYTE   UNIT     EDATA          ?ED?ADC_INIT?ZF_ADC
000A60H   000A63H   000004H   BYTE   UNIT     EDATA          ?ED?ZF_DELAY
000A64H   000A67H   000004H   BYTE   UNIT     EDATA          ?ED?DELAY_MS?ZF_DELAY
000A68H   000A6BH   000004H   BYTE   UNIT     EDATA          ?ED?IAP_ERASE_PAGE?ZF_EEPROM
000A6CH   000A6FH   000004H   BYTE   UNIT     EDATA          ?ED?EXIT_INIT?ZF_EXTI
000A70H   000A73H   000004H   BYTE   UNIT     EDATA          ?ED?GPIO_PULL_SET?ZF_GPIO
000A74H   000A77H   000004H   BYTE   UNIT     EDATA          ?ED?GPIO_MODE?ZF_GPIO
000A78H   000A7BH   000004H   BYTE   UNIT     EDATA          ?ED?CTIMER_COUNT_READ?ZF_TIM
000A7CH   000A7FH   000004H   BYTE   UNIT     EDATA          ?ED?FIFO_CLEAR?ZF_FIFO
000A80H   000A83H   000004H   BYTE   UNIT     EDATA          ?ED?FIFO_USED?ZF_FIFO
000A84H   000A87H   000004H   BYTE   UNIT     EDATA          ?ED?LCD_CLEAR_SIMSPI?SEEKFREE_18TFT
000A88H   000A8BH   000004H   BYTE   UNIT     EDATA          ?ED?LCD_WRITEDATA_16BIT?SEEKFREE_18TFT
000A8CH   000A8FH   000004H   BYTE   UNIT     EDATA          ?ED?LCD_CLEAR?SEEKFREE_18TFT
000A90H   000A93H   000004H   BYTE   UNIT     EDATA          ?ED?SEEKFREE_DL1B
000A94H   000A97H   000004H   BYTE   UNIT     EDATA          ?ED?ICM20602_SELF_CHECK?SEEKFREE_ICM20602
000A98H   000A9BH   000004H   BYTE   UNIT     EDATA          ?ED?ICM20602_INIT?SEEKFREE_ICM20602
000A9CH   000A9FH   000004H   BYTE   UNIT     EDATA          ?ED?IMU660RA_SELF_CHECK?SEEKFREE_IMU660RA
000AA0H   000AA3H   000004H   BYTE   UNIT     EDATA          ?ED?IMU963RA_READ_MAG_REGISTER?SEEKFREE_IMU963RA
000AA4H   000AA7H   000004H   BYTE   UNIT     EDATA          ?ED?IMU963RA_ACC_GYRO_SELF_CHECK?SEEKFREE_IMU963RA
L251 LINKER/LOCATER V4.66.93.0                                                        10/07/2023  14:21:18  PAGE 6


000AA8H   000AABH   000004H   BYTE   UNIT     EDATA          ?ED?IMU963RA_MAG_SELF_CHECK?SEEKFREE_IMU963RA
000AACH   000AAFH   000004H   BYTE   UNIT     EDATA          ?ED?IPS114_WRITEDATA_16BIT?SEEKFREE_IPS114_SPI
000AB0H   000AB3H   000004H   BYTE   UNIT     EDATA          ?ED?PWMSETMOTOR2?MOTOR
000AB4H   000AB6H   000003H   BYTE   UNIT     EDATA          ?ED?NVIC_SETPRIORITY?ZF_NVIC
000AB7H   000AB9H   000003H   BYTE   UNIT     EDATA          ?ED?UART_PUTCHAR?ZF_UART
000ABAH   000ABCH   000003H   BYTE   UNIT     EDATA          ?ED?LCD_WRITEDATA_16BIT_SIMSPI?SEEKFREE_18TFT
000ABDH   000ABFH   000003H   BYTE   UNIT     EDATA          ?ED?SEEKFREE_DL1A
000AC0H   000AC2H   000003H   BYTE   UNIT     EDATA          ?ED?DL1A_READ_CH?SEEKFREE_DL1A
000AC3H   000AC5H   000003H   BYTE   UNIT     EDATA          ?ED?DL1A_SIMIIC_WRITE_REG?SEEKFREE_DL1A
000AC6H   000AC8H   000003H   BYTE   UNIT     EDATA          ?ED?DL1A_SIMIIC_READ_REG?SEEKFREE_DL1A
000AC9H   000ACBH   000003H   BYTE   UNIT     EDATA          ?ED?DL1A_GET_VCSEL_PULSE_PERIOD?SEEKFREE_DL1A
000ACCH   000ACEH   000003H   BYTE   UNIT     EDATA          ?ED?DL1A_GET_DISTANCE?SEEKFREE_DL1A
000ACFH   000AD1H   000003H   BYTE   UNIT     EDATA          ?ED?DL1B_READ_CH?SEEKFREE_DL1B
000AD2H   000AD4H   000003H   BYTE   UNIT     EDATA          ?ED?IMU660RA_READ_REGISTER?SEEKFREE_IMU660RA
000AD5H   000AD7H   000003H   BYTE   UNIT     EDATA          ?ED?IPS114_WRITEDATAI_16BIT_SIMSPI?SEEKFREE_IPS114_SPI
000AD8H   000ADAH   000003H   BYTE   UNIT     EDATA          ?ED?MPU6050_READ_CH?SEEKFREE_MPU6050
000ADBH   000ADDH   000003H   BYTE   UNIT     EDATA          ?ED?MPU6050_SIMIIC_WRITE_REG?SEEKFREE_MPU6050
000ADEH   000AE0H   000003H   BYTE   UNIT     EDATA          ?ED?MPU6050_SIMIIC_READ_REG?SEEKFREE_MPU6050
000AE1H   000AE3H   000003H   BYTE   UNIT     EDATA          ?ED?OLED_FILL?SEEKFREE_OLED
000AE4H   000AE6H   000003H   BYTE   UNIT     EDATA          ?ED?OLED_PUTPIXEL?SEEKFREE_OLED
000AE7H   000AE9H   000003H   BYTE   UNIT     EDATA          ?ED?OLED_FILL_SPI?SEEKFREE_OLED
000AEAH   000AECH   000003H   BYTE   UNIT     EDATA          ?ED?OLED_PUTPIXEL_SPI?SEEKFREE_OLED
000AEDH   000AEEH   000002H   BYTE   UNIT     EDATA          ?ED?COMMON
000AEFH   000AF0H   000002H   BYTE   UNIT     EDATA          ?ED?PWM_SET_GPIO?ZF_PWM
000AF1H   000AF2H   000002H   BYTE   UNIT     EDATA          ?ED?SPI_CHANGE_PIN?ZF_SPI
000AF3H   000AF4H   000002H   BYTE   UNIT     EDATA          ?ED?CTIMER_COUNT_INIT?ZF_TIM
000AF5H   000AF6H   000002H   BYTE   UNIT     EDATA          ?ED?CTIMER_COUNT_CLEAN?ZF_TIM
000AF7H   000AF8H   000002H   BYTE   UNIT     EDATA          ?ED?LCD_WRITEINDEX_SIMSPI?SEEKFREE_18TFT
000AF9H   000AFAH   000002H   BYTE   UNIT     EDATA          ?ED?LCD_WRITEDATA_SIMSPI?SEEKFREE_18TFT
000AFBH   000AFCH   000002H   BYTE   UNIT     EDATA          ?ED?DL1A_SIMIIC_DELAY?SEEKFREE_DL1A
000AFDH   000AFEH   000002H   BYTE   UNIT     EDATA          ?ED?DL1A_SEND_CH?SEEKFREE_DL1A
000AFFH   000B00H   000002H   BYTE   UNIT     EDATA          ?ED?DL1A_DECODE_TIMEOUT?SEEKFREE_DL1A
000B01H   000B02H   000002H   BYTE   UNIT     EDATA          ?ED?DL1B_SIMIIC_DELAY?SEEKFREE_DL1B
000B03H   000B04H   000002H   BYTE   UNIT     EDATA          ?ED?DL1B_SEND_CH?SEEKFREE_DL1B
000B05H   000B06H   000002H   BYTE   UNIT     EDATA          ?ED?ICM20602_SIMSPI_WR_BYTE?SEEKFREE_ICM20602
000B07H   000B08H   000002H   BYTE   UNIT     EDATA          ?ED?ICM20602_SIMSPI_W_REG_BYTE?SEEKFREE_ICM20602
000B09H   000B0AH   000002H   BYTE   UNIT     EDATA          ?ED?ICM20602_WRITE_REGISTER?SEEKFREE_ICM20602
000B0BH   000B0CH   000002H   BYTE   UNIT     EDATA          ?ED?ICM20602_READ_REGISTER?SEEKFREE_ICM20602
000B0DH   000B0EH   000002H   BYTE   UNIT     EDATA          ?ED?IMU660RA_SIMSPI_WR_BYTE?SEEKFREE_IMU660RA
000B0FH   000B10H   000002H   BYTE   UNIT     EDATA          ?ED?IMU660RA_SIMSPI_W_REG_BYTE?SEEKFREE_IMU660RA
000B11H   000B12H   000002H   BYTE   UNIT     EDATA          ?ED?IMU660RA_WRITE_REGISTER?SEEKFREE_IMU660RA
000B13H   000B14H   000002H   BYTE   UNIT     EDATA          ?ED?IMU963RA_SIMSPI_WR_BYTE?SEEKFREE_IMU963RA
000B15H   000B16H   000002H   BYTE   UNIT     EDATA          ?ED?IMU963RA_SIMSPI_W_REG_BYTE?SEEKFREE_IMU963RA
000B17H   000B18H   000002H   BYTE   UNIT     EDATA          ?ED?IMU963RA_WRITE_ACC_GYRO_REGISTER?SEEKFREE_IMU963RA
000B19H   000B1AH   000002H   BYTE   UNIT     EDATA          ?ED?IMU963RA_READ_ACC_GYRO_REGISTER?SEEKFREE_IMU963RA
000B1BH   000B1CH   000002H   BYTE   UNIT     EDATA          ?ED?IMU963RA_CONNECT_MAG?SEEKFREE_IMU963RA
000B1DH   000B1EH   000002H   BYTE   UNIT     EDATA          ?ED?IPS114_WRITEINDEX_SIMSPI?SEEKFREE_IPS114_SPI
000B1FH   000B20H   000002H   BYTE   UNIT     EDATA          ?ED?IPS114_WRITEDATA_SIMSPI?SEEKFREE_IPS114_SPI
000B21H   000B22H   000002H   BYTE   UNIT     EDATA          ?ED?MPU6050_SIMIIC_DELAY?SEEKFREE_MPU6050
000B23H   000B24H   000002H   BYTE   UNIT     EDATA          ?ED?MPU6050_SEND_CH?SEEKFREE_MPU6050
000B25H   000B26H   000002H   BYTE   UNIT     EDATA          ?ED?OLED_WRDAT?SEEKFREE_OLED
000B27H   000B28H   000002H   BYTE   UNIT     EDATA          ?ED?OLED_WRCMD?SEEKFREE_OLED
000B29H   000B2AH   000002H   BYTE   UNIT     EDATA          ?ED?OLED_SET_POS?SEEKFREE_OLED
000B2BH   000B2CH   000002H   BYTE   UNIT     EDATA          ?ED?OLED_CLRPIXEL?SEEKFREE_OLED
000B2DH   000B2EH   000002H   BYTE   UNIT     EDATA          ?ED?OLED_SET_POS_SPI?SEEKFREE_OLED
000B2FH   000B30H   000002H   BYTE   UNIT     EDATA          ?ED?OLED_CLRPIXEL_SPI?SEEKFREE_OLED
000B31H   000B32H   000002H   BYTE   UNIT     EDATA          ?ED?MAIN
000B33H   000B34H   000002H   BYTE   UNIT     EDATA          ?ED?PWMSETSTEER?STEER
000B35H   000B35H   000001H   BYTE   UNIT     EDATA          ?ED?PUTCHAR?BOARD
000B36H   000B36H   000001H   BYTE   UNIT     EDATA          ?ED?IAP_SET_TPS?ZF_EEPROM
000B37H   000B37H   000001H   BYTE   UNIT     EDATA          ?ED?SPI_MOSI?ZF_SPI
000B38H   000B38H   000001H   BYTE   UNIT     EDATA          ?ED?SPI_CHANGE_MODE?ZF_SPI
000B39H   000B39H   000001H   BYTE   UNIT     EDATA          ?ED?LCD_WRITEINDEX?SEEKFREE_18TFT
000B3AH   000B3AH   000001H   BYTE   UNIT     EDATA          ?ED?LCD_WRITEDATA?SEEKFREE_18TFT
000B3BH   000B3BH   000001H   BYTE   UNIT     EDATA          ?ED?DL1A_SIMIIC_SENDACK?SEEKFREE_DL1A
L251 LINKER/LOCATER V4.66.93.0                                                        10/07/2023  14:21:18  PAGE 7


000B3CH   000B3CH   000001H   BYTE   UNIT     EDATA          ?ED?DL1B_SIMIIC_SENDACK?SEEKFREE_DL1B
000B3DH   000B3DH   000001H   BYTE   UNIT     EDATA          ?ED?IMU660RA_INIT?SEEKFREE_IMU660RA
000B3EH   000B3EH   000001H   BYTE   UNIT     EDATA          ?ED?IMU963RA_INIT?SEEKFREE_IMU963RA
000B3FH   000B3FH   000001H   BYTE   UNIT     EDATA          ?ED?IPS114_WRITEINDEX?SEEKFREE_IPS114_SPI
000B40H   000B40H   000001H   BYTE   UNIT     EDATA          ?ED?IPS114_WRITEDATA?SEEKFREE_IPS114_SPI
000B41H   000B41H   000001H   BYTE   UNIT     EDATA          ?ED?MPU6050_SIMIIC_SENDACK?SEEKFREE_MPU6050
000B42H   000B42H   000001H   BYTE   UNIT     EDATA          ?ED?OLED_WRDAT_SPI?SEEKFREE_OLED
000B43H   000B43H   000001H   BYTE   UNIT     EDATA          ?ED?OLED_WRCMD_SPI?SEEKFREE_OLED
000B44H   000B44H   000001H   BYTE   UNIT     EDATA          ?ED?UART1_ISR?ISR
000B45H   000C44H   000100H   BYTE   UNIT     EDATA          ?STACK
000C45H   FEFFFFH   FEF3BBH   ---    ---      **GAP**
FF0000H   FF0002H   000003H   ---    OFFS..   CODE           ?CO?start251?4
FF0003H   FF0005H   000003H   ---    OFFS..   CODE           ?PR?IV?0
FF0006H   FF0009H   000004H   BYTE   INSEG    CODE           ?PR?ENABLEGLOBALIRQ?BOARD
FF000AH   FF000AH   000001H   BYTE   INSEG    CODE           ?PR?INT1_ISR?ISR
FF000BH   FF000DH   000003H   ---    OFFS..   CODE           ?PR?IV?1
FF000EH   FF000EH   000001H   BYTE   INSEG    CODE           ?PR?TM1_ISR?ISR
FF000FH   FF0012H   000004H   BYTE   UNIT     CONST          ?CO?PRINTF
FF0013H   FF0015H   000003H   ---    OFFS..   CODE           ?PR?IV?2
FF0016H   FF001AH   000005H   ---    ---      **GAP**
FF001BH   FF001DH   000003H   ---    OFFS..   CODE           ?PR?IV?3
FF001EH   FF0022H   000005H   ---    ---      **GAP**
FF0023H   FF0025H   000003H   ---    OFFS..   CODE           ?PR?IV?4
FF0026H   FF0042H   00001DH   BYTE   INSEG    CODE           ?PR?DL1A_SIMIIC_DELAY?SEEKFREE_DL1A
FF0043H   FF0045H   000003H   ---    OFFS..   CODE           ?PR?IV?8
FF0046H   FF004DH   000008H   BYTE   INSEG    CODE           ?PR?INT0_ISR?ISR
FF004EH   FF0052H   000005H   ---    ---      **GAP**
FF0053H   FF0055H   000003H   ---    OFFS..   CODE           ?PR?IV?10
FF0056H   FF005AH   000005H   ---    ---      **GAP**
FF005BH   FF005DH   000003H   ---    OFFS..   CODE           ?PR?IV?11
FF005EH   FF0062H   000005H   ---    ---      **GAP**
FF0063H   FF0065H   000003H   ---    OFFS..   CODE           ?PR?IV?12
FF0066H   FF0082H   00001DH   BYTE   INSEG    CODE           ?PR?DL1B_SIMIIC_DELAY?SEEKFREE_DL1B
FF0083H   FF0085H   000003H   ---    OFFS..   CODE           ?PR?IV?16
FF0086H   FF008AH   000005H   ---    ---      **GAP**
FF008BH   FF008DH   000003H   ---    OFFS..   CODE           ?PR?IV?17
FF008EH   FF0092H   000005H   ---    ---      **GAP**
FF0093H   FF0095H   000003H   ---    OFFS..   CODE           ?PR?IV?18
FF0096H   FF009AH   000005H   ---    ---      **GAP**
FF009BH   FF009DH   000003H   ---    OFFS..   CODE           ?PR?IV?19
FF009EH   FF00A2H   000005H   ---    ---      **GAP**
FF00A3H   FF00A5H   000003H   ---    OFFS..   CODE           ?PR?IV?20
FF00A6H   FF212CH   002087H   BYTE   UNIT     CODE           ?CO?SEEKFREE_CONFIG
FF212DH   FF2F34H   000E08H   BYTE   UNIT     CODE           ?CO?SEEKFREE_FONT
FF2F35H   FF3947H   000A13H   BYTE   INSEG    CODE           ?PR?ELE_DIRECTION_CONTROL?PIDCC
FF3948H   FF42E2H   00099BH   BYTE   UNIT     CODE           ?C?LIB_CODE
FF42E3H   FF4BEFH   00090DH   BYTE   INSEG    CODE           ?PR?GPIO_MODE?ZF_GPIO
FF4BF0H   FF4FC9H   0003DAH   BYTE   INSEG    CODE           ?PR?PWM_INIT?ZF_PWM
FF4FCAH   FF5381H   0003B8H   BYTE   INSEG    CODE           ?PR?PWM_SET_GPIO?ZF_PWM
FF5382H   FF5633H   0002B2H   BYTE   INSEG    CODE           ?PR?UART_INIT?ZF_UART
FF5634H   FF5839H   000206H   BYTE   INSEG    CODE           ?PR?SET_CLK?BOARD
FF583AH   FF59ADH   000174H   BYTE   INSEG    CODE           ?PR?IPS114_INIT?SEEKFREE_IPS114_SPI
FF59AEH   FF5B16H   000169H   BYTE   INSEG    CODE           ?PR?DL1A_GET_SEQUENCE_STEP_TIMEOUTS?SEEKFREE_DL1A
FF5B17H   FF5C69H   000153H   BYTE   INSEG    CODE           ?PR?FILTER?ZF_ADC
FF5C6AH   FF5DA1H   000138H   BYTE   INSEG    CODE           ?PR?FIFO_WRITE_BUFFER?ZF_FIFO
FF5DA2H   FF5EB9H   000118H   BYTE   INSEG    CODE           ?PR?PWM_DUTY?ZF_PWM
FF5EBAH   FF5FAEH   0000F5H   BYTE   INSEG    CODE           ?PR?SPI_INIT?ZF_SPI
FF5FAFH   FF609FH   0000F1H   BYTE   INSEG    CODE           ?PR?PWMSETMOTOR2?MOTOR
FF60A0H   FF6184H   0000E5H   BYTE   INSEG    CODE           ?PR?PIT_TIMER_MS?ZF_TIM
FF6185H   FF6251H   0000CDH   BYTE   INSEG    CODE           ?PR?IPS114_SHOWUINT16?SEEKFREE_IPS114_SPI
FF6252H   FF6310H   0000BFH   BYTE   INSEG    CODE           ?PR?IPS114_SHOWCHAR?SEEKFREE_IPS114_SPI
FF6311H   FF63C5H   0000B5H   BYTE   INSEG    CODE           ?PR?ADC_INIT?ZF_ADC
FF63C6H   FF645CH   000097H   BYTE   INSEG    CODE           ?PR?BOARD_INIT?BOARD
FF645DH   FF64EAH   00008EH   BYTE   INSEG    CODE           ?PR?DL1A_GET_SEQUENCE_STEP_ENABLES?SEEKFREE_DL1A
FF64EBH   FF6573H   000089H   BYTE   INSEG    CODE           ?PR?MAIN?MAIN
L251 LINKER/LOCATER V4.66.93.0                                                        10/07/2023  14:21:18  PAGE 8


FF6574H   FF65F2H   00007FH   BYTE   INSEG    CODE           ?PR?DL1A_ENCODE_TIMEOUT?SEEKFREE_DL1A
FF65F3H   FF666CH   00007AH   BYTE   INSEG    CODE           ?PR?DL1A_GET_VCSEL_PULSE_PERIOD?SEEKFREE_DL1A
FF666DH   FF66E1H   000075H   BYTE   INSEG    CODE           ?PR?UART_PUTCHAR?ZF_UART
FF66E2H   FF6754H   000073H   BYTE   INSEG    CODE           ?PR?UART4_ISR?ISR
FF6755H   FF67C0H   00006CH   BYTE   INSEG    CODE           ?PR?IMU963RA_READ_MAG_REGISTER?SEEKFREE_IMU963RA
FF67C1H   FF682AH   00006AH   BYTE   INSEG    CODE           ?PR?FIFO_HEAD_OFFSET?ZF_FIFO
FF682BH   FF6894H   00006AH   BYTE   INSEG    CODE           ?PR?DL1A_READ_CH?SEEKFREE_DL1A
FF6895H   FF68FEH   00006AH   BYTE   INSEG    CODE           ?PR?DL1B_READ_CH?SEEKFREE_DL1B
FF68FFH   FF6966H   000068H   BYTE   INSEG    CODE           ?PR?DL1A_SIMIIC_READ_REGS?SEEKFREE_DL1A
FF6967H   FF69CAH   000064H   BYTE   INSEG    CODE           ?PR?LCD_SET_REGION_SIMSPI?SEEKFREE_18TFT
FF69CBH   FF6A2EH   000064H   BYTE   INSEG    CODE           ?PR?LCD_SET_REGION?SEEKFREE_18TFT
FF6A2FH   FF6A8DH   00005FH   BYTE   INSEG    CODE           ?PR?IPS114_CLEAR?SEEKFREE_IPS114_SPI
FF6A8EH   FF6AEBH   00005EH   BYTE   INSEG    CODE           ?PR?PID_STEERS?PIDCC
FF6AECH   FF6B44H   000059H   BYTE   INSEG    CODE           ?PR?ICM20602_SIMSPI_WR_BYTE?SEEKFREE_ICM20602
FF6B45H   FF6B9DH   000059H   BYTE   INSEG    CODE           ?PR?IMU660RA_SIMSPI_WR_BYTE?SEEKFREE_IMU660RA
FF6B9EH   FF6BF6H   000059H   BYTE   INSEG    CODE           ?PR?IMU963RA_SIMSPI_WR_BYTE?SEEKFREE_IMU963RA
FF6BF7H   FF6C4CH   000056H   BYTE   INSEG    CODE           ?PR?ADC_ONCE?ZF_ADC
FF6C4DH   FF6CA1H   000055H   BYTE   INSEG    CODE           ?PR?LCD_WRITEDATA_16BIT_SIMSPI?SEEKFREE_18TFT
FF6CA2H   FF6CF6H   000055H   BYTE   INSEG    CODE           ?PR?IPS114_WRITEDATAI_16BIT_SIMSPI?SEEKFREE_IPS114_SPI
FF6CF7H   FF6D4AH   000054H   BYTE   INSEG    CODE           ?PR?IPS114_SET_REGION?SEEKFREE_IPS114_SPI
FF6D4BH   FF6D9DH   000053H   BYTE   INSEG    CODE           ?PR?DL1A_TIMEOUT_MCLKS_TO_MICROSECONDS?SEEKFREE_DL1A
FF6D9EH   FF6DEEH   000051H   BYTE   INSEG    CODE           ?PR?DL1A_TIMEOUT_MICROSECONDS_TO_MCLKS?SEEKFREE_DL1A
FF6DEFH   FF6E3FH   000051H   BYTE   INSEG    CODE           ?PR?ICM20602_SIMSPI_R_REG_BYTES?SEEKFREE_ICM20602
FF6E40H   FF6E8BH   00004CH   BYTE   INSEG    CODE           ?PR?LCD_WRITEINDEX_SIMSPI?SEEKFREE_18TFT
FF6E8CH   FF6ED7H   00004CH   BYTE   INSEG    CODE           ?PR?LCD_WRITEDATA_SIMSPI?SEEKFREE_18TFT
FF6ED8H   FF6F23H   00004CH   BYTE   INSEG    CODE           ?PR?IPS114_WRITEINDEX_SIMSPI?SEEKFREE_IPS114_SPI
FF6F24H   FF6F6FH   00004CH   BYTE   INSEG    CODE           ?PR?OLED_WRCMD?SEEKFREE_OLED
FF6F70H   FF6FBBH   00004CH   BYTE   INSEG    CODE           ?PR?OLED_WRDAT?SEEKFREE_OLED
FF6FBCH   FF7006H   00004BH   BYTE   INSEG    CODE           ?PR?IMU660RA_SIMSPI_R_REG_BYTES?SEEKFREE_IMU660RA
FF7007H   FF704FH   000049H   BYTE   INSEG    CODE           ?PR?DL1A_SEND_CH?SEEKFREE_DL1A
FF7050H   FF7098H   000049H   BYTE   INSEG    CODE           ?PR?DL1B_SEND_CH?SEEKFREE_DL1B
FF7099H   FF70DEH   000046H   BYTE   INSEG    CODE           ?PR?UART1_ISR?ISR
FF70DFH   FF7123H   000045H   BYTE   INSEG    CODE           ?PR?MOTOR_INIT?MOTOR
FF7124H   FF7165H   000042H   BYTE   INSEG    CODE           ?PR?DL1A_SIMIIC_WRITE_DATS?SEEKFREE_DL1A
FF7166H   FF71A6H   000041H   BYTE   INSEG    CODE           ?PR?DELAY_INIT?ZF_DELAY
FF71A7H   FF71B9H   000013H   BYTE   UNIT     CODE           ?C_C51STARTUP
FF71BAH   FF71E2H   000029H   BYTE   UNIT     CODE           ?C_C51STARTUP?2
FF71E3H   FF71E5H   000003H   BYTE   UNIT     CODE           ?C_C51STARTUP?3
FF71E6H   FF7221H   00003CH   BYTE   INSEG    CODE           ?PR?PWMSETSTEER?STEER
FF7222H   FF7257H   000036H   BYTE   INSEG    CODE           ?PR?OLED_SET_POS_SPI?SEEKFREE_OLED
FF7258H   FF728CH   000035H   BYTE   INSEG    CODE           ?PR?DELAY_MS?ZF_DELAY
FF728DH   FF72C1H   000035H   BYTE   INSEG    CODE           ?PR?OLED_SET_POS?SEEKFREE_OLED
FF72C2H   FF72F4H   000033H   BYTE   INSEG    CODE           ?PR?TM0_ISR?ISR
FF72F5H   FF7321H   00002DH   BYTE   INSEG    CODE           ?PR?IMU963RA_SIMSPI_R_REG_BYTE?SEEKFREE_IMU963RA
FF7322H   FF734BH   00002AH   BYTE   INSEG    CODE           ?PR?LCD_WRITEDATA_16BIT?SEEKFREE_18TFT
FF734CH   FF7375H   00002AH   BYTE   INSEG    CODE           ?PR?DL1A_DECODE_TIMEOUT?SEEKFREE_DL1A
FF7376H   FF739FH   00002AH   BYTE   INSEG    CODE           ?PR?IPS114_WRITEDATA_16BIT?SEEKFREE_IPS114_SPI
FF73A0H   FF73C7H   000028H   BYTE   INSEG    CODE           ?PR?DL1A_SIMIIC_SENDACK?SEEKFREE_DL1A
FF73C8H   FF73EFH   000028H   BYTE   INSEG    CODE           ?PR?DL1B_SIMIIC_SENDACK?SEEKFREE_DL1B
FF73F0H   FF7417H   000028H   BYTE   INSEG    CODE           ?PR?MPU6050_SIMIIC_SENDACK?SEEKFREE_MPU6050
FF7418H   FF743EH   000027H   BYTE   INSEG    CODE           ?PR?ICM20602_SIMSPI_R_REG_BYTE?SEEKFREE_ICM20602
FF743FH   FF7463H   000025H   BYTE   INSEG    CODE           ?PR?MEMCPY?_?MEMCPY
FF7464H   FF7486H   000023H   BYTE   INSEG    CODE           ?PR?IMU963RA_READ_ACC_GYRO_REGISTER?SEEKFREE_IMU963RA
FF7487H   FF74A8H   000022H   BYTE   INSEG    CODE           ?PR?IMU660RA_READ_REGISTER?SEEKFREE_IMU660RA
FF74A9H   FF74C9H   000021H   BYTE   INSEG    CODE           ?PR?DL1A_SCCB_WAITACK?SEEKFREE_DL1A
FF74CAH   FF74EAH   000021H   BYTE   INSEG    CODE           ?PR?DL1B_SCCB_WAITACK?SEEKFREE_DL1B
FF74EBH   FF750BH   000021H   BYTE   INSEG    CODE           ?PR?IMU963RA_SIMSPI_W_REG_BYTE?SEEKFREE_IMU963RA
FF750CH   FF752AH   00001FH   BYTE   INSEG    CODE           ?PR?PROTECT?MOTOR
FF752BH   FF7548H   00001EH   BYTE   INSEG    CODE           ?PR?ICM20602_READ_REGISTER?SEEKFREE_ICM20602
FF7549H   FF7566H   00001EH   BYTE   INSEG    CODE           ?PR?UART2_ISR?ISR
FF7567H   FF7584H   00001EH   BYTE   INSEG    CODE           ?PR?UART3_ISR?ISR
FF7585H   FF75A1H   00001DH   BYTE   INSEG    CODE           ?PR?MPU6050_SIMIIC_DELAY?SEEKFREE_MPU6050
FF75A2H   FF75BBH   00001AH   BYTE   INSEG    CODE           ?PR?BLUETOOTH_CH9141_UART_CALLBACK?SEEKFREE_BLUETOOTH_CH91
                                                             -41
FF75BCH   FF75D5H   00001AH   BYTE   INSEG    CODE           ?PR?IMU963RA_WRITE_ACC_GYRO_REGISTER?SEEKFREE_IMU963RA
L251 LINKER/LOCATER V4.66.93.0                                                        10/07/2023  14:21:18  PAGE 9


FF75D6H   FF75EFH   00001AH   BYTE   INSEG    CODE           ?PR?WIRELESS_UART_CALLBACK?SEEKFREE_WIRELESS
FF75F0H   FF7609H   00001AH   BYTE   INSEG    CODE           ?PR?WIRELESS_CH573_CALLBACK?SEEKFREE_WIRELESS_CH573
FF760AH   FF761FH   000016H   BYTE   INSEG    CODE           ?PR?DL1A_SIMIIC_STOP?SEEKFREE_DL1A
FF7620H   FF7635H   000016H   BYTE   INSEG    CODE           ?PR?MPU6050_SIMIIC_STOP?SEEKFREE_MPU6050
FF7636H   FF764AH   000015H   BYTE   INSEG    CODE           ?PR?LCD_WRITEINDEX?SEEKFREE_18TFT
FF764BH   FF765FH   000015H   BYTE   INSEG    CODE           ?PR?LCD_WRITEDATA?SEEKFREE_18TFT
FF7660H   FF7674H   000015H   BYTE   INSEG    CODE           ?PR?IPS114_WRITEINDEX?SEEKFREE_IPS114_SPI
FF7675H   FF7689H   000015H   BYTE   INSEG    CODE           ?PR?IPS114_WRITEDATA?SEEKFREE_IPS114_SPI
FF768AH   FF769EH   000015H   BYTE   INSEG    CODE           ?PR?OLED_WRCMD_SPI?SEEKFREE_OLED
FF769FH   FF76B3H   000015H   BYTE   INSEG    CODE           ?PR?OLED_WRDAT_SPI?SEEKFREE_OLED
FF76B4H   FF76C7H   000014H   BYTE   INSEG    CODE           ?PR?STEER_INIT?STEER
FF76C8H   FF76DAH   000013H   BYTE   INSEG    CODE           ?PR?DL1A_SIMIIC_START?SEEKFREE_DL1A
FF76DBH   FF76EDH   000013H   BYTE   INSEG    CODE           ?PR?MPU6050_SIMIIC_START?SEEKFREE_MPU6050
FF76EEH   FF76FFH   000012H   BYTE   INSEG    CODE           ?PR?PUTCHAR?BOARD
FF7700H   FF7711H   000012H   BYTE   INSEG    CODE           ?PR?SPI_MOSI?ZF_SPI
FF7712H   FF7719H   000008H   BYTE   INSEG    CODE           ?PR?INT2_ISR?ISR
FF771AH   FF7721H   000008H   BYTE   INSEG    CODE           ?PR?INT3_ISR?ISR
FF7722H   FF7729H   000008H   BYTE   INSEG    CODE           ?PR?INT4_ISR?ISR
FF772AH   FF7731H   000008H   BYTE   INSEG    CODE           ?PR?TM2_ISR?ISR
FF7732H   FF7739H   000008H   BYTE   INSEG    CODE           ?PR?TM3_ISR?ISR
FF773AH   FF7741H   000008H   BYTE   INSEG    CODE           ?PR?TM4_ISR?ISR
FF7742H   FF787BH   00013AH   BYTE   UNIT     HCONST         ?C_INITEDATA
FF787CH   FF78D3H   000058H   BYTE   UNIT     HCONST         ?HC?ZF_PWM
FF78D4H   FF791EH   00004BH   BYTE   UNIT     HCONST         ?HC?SEEKFREE_IMU963RA
FF791FH   FF7952H   000034H   BYTE   UNIT     HCONST         ?HC?SEEKFREE_IMU660RA
FF7953H   FF7985H   000033H   BYTE   UNIT     HCONST         ?HC?SEEKFREE_ICM20602
FF7986H   FF799BH   000016H   BYTE   UNIT     HCONST         ?HC?SEEKFREE_MPU6050
FF799CH   FF79AEH   000013H   BYTE   UNIT     HCONST         ?HC?SEEKFREE_DL1A
FF79AFH   FF79B8H   00000AH   BYTE   UNIT     HCONST         ?HC?SEEKFREE_OLED
FF79B9H   FF79BEH   000006H   BYTE   UNIT     HCONST         ?HC?SEEKFREE_18TFT
FF79BFH   FF79C4H   000006H   BYTE   UNIT     HCONST         ?HC?SEEKFREE_IPS114_SPI

* * * * * * * * *   R E M O V E D     S E G M E N T S   * * * * * * * *
   *DEL*:           000004H   BYTE   INSEG    CODE           ?PR?DISABLEGLOBALIRQ?BOARD
   *DEL*:           000033H   BYTE   INSEG    CODE           ?PR?DELAY_US?ZF_DELAY
   *DEL*:           00001AH   BYTE   INSEG    CODE           ?PR?IAP_SET_TPS?ZF_EEPROM
   *DEL*:           000015H   BYTE   INSEG    CODE           ?PR?EEPROM_TRIG?ZF_EEPROM
   *DEL*:           000029H   BYTE   INSEG    CODE           ?PR?IAP_ERASE_PAGE?ZF_EEPROM
   *DEL*:           000004H   BYTE   INSEG    CODE           ?PR?IAP_IDLE?ZF_EEPROM
   *DEL*:           000062H   BYTE   INSEG    CODE           ?PR?IAP_READ_BYTES?ZF_EEPROM
   *DEL*:           000008H   BYTE   INSEG    CODE           ?PR?IAP_INIT?ZF_EEPROM
   *DEL*:           00005EH   BYTE   INSEG    CODE           ?PR?IAP_WRITE_BYTES?ZF_EEPROM
   *DEL*:           000012H   BYTE   INSEG    CODE           ?PR?IAP_GET_CMD_STATE?ZF_EEPROM
   *DEL*:           000066H   BYTE   INSEG    CODE           ?PR?EXIT_INIT?ZF_EXTI
   *DEL*:           000095H   BYTE   INSEG    CODE           ?PR?GPIO_PULL_SET?ZF_GPIO
   *DEL*:           0000B9H   BYTE   INSEG    CODE           ?PR?NVIC_SETPRIORITY?ZF_NVIC
   *DEL*:           0001ABH   BYTE   INSEG    CODE           ?PR?PWM_FREQ?ZF_PWM
   *DEL*:           000026H   BYTE   INSEG    CODE           ?PR?SPI_CHANGE_MODE?ZF_SPI
   *DEL*:           0000CCH   BYTE   INSEG    CODE           ?PR?SPI_CHANGE_PIN?ZF_SPI
   *DEL*:           0000B4H   BYTE   INSEG    CODE           ?PR?CTIMER_COUNT_READ?ZF_TIM
   *DEL*:           000054H   BYTE   INSEG    CODE           ?PR?CTIMER_COUNT_INIT?ZF_TIM
   *DEL*:           00005DH   BYTE   INSEG    CODE           ?PR?CTIMER_COUNT_CLEAN?ZF_TIM
   *DEL*:           000039H   BYTE   INSEG    CODE           ?PR?UART_PUTBUFF?ZF_UART
   *DEL*:           00002BH   BYTE   INSEG    CODE           ?PR?UART_PUTSTR?ZF_UART
   *DEL*:           000183H   BYTE   INSEG    CODE           ?PR?FIFO_READ_BUFFER?ZF_FIFO
   *DEL*:           000043H   BYTE   INSEG    CODE           ?PR?FIFO_CLEAR?ZF_FIFO
   *DEL*:           000070H   BYTE   INSEG    CODE           ?PR?FIFO_END_OFFSET?ZF_FIFO
   *DEL*:           000025H   BYTE   INSEG    CODE           ?PR?FIFO_USED?ZF_FIFO
   *DEL*:           00006EH   BYTE   INSEG    CODE           ?PR?FIFO_INIT?ZF_FIFO
   *DEL*:           0000CDH   BYTE   INSEG    CODE           ?PR?LCD_SHOWUINT16?SEEKFREE_18TFT
   *DEL*:           0000CEH   BYTE   INSEG    CODE           ?PR?LCD_SHOWINT32_SIMSPI?SEEKFREE_18TFT
   *DEL*:           000119H   BYTE   INSEG    CODE           ?PR?LCD_SHOWINT16_SIMSPI?SEEKFREE_18TFT
   *DEL*:           0000CEH   BYTE   INSEG    CODE           ?PR?LCD_SHOWINT32?SEEKFREE_18TFT
   *DEL*:           000119H   BYTE   INSEG    CODE           ?PR?LCD_SHOWINT16?SEEKFREE_18TFT
   *DEL*:           000057H   BYTE   INSEG    CODE           ?PR?LCD_CLEAR_SIMSPI?SEEKFREE_18TFT
L251 LINKER/LOCATER V4.66.93.0                                                        10/07/2023  14:21:18  PAGE 10


   *DEL*:           000057H   BYTE   INSEG    CODE           ?PR?LCD_CLEAR?SEEKFREE_18TFT
   *DEL*:           00005DH   BYTE   INSEG    CODE           ?PR?LCD_SHOWSTR_SIMSPI?SEEKFREE_18TFT
   *DEL*:           00005DH   BYTE   INSEG    CODE           ?PR?LCD_SHOWSTR?SEEKFREE_18TFT
   *DEL*:           0001FDH   BYTE   INSEG    CODE           ?PR?LCD_INIT_SIMSPI?SEEKFREE_18TFT
   *DEL*:           0000ECH   BYTE   INSEG    CODE           ?PR?SHOWIMAGE?SEEKFREE_18TFT
   *DEL*:           0001F3H   BYTE   INSEG    CODE           ?PR?LCD_INIT?SEEKFREE_18TFT
   *DEL*:           0000A9H   BYTE   INSEG    CODE           ?PR?LCD_SHOWUINT8_SIMSPI?SEEKFREE_18TFT
   *DEL*:           0000A9H   BYTE   INSEG    CODE           ?PR?LCD_SHOWUINT8?SEEKFREE_18TFT
   *DEL*:           0000EBH   BYTE   INSEG    CODE           ?PR?LCD_SHOWINT8_SIMSPI?SEEKFREE_18TFT
   *DEL*:           0000EBH   BYTE   INSEG    CODE           ?PR?LCD_SHOWINT8?SEEKFREE_18TFT
   *DEL*:           000145H   BYTE   INSEG    CODE           ?PR?LCD_SHOWFLOAT_SIMSPI?SEEKFREE_18TFT
   *DEL*:           000023H   BYTE   INSEG    CODE           ?PR?LCD_DRAWPOINT_SIMSPI?SEEKFREE_18TFT
   *DEL*:           000145H   BYTE   INSEG    CODE           ?PR?LCD_SHOWFLOAT?SEEKFREE_18TFT
   *DEL*:           000023H   BYTE   INSEG    CODE           ?PR?LCD_DRAWPOINT?SEEKFREE_18TFT
   *DEL*:           0000BFH   BYTE   INSEG    CODE           ?PR?LCD_SHOWCHAR_SIMSPI?SEEKFREE_18TFT
   *DEL*:           0000BFH   BYTE   INSEG    CODE           ?PR?LCD_SHOWCHAR?SEEKFREE_18TFT
   *DEL*:           0000CDH   BYTE   INSEG    CODE           ?PR?LCD_SHOWUINT16_SIMSPI?SEEKFREE_18TFT
   *DEL*:           00002EH   BYTE   INSEG    CODE           ?PR?BLUETOOTH_CH9141_READ_BUFF?SEEKFREE_BLUETOOTH_CH9141
   *DEL*:           0000CCH   BYTE   INSEG    CODE           ?PR?BLUETOOTH_CH9141_SEND_BUFF?SEEKFREE_BLUETOOTH_CH9141
   *DEL*:           00003CH   BYTE   INSEG    CODE           ?PR?BLUETOOTH_CH9141_INIT?SEEKFREE_BLUETOOTH_CH9141
   *DEL*:           00003EH   BYTE   INSEG    CODE           ?PR?DL1A_SET_SIGNAL_RATE_LIMIT?SEEKFREE_DL1A
   *DEL*:           000195H   BYTE   INSEG    CODE           ?PR?DL1A_GET_SPAD_INFO?SEEKFREE_DL1A
   *DEL*:           00006CH   BYTE   INSEG    CODE           ?PR?DL1A_GET_DISTANCE?SEEKFREE_DL1A
   *DEL*:           0000ABH   BYTE   INSEG    CODE           ?PR?DL1A_PERFORM_SINGLE_REF_CALIBRATION?SEEKFREE_DL1A
   *DEL*:           0000B6H   BYTE   INSEG    CODE           ?PR?DL1A_GET_MEASUREMENT_TIMING_BUDGET?SEEKFREE_DL1A
   *DEL*:           00003BH   BYTE   INSEG    CODE           ?PR?DL1A_SIMIIC_READ_REG?SEEKFREE_DL1A
   *DEL*:           000068H   BYTE   INSEG    CODE           ?PR?DL1A_SIMIIC_READ_REGS_1?SEEKFREE_DL1A
   *DEL*:           000149H   BYTE   INSEG    CODE           ?PR?DL1A_SET_MEASUREMENT_TIMING_BUDGET?SEEKFREE_DL1A
   *DEL*:           00002AH   BYTE   INSEG    CODE           ?PR?DL1A_SIMIIC_WRITE_REG?SEEKFREE_DL1A
   *DEL*:           0006AEH   BYTE   INSEG    CODE           ?PR?DL1A_INIT?SEEKFREE_DL1A
   *DEL*:           000079H   BYTE   INSEG    CODE           ?PR?DL1B_IIC_TRANSFER_8BIT_ARRAY?SEEKFREE_DL1B
   *DEL*:           000133H   BYTE   INSEG    CODE           ?PR?DL1B_GET_DISTANCE?SEEKFREE_DL1B
   *DEL*:           000013H   BYTE   INSEG    CODE           ?PR?DL1B_SIMIIC_START?SEEKFREE_DL1B
   *DEL*:           000016H   BYTE   INSEG    CODE           ?PR?DL1B_SIMIIC_STOP?SEEKFREE_DL1B
   *DEL*:           000112H   BYTE   INSEG    CODE           ?PR?DL1B_INIT?SEEKFREE_DL1B
   *DEL*:           00008DH   BYTE   INSEG    CODE           ?PR?ICM20602_GYRO_TRANSITION?SEEKFREE_ICM20602
   *DEL*:           00001AH   BYTE   INSEG    CODE           ?PR?ICM20602_WRITE_REGISTER?SEEKFREE_ICM20602
   *DEL*:           00004EH   BYTE   INSEG    CODE           ?PR?ICM20602_SELF_CHECK?SEEKFREE_ICM20602
   *DEL*:           00001BH   BYTE   INSEG    CODE           ?PR?ICM20602_SIMSPI_W_REG_BYTE?SEEKFREE_ICM20602
   *DEL*:           0000C2H   BYTE   INSEG    CODE           ?PR?ICM20602_INIT?SEEKFREE_ICM20602
   *DEL*:           000050H   BYTE   INSEG    CODE           ?PR?ICM20602_GET_ACC?SEEKFREE_ICM20602
   *DEL*:           000089H   BYTE   INSEG    CODE           ?PR?ICM20602_ACC_TRANSITION?SEEKFREE_ICM20602
   *DEL*:           000026H   BYTE   INSEG    CODE           ?PR?ICM20602_READ_REGISTERS?SEEKFREE_ICM20602
   *DEL*:           000050H   BYTE   INSEG    CODE           ?PR?ICM20602_GET_GYRO?SEEKFREE_ICM20602
   *DEL*:           000050H   BYTE   INSEG    CODE           ?PR?IMU660RA_GET_GYRO?SEEKFREE_IMU660RA
   *DEL*:           000022H   BYTE   INSEG    CODE           ?PR?IMU660RA_WRITE_REGISTERS?SEEKFREE_IMU660RA
   *DEL*:           0000A8H   BYTE   INSEG    CODE           ?PR?IMU660RA_GYRO_TRANSITION?SEEKFREE_IMU660RA
   *DEL*:           00001AH   BYTE   INSEG    CODE           ?PR?IMU660RA_WRITE_REGISTER?SEEKFREE_IMU660RA
   *DEL*:           00004BH   BYTE   INSEG    CODE           ?PR?IMU660RA_SELF_CHECK?SEEKFREE_IMU660RA
   *DEL*:           00003EH   BYTE   INSEG    CODE           ?PR?IMU660RA_SIMSPI_W_REG_BYTES?SEEKFREE_IMU660RA
   *DEL*:           00001BH   BYTE   INSEG    CODE           ?PR?IMU660RA_SIMSPI_W_REG_BYTE?SEEKFREE_IMU660RA
   *DEL*:           0000AEH   BYTE   INSEG    CODE           ?PR?IMU660RA_INIT?SEEKFREE_IMU660RA
   *DEL*:           000050H   BYTE   INSEG    CODE           ?PR?IMU660RA_GET_ACC?SEEKFREE_IMU660RA
   *DEL*:           00007CH   BYTE   INSEG    CODE           ?PR?IMU660RA_ACC_TRANSITION?SEEKFREE_IMU660RA
   *DEL*:           000026H   BYTE   INSEG    CODE           ?PR?IMU660RA_READ_REGISTERS?SEEKFREE_IMU660RA
   *DEL*:           00008DH   BYTE   INSEG    CODE           ?PR?IMU963RA_ACC_TRANSITION?SEEKFREE_IMU963RA
   *DEL*:           000050H   BYTE   INSEG    CODE           ?PR?IMU963RA_GET_GYRO?SEEKFREE_IMU963RA
   *DEL*:           000051H   BYTE   INSEG    CODE           ?PR?IMU963RA_MAG_TRANSITION?SEEKFREE_IMU963RA
   *DEL*:           0000D2H   BYTE   INSEG    CODE           ?PR?IMU963RA_GYRO_TRANSITION?SEEKFREE_IMU963RA
   *DEL*:           00003AH   BYTE   INSEG    CODE           ?PR?IMU963RA_CONNECT_MAG?SEEKFREE_IMU963RA
   *DEL*:           000026H   BYTE   INSEG    CODE           ?PR?IMU963RA_READ_ACC_GYRO_REGISTERS?SEEKFREE_IMU963RA
   *DEL*:           00007FH   BYTE   INSEG    CODE           ?PR?IMU963RA_WRITE_MAG_REGISTER?SEEKFREE_IMU963RA
   *DEL*:           00004BH   BYTE   INSEG    CODE           ?PR?IMU963RA_SIMSPI_R_REG_BYTES?SEEKFREE_IMU963RA
   *DEL*:           000051H   BYTE   INSEG    CODE           ?PR?IMU963RA_MAG_SELF_CHECK?SEEKFREE_IMU963RA
   *DEL*:           00011DH   BYTE   INSEG    CODE           ?PR?IMU963RA_INIT?SEEKFREE_IMU963RA
L251 LINKER/LOCATER V4.66.93.0                                                        10/07/2023  14:21:18  PAGE 11


   *DEL*:           00004EH   BYTE   INSEG    CODE           ?PR?IMU963RA_ACC_GYRO_SELF_CHECK?SEEKFREE_IMU963RA
   *DEL*:           000050H   BYTE   INSEG    CODE           ?PR?IMU963RA_GET_ACC?SEEKFREE_IMU963RA
   *DEL*:           00006BH   BYTE   INSEG    CODE           ?PR?IMU963RA_GET_MAG?SEEKFREE_IMU963RA
   *DEL*:           0000A9H   BYTE   INSEG    CODE           ?PR?IPS114_SHOWUINT8_SIMSPI?SEEKFREE_IPS114_SPI
   *DEL*:           0000A5H   BYTE   INSEG    CODE           ?PR?IPS114_SHOWUINT8?SEEKFREE_IPS114_SPI
   *DEL*:           0000EBH   BYTE   INSEG    CODE           ?PR?IPS114_SHOWINT8_SIMSPI?SEEKFREE_IPS114_SPI
   *DEL*:           0000E7H   BYTE   INSEG    CODE           ?PR?IPS114_SHOWINT8?SEEKFREE_IPS114_SPI
   *DEL*:           000145H   BYTE   INSEG    CODE           ?PR?IPS114_SHOWFLOAT_SIMSPI?SEEKFREE_IPS114_SPI
   *DEL*:           000023H   BYTE   INSEG    CODE           ?PR?IPS114_DRAWPOINT_SIMSPI?SEEKFREE_IPS114_SPI
   *DEL*:           000145H   BYTE   INSEG    CODE           ?PR?IPS114_SHOWFLOAT?SEEKFREE_IPS114_SPI
   *DEL*:           000023H   BYTE   INSEG    CODE           ?PR?IPS114_DRAWPOINT?SEEKFREE_IPS114_SPI
   *DEL*:           0000BFH   BYTE   INSEG    CODE           ?PR?IPS114_SHOWCHAR_SIMSPI?SEEKFREE_IPS114_SPI
   *DEL*:           0000CDH   BYTE   INSEG    CODE           ?PR?IPS114_SHOWUINT16_SIMSPI?SEEKFREE_IPS114_SPI
   *DEL*:           0000CEH   BYTE   INSEG    CODE           ?PR?IPS114_SHOWINT32_SIMSPI?SEEKFREE_IPS114_SPI
   *DEL*:           000119H   BYTE   INSEG    CODE           ?PR?IPS114_SHOWINT16_SIMSPI?SEEKFREE_IPS114_SPI
   *DEL*:           0000CEH   BYTE   INSEG    CODE           ?PR?IPS114_SHOWINT32?SEEKFREE_IPS114_SPI
   *DEL*:           000115H   BYTE   INSEG    CODE           ?PR?IPS114_SHOWINT16?SEEKFREE_IPS114_SPI
   *DEL*:           00005FH   BYTE   INSEG    CODE           ?PR?IPS114_CLEAR_SIMSPI?SEEKFREE_IPS114_SPI
   *DEL*:           00005DH   BYTE   INSEG    CODE           ?PR?IPS114_SHOWSTR_SIMSPI?SEEKFREE_IPS114_SPI
   *DEL*:           00005DH   BYTE   INSEG    CODE           ?PR?IPS114_SHOWSTR?SEEKFREE_IPS114_SPI
   *DEL*:           00004CH   BYTE   INSEG    CODE           ?PR?IPS114_WRITEDATA_SIMSPI?SEEKFREE_IPS114_SPI
   *DEL*:           000054H   BYTE   INSEG    CODE           ?PR?IPS114_SET_REGION_SIMSPI?SEEKFREE_IPS114_SPI
   *DEL*:           000154H   BYTE   INSEG    CODE           ?PR?IPS114_INIT_SIMSPI?SEEKFREE_IPS114_SPI
   *DEL*:           00006CH   BYTE   INSEG    CODE           ?PR?MPU6050_SIMIIC_READ_REGS?SEEKFREE_MPU6050
   *DEL*:           00003BH   BYTE   INSEG    CODE           ?PR?MPU6050_SIMIIC_READ_REG?SEEKFREE_MPU6050
   *DEL*:           00002AH   BYTE   INSEG    CODE           ?PR?MPU6050_SIMIIC_WRITE_REG?SEEKFREE_MPU6050
   *DEL*:           000060H   BYTE   INSEG    CODE           ?PR?MPU6050_INIT?SEEKFREE_MPU6050
   *DEL*:           000033H   BYTE   INSEG    CODE           ?PR?MPU6050_SELF1_CHECK?SEEKFREE_MPU6050
   *DEL*:           00006AH   BYTE   INSEG    CODE           ?PR?MPU6050_READ_CH?SEEKFREE_MPU6050
   *DEL*:           000049H   BYTE   INSEG    CODE           ?PR?MPU6050_SEND_CH?SEEKFREE_MPU6050
   *DEL*:           000052H   BYTE   INSEG    CODE           ?PR?MPU6050_GET_GYRO?SEEKFREE_MPU6050
   *DEL*:           000021H   BYTE   INSEG    CODE           ?PR?MPU6050_SCCB_WAITACK?SEEKFREE_MPU6050
   *DEL*:           000052H   BYTE   INSEG    CODE           ?PR?MPU6050_GET_ACCDATA?SEEKFREE_MPU6050
   *DEL*:           000047H   BYTE   INSEG    CODE           ?PR?OLED_PUTPIXEL?SEEKFREE_OLED
   *DEL*:           00006FH   BYTE   INSEG    CODE           ?PR?OLED_HEXASCII_SPI?SEEKFREE_OLED
   *DEL*:           00044DH   BYTE   INSEG    CODE           ?PR?OLED_DIS_BMP_SPI?SEEKFREE_OLED
   *DEL*:           000145H   BYTE   INSEG    CODE           ?PR?OLED_PRINTF_FLOAT?SEEKFREE_OLED
   *DEL*:           000121H   BYTE   INSEG    CODE           ?PR?OLED_P8X16STR_SPI?SEEKFREE_OLED
   *DEL*:           000041H   BYTE   INSEG    CODE           ?PR?OLED_CLRPIXEL_SPI?SEEKFREE_OLED
   *DEL*:           0000C0H   BYTE   INSEG    CODE           ?PR?OLED_PRINT_CHINESE_SPI?SEEKFREE_OLED
   *DEL*:           00005DH   BYTE   INSEG    CODE           ?PR?OLED_FILL?SEEKFREE_OLED
   *DEL*:           0000CEH   BYTE   INSEG    CODE           ?PR?OLED_PRINTF_INT32?SEEKFREE_OLED
   *DEL*:           000027H   BYTE   INSEG    CODE           ?PR?OLED_UINT16?SEEKFREE_OLED
   *DEL*:           000048H   BYTE   INSEG    CODE           ?PR?OLED_PUTPIXEL_SPI?SEEKFREE_OLED
   *DEL*:           0000D1H   BYTE   INSEG    CODE           ?PR?OLED_P6X8STR?SEEKFREE_OLED
   *DEL*:           000073H   BYTE   INSEG    CODE           ?PR?OLED_INT16?SEEKFREE_OLED
   *DEL*:           0000A8H   BYTE   INSEG    CODE           ?PR?OLED_INIT?SEEKFREE_OLED
   *DEL*:           000145H   BYTE   INSEG    CODE           ?PR?OLED_PRINTF_FLOAT_SPI?SEEKFREE_OLED
   *DEL*:           00006FH   BYTE   INSEG    CODE           ?PR?OLED_HEXASCII?SEEKFREE_OLED
   *DEL*:           00005DH   BYTE   INSEG    CODE           ?PR?OLED_FILL_SPI?SEEKFREE_OLED
   *DEL*:           0000CEH   BYTE   INSEG    CODE           ?PR?OLED_PRINTF_INT32_SPI?SEEKFREE_OLED
   *DEL*:           000027H   BYTE   INSEG    CODE           ?PR?OLED_UINT16_SPI?SEEKFREE_OLED
   *DEL*:           0000D1H   BYTE   INSEG    CODE           ?PR?OLED_P6X8STR_SPI?SEEKFREE_OLED
   *DEL*:           000073H   BYTE   INSEG    CODE           ?PR?OLED_INT16_SPI?SEEKFREE_OLED
   *DEL*:           00046AH   BYTE   INSEG    CODE           ?PR?OLED_DIS_BMP?SEEKFREE_OLED
   *DEL*:           0000C5H   BYTE   INSEG    CODE           ?PR?OLED_INIT_SPI?SEEKFREE_OLED
   *DEL*:           000121H   BYTE   INSEG    CODE           ?PR?OLED_P8X16STR?SEEKFREE_OLED
   *DEL*:           000040H   BYTE   INSEG    CODE           ?PR?OLED_CLRPIXEL?SEEKFREE_OLED
   *DEL*:           0000C0H   BYTE   INSEG    CODE           ?PR?OLED_PRINT_CHINESE?SEEKFREE_OLED
   *DEL*:           000117H   BYTE   INSEG    CODE           ?PR?NUMBER_CONVERSION_ASCII?SEEKFREE_PRINTF
   *DEL*:           000661H   BYTE   INSEG    CODE           ?PR?ZF_SPRINTF?SEEKFREE_PRINTF
   *DEL*:           000095H   BYTE   INSEG    CODE           ?PR?PRINTF_REVERSE_ORDER?SEEKFREE_PRINTF
   *DEL*:           00009AH   BYTE   INSEG    CODE           ?PR?CRC_CHECK?SEEKFREE_VIRSCO
   *DEL*:           0000DCH   BYTE   INSEG    CODE           ?PR?DATA_CONVERSION?SEEKFREE_VIRSCO
   *DEL*:           00002EH   BYTE   INSEG    CODE           ?PR?WIRELESS_UART_READ_BUFF?SEEKFREE_WIRELESS
L251 LINKER/LOCATER V4.66.93.0                                                        10/07/2023  14:21:18  PAGE 12


   *DEL*:           000073H   BYTE   INSEG    CODE           ?PR?WIRELESS_UART_SEND_BUFF?SEEKFREE_WIRELESS
   *DEL*:           00003EH   BYTE   INSEG    CODE           ?PR?WIRELESS_UART_INIT?SEEKFREE_WIRELESS
   *DEL*:           00002EH   BYTE   INSEG    CODE           ?PR?WIRELESS_CH573_READ_BUFF?SEEKFREE_WIRELESS_CH573
   *DEL*:           000073H   BYTE   INSEG    CODE           ?PR?WIRELESS_CH573_SEND_BUFF?SEEKFREE_WIRELESS_CH573
   *DEL*:           00003EH   BYTE   INSEG    CODE           ?PR?WIRELESS_CH573_INIT?SEEKFREE_WIRELESS_CH573
   *DEL*:           000001H   BYTE   INSEG    CODE           ?PR?MOTORCTRL?MOTOR
   *DEL*:           000001H   BYTE   INSEG    CODE           ?PR?STEERCTRL?STEER
   *DEL*:           000004H   BYTE   INSEG    CODE           ?PR?ALL_INIT?ALLINIT
   *DEL*:           000016H   BYTE   INSEG    CODE           ?PR?TIMER_INIT?ALLINIT
   *DEL*:           000036H   BYTE   INSEG    CODE           ?PR?JUDGE_CIRCLE_IN?PIDCC
   *DEL*:           000036H   BYTE   INSEG    CODE           ?PR?JUDGE_CIRCLE_OUT?PIDCC
   *DEL*:           000255H   BYTE   INSEG    CODE           ?PR?SPEEDRIGHT_PID_REALIZE?PIDCC
   *DEL*:           000020H   BYTE   INSEG    CODE           ?PR?SPEED_PID?PIDCC
   *DEL*:           000255H   BYTE   INSEG    CODE           ?PR?SPEEDLEFT_PID_REALIZE?PIDCC
   *DEL*:           0000ABH   BYTE   INSEG    CODE           ?PR?JUDGE_CIRCLE?PIDCC
   *DEL*:           00011FH   BYTE   INSEG    CODE           ?PR?PID_PARAM_INIT?PIDCC
   *DEL*:           000028H   BYTE   UNIT     EDATA          ?ED?PRINTF
   *DEL*:           00001AH   BYTE   INSEG    CODE           ?PR?MEMSET?_?MEMSET



OVERLAY MAP OF MODULE:   .\Out_File\SEEKFREE (board)


FUNCTION/MODULE                                BIT_GROUP   DATA_GROUP 
--> CALLED FUNCTION/MODULE                    START  STOP  START  STOP
======================================================================
UART1_Isr/isr                                 ----- -----  ----- -----

*** NEW ROOT ********************************

UART2_Isr/isr                                 ----- -----  ----- -----

*** NEW ROOT ********************************

UART3_Isr/isr                                 ----- -----  ----- -----

*** NEW ROOT ********************************

UART4_Isr/isr                                 ----- -----  ----- -----
  +--> wireless_uart_callback/SEEKFREE_WIRELESS
  +--> bluetooth_ch9141_uart_callback/SEEKFREE_BLUETOOTH_CH9141
  +--> wireless_ch573_callback/SEEKFREE_WIRELESS_CH573

wireless_uart_callback/SEEKFREE_WIRELESS      ----- -----  ----- -----
  +--> fifo_write_buffer/zf_fifo

fifo_write_buffer/zf_fifo                     ----- -----  ----- -----
  +--> memcpy?_/memcpy
  +--> fifo_head_offset/zf_fifo

memcpy?_/memcpy                               ----- -----  ----- -----

fifo_head_offset/zf_fifo                      ----- -----  ----- -----

bluetooth_ch9141_uart_callback/SEEKFREE_+     ----- -----  ----- -----
... BLUETOOTH_CH9141
  +--> fifo_write_buffer/zf_fifo

wireless_ch573_callback/SEEKFREE_WIRELES+     ----- -----  ----- -----
... S_CH573
  +--> fifo_write_buffer/zf_fifo

*** NEW ROOT ********************************

L251 LINKER/LOCATER V4.66.93.0                                                        10/07/2023  14:21:18  PAGE 13


INT0_Isr/isr                                  ----- -----  ----- -----

*** NEW ROOT ********************************

INT1_Isr/isr                                  ----- -----  ----- -----

*** NEW ROOT ********************************

INT2_Isr/isr                                  ----- -----  ----- -----

*** NEW ROOT ********************************

INT3_Isr/isr                                  ----- -----  ----- -----

*** NEW ROOT ********************************

INT4_Isr/isr                                  ----- -----  ----- -----

*** NEW ROOT ********************************

TM0_Isr/isr                                   ----- -----  ----- -----
  +--> pid_steers/pidcc
  +--> protect/motor

pid_steers/pidcc                              ----- -----  ----- -----
  +--> Filter/zf_adc
  +--> ele_direction_control/pidcc

Filter/zf_adc                                 ----- -----  ----- -----
  +--> adc_once/zf_adc

adc_once/zf_adc                               ----- -----  ----- -----

ele_direction_control/pidcc                   ----- -----  ----- -----
  +--> PWMSetSteer/steer

PWMSetSteer/steer                             ----- -----  ----- -----
  +--> pwm_duty/zf_pwm

pwm_duty/zf_pwm                               ----- -----  ----- -----

protect/motor                                 ----- -----  ----- -----

*** NEW ROOT ********************************

TM1_Isr/isr                                   ----- -----  ----- -----

*** NEW ROOT ********************************

TM2_Isr/isr                                   ----- -----  ----- -----

*** NEW ROOT ********************************

TM3_Isr/isr                                   ----- -----  ----- -----

*** NEW ROOT ********************************

TM4_Isr/isr                                   ----- -----  ----- -----

*** NEW ROOT ********************************

?C_C51STARTUP                                 ----- -----  ----- -----

*** NEW ROOT ********************************

L251 LINKER/LOCATER V4.66.93.0                                                        10/07/2023  14:21:18  PAGE 14


?C_C51STARTUP?3                               ----- -----  ----- -----
  +--> main/main

main/main                                     ----- -----  ----- -----
  +--> board_init/board
  +--> ips114_init/SEEKFREE_IPS114_SPI
  +--> motor_init/motor
  +--> steer_init/steer
  +--> adc_init/zf_adc
  +--> pit_timer_ms/zf_tim
  +--> ips114_clear/SEEKFREE_IPS114_SPI
  +--> ips114_showuint16/SEEKFREE_IPS114_SPI
  +--> PWMSetMotor2/motor

board_init/board                              ----- -----  ----- -----
  +--> set_clk/board
  +--> delay_init/zf_delay
  +--> uart_init/zf_uart
  +--> EnableGlobalIRQ/board

set_clk/board                                 ----- -----  ----- -----

delay_init/zf_delay                           ----- -----  ----- -----
  +--> ?C?SLDIV/?C?SLDIV

?C?SLDIV/?C?SLDIV                             ----- -----  ----- -----
  +--> ?C?ULIDIV/?C?ULDIV

?C?ULIDIV/?C?ULDIV                            ----- -----  ----- -----

uart_init/zf_uart                             ----- -----  ----- -----
  +--> ?C?ULIDIV/?C?ULDIV

EnableGlobalIRQ/board                         ----- -----  ----- -----

ips114_init/SEEKFREE_IPS114_SPI               ----- -----  ----- -----
  +--> spi_init/zf_spi
  +--> delay_ms/zf_delay
  +--> ips114_writeIndex/SEEKFREE_IPS114_SPI
  +--> ips114_writeData/SEEKFREE_IPS114_SPI
  +--> ips114_clear/SEEKFREE_IPS114_SPI

spi_init/zf_spi                               ----- -----  ----- -----
  +--> gpio_mode/zf_gpio

gpio_mode/zf_gpio                             ----- -----  ----- -----

delay_ms/zf_delay                             ----- -----  ----- -----

ips114_writeIndex/SEEKFREE_IPS114_SPI         ----- -----  ----- -----
  +--> spi_mosi/zf_spi

spi_mosi/zf_spi                               ----- -----  ----- -----

ips114_writeData/SEEKFREE_IPS114_SPI          ----- -----  ----- -----
  +--> spi_mosi/zf_spi

ips114_clear/SEEKFREE_IPS114_SPI              ----- -----  ----- -----
  +--> ips114_set_region/SEEKFREE_IPS114_SPI
  +--> ips114_writedata_16bit/SEEKFREE_IPS114_SPI

ips114_set_region/SEEKFREE_IPS114_SPI         ----- -----  ----- -----
  +--> ips114_writeIndex/SEEKFREE_IPS114_SPI
  +--> ips114_writedata_16bit/SEEKFREE_IPS114_SPI

L251 LINKER/LOCATER V4.66.93.0                                                        10/07/2023  14:21:18  PAGE 15


ips114_writedata_16bit/SEEKFREE_IPS114_S+     ----- -----  ----- -----
... PI
  +--> spi_mosi/zf_spi

motor_init/motor                              ----- -----  ----- -----
  +--> pwm_init/zf_pwm

pwm_init/zf_pwm                               ----- -----  ----- -----
  +--> pwm_set_gpio/zf_pwm
  +--> ?C?ULIDIV/?C?ULDIV

pwm_set_gpio/zf_pwm                           ----- -----  ----- -----
  +--> gpio_mode/zf_gpio

steer_init/steer                              ----- -----  ----- -----
  +--> pwm_init/zf_pwm

adc_init/zf_adc                               ----- -----  ----- -----

pit_timer_ms/zf_tim                           ----- -----  ----- -----
  +--> ?C?SLDIV/?C?SLDIV

ips114_showuint16/SEEKFREE_IPS114_SPI         ----- -----  ----- -----
  +--> ips114_showchar/SEEKFREE_IPS114_SPI

ips114_showchar/SEEKFREE_IPS114_SPI           ----- -----  ----- -----
  +--> ips114_set_region/SEEKFREE_IPS114_SPI
  +--> ips114_writedata_16bit/SEEKFREE_IPS114_SPI

PWMSetMotor2/motor                            ----- -----  ----- -----
  +--> pwm_duty/zf_pwm

*** NEW ROOT ********************************

?C_C51STARTUP?2                               ----- -----  ----- -----



PUBLIC SYMBOLS OF MODULE:  .\Out_File\SEEKFREE (board)


      VALUE       CLASS    TYPE      PUBLIC SYMBOL NAME
      =================================================
      00FF3BAAH   CODE     NEAR LAB  ?C?CASTF
      000000FFH   NUMBER   ---       ?C?CODESEG
      00FF3B77H   CODE     NEAR LAB  ?C?FCASTC
      00FF3B72H   CODE     NEAR LAB  ?C?FCASTI
      00FF3B6DH   CODE     NEAR LAB  ?C?FCASTL
      00FF394EH   CODE     ---       ?C?FPADD
      00FF3B29H   CODE     ---       ?C?FPCMP
      00FF3B27H   CODE     ---       ?C?FPCMP3
      00FF40AEH   CODE     ---       ?C?FPCONVERT
      00FF3AA6H   CODE     ---       ?C?FPDIV
      00FF3C13H   CODE     ---       ?C?FPGETOPN2
      00FF3A06H   CODE     ---       ?C?FPMUL
      00FF3C50H   CODE     ---       ?C?FPNANRESULT
      00FF3C58H   CODE     ---       ?C?FPOVERFLOW
      00FF3C2CH   CODE     ---       ?C?FPRESULT
      00FF3C42H   CODE     ---       ?C?FPRESULT2
      00FF4166H   CODE     ---       ?C?FPROUND
      00FF394BH   CODE     ---       ?C?FPSUB
      00FF3C55H   CODE     ---       ?C?FPUNDERFLOW
      00FF41D9H   CODE     ---       ?C?FTNPWR
      00FF71BAH   CODE     ---       ?C?INITEDATA
      00FF787AH   HCONST   WORD      ?C?INITEDATA_END
L251 LINKER/LOCATER V4.66.93.0                                                        10/07/2023  14:21:18  PAGE 16


      00FF4253H   CODE     ---       ?C?LIMUL
      00FF4242H   CODE     ---       ?C?LMUL
      00FF3C91H   CODE     ---       ?C?PRNFMT
      00FF4210H   CODE     ---       ?C?SIDIV
      00FF42AFH   CODE     NEAR LAB  ?C?SLDIV
      00FF0000H   CODE     ---       ?C?STARTUP
      00FF425EH   CODE     NEAR LAB  ?C?ULDIV
      00FF425CH   CODE     NEAR LAB  ?C?ULIDIV
      00000001H   NUMBER   ---       ?C?XDATASEG
      00FF0000H   CODE     ---       ?C_STARTUP
      0000066EH   EDATA    BYTE      ?data_conversion?BYTE
      00000626H   EDATA    BYTE      ?dl1b_iic_transfer_8bit_array?BYTE
      000005B9H   EDATA    BYTE      ?ele_direction_control?BYTE
      000006A3H   EDATA    BYTE      ?fifo_init?BYTE
      000005CDH   EDATA    BYTE      ?fifo_read_buffer?BYTE
      00000616H   EDATA    BYTE      ?fifo_write_buffer?BYTE
      000007BFH   EDATA    BYTE      ?iap_read_bytes?BYTE
      000007C9H   EDATA    BYTE      ?iap_write_bytes?BYTE
      00000362H   EDATA    BYTE      ?ips114_showfloat?BYTE
      00000332H   EDATA    BYTE      ?ips114_showfloat_simspi?BYTE
      0000077BH   EDATA    BYTE      ?judge_circle_in?BYTE
      00000787H   EDATA    BYTE      ?judge_circle_out?BYTE
      00000302H   EDATA    BYTE      ?lcd_showfloat?BYTE
      000002D2H   EDATA    BYTE      ?lcd_showfloat_simspi?BYTE
      000005A5H   EDATA    BYTE      ?number_conversion_ascii?BYTE
      00000392H   EDATA    BYTE      ?oled_printf_float?BYTE
      000003C2H   EDATA    BYTE      ?oled_printf_float_spi?BYTE
*DEL*:00000028H   EDATA    ---       ?printf?BYTE
      00000591H   EDATA    BYTE      ?pwm_freq?BYTE
      0000057DH   EDATA    BYTE      ?pwm_init?BYTE
      0000096EH   EDATA    BYTE      ?spi_init?BYTE
      00000644H   EDATA    BYTE      ?uart_init?BYTE
      0000014EH   EDATA    BYTE      ?zf_sprintf?BYTE
      000002C4H   EDATA    INT       accerror
*SFR* 000000BCH   DATA     BYTE      ADC_CONTR
      00FF6311H   CODE     ---       adc_init
      00000054H   EDATA    INT       adc_left_edge
      00000094H   EDATA    INT       adc_left_mid
      00000058H   EDATA    INT       adc_mid
      00FF6BF7H   CODE     ---       adc_once
*SFR* 000000BDH   DATA     BYTE      ADC_RES
*SFR* 000000BEH   DATA     BYTE      ADC_RESL
      0000002EH   EDATA    INT       adc_right_edge
      00000092H   EDATA    INT       adc_right_mid
*SFR* 000000DEH   DATA     BYTE      ADCCFG
*DEL*:00000000H   CODE     ---       all_init
*SFR* 000000EFH   DATA     BYTE      AUXINTIF
*SFR* 0000008EH   DATA     BYTE      AUXR
*SFR* 00000097H   DATA     BYTE      AUXR2
      000002D0H   EDATA    INT       begin_speed
*DEL*:00000000H   CODE     ---       bluetooth_ch9141_init
*DEL*:00000000H   CODE     ---       bluetooth_ch9141_read_buff
*DEL*:00000000H   CODE     ---       bluetooth_ch9141_send_buff
      00FF75A2H   CODE     ---       bluetooth_ch9141_uart_callback
      00FF63C6H   CODE     ---       board_init
      00000A3AH   EDATA    ---       busy
*SFR* 000000F1H   DATA     BYTE      CANICR
*SFR* 000000EAH   DATA     BYTE      CKCON
*SFR* 000000E6H   DATA     BYTE      CMPCR1
*SFR* 000000E7H   DATA     BYTE      CMPCR2
*DEL*:00000000H   CODE     ---       CRC_CHECK
*DEL*:00000000H   CODE     ---       ctimer_count_clean
*DEL*:00000000H   CODE     ---       ctimer_count_init
*DEL*:00000000H   CODE     ---       ctimer_count_read
*DEL*:00000000H   CODE     ---       data_conversion
L251 LINKER/LOCATER V4.66.93.0                                                        10/07/2023  14:21:18  PAGE 17


      000002C8H   EDATA    FLOAT     dd1
      000002CCH   EDATA    FLOAT     dd2
      00FF7166H   CODE     ---       delay_init
      00FF7258H   CODE     ---       delay_ms
*DEL*:00000000H   CODE     ---       delay_us
*DEL*:00000000H   CODE     ---       DisableGlobalIRQ
      00000ABDH   EDATA    WORD      dl1a_distance_mm
      00000ABFH   EDATA    BYTE      dl1a_finsh_flag
*DEL*:00000000H   CODE     ---       dl1a_get_distance
*DEL*:00000000H   CODE     ---       dl1a_init
      00FF00A6H   CODE     ---       dl1b_default_configuration
      00000A90H   EDATA    WORD      dl1b_distance_mm
      00000A92H   EDATA    BYTE      dl1b_finsh_flag
*DEL*:00000000H   CODE     ---       dl1b_get_distance
*DEL*:00000000H   CODE     ---       dl1b_iic_transfer_8bit_array
*DEL*:00000000H   CODE     ---       dl1b_init
      00000A93H   EDATA    BYTE      dl1b_init_flag
*SFR* 000000A8H.7 DATA     BIT       EA
*SFR* 000000BAH.7 DATA     BIT       EAXFR
*DEL*:00000000H   CODE     ---       eeprom_trig
      00FF2F35H   CODE     ---       ele_direction_control
      00FF0006H   CODE     ---       EnableGlobalIRQ
*SFR* 000000A8H.4 DATA     BIT       ES
*SFR* 000000A8H.1 DATA     BIT       ET0
*SFR* 000000A8H.3 DATA     BIT       ET1
*SFR* 000000A8H.0 DATA     BIT       EX0
*SFR* 000000A8H.2 DATA     BIT       EX1
*DEL*:00000000H   CODE     ---       exit_init
*SFR* 000000D0H.5 DATA     BIT       F0
*DEL*:00000000H   CODE     ---       fifo_clear
*DEL*:00000000H   CODE     ---       fifo_end_offset
      00FF67C1H   CODE     ---       fifo_head_offset
*DEL*:00000000H   CODE     ---       fifo_init
*DEL*:00000000H   CODE     ---       fifo_read_buffer
*DEL*:00000000H   CODE     ---       fifo_used
      00FF5C6AH   CODE     ---       fifo_write_buffer
      00FF5B17H   CODE     ---       Filter
      00FF42E3H   CODE     ---       gpio_mode
*DEL*:00000000H   CODE     ---       gpio_pull_set
*SFR* 000000F6H   DATA     BYTE      IAP_ADDRE
*SFR* 000000C3H   DATA     BYTE      IAP_ADDRH
*SFR* 000000C4H   DATA     BYTE      IAP_ADDRL
*SFR* 000000C5H   DATA     BYTE      IAP_CMD
*SFR* 000000C7H   DATA     BYTE      IAP_CONTR
*SFR* 000000C2H   DATA     BYTE      IAP_DATA
*DEL*:00000000H   CODE     ---       iap_erase_page
*DEL*:00000000H   CODE     ---       iap_get_cmd_state
*DEL*:00000000H   CODE     ---       iap_idle
*DEL*:00000000H   CODE     ---       iap_init
*DEL*:00000000H   CODE     ---       iap_read_bytes
*DEL*:00000000H   CODE     ---       iap_set_tps
*SFR* 000000F5H   DATA     BYTE      IAP_TPS
*SFR* 000000C6H   DATA     BYTE      IAP_TRIG
*DEL*:00000000H   CODE     ---       iap_write_bytes
*DEL*:00000000H   CODE     ---       icm20602_acc_transition
      0000070FH   EDATA    INT       icm20602_acc_x
      00000711H   EDATA    INT       icm20602_acc_y
      00000713H   EDATA    INT       icm20602_acc_z
*DEL*:00000000H   CODE     ---       icm20602_get_acc
*DEL*:00000000H   CODE     ---       icm20602_get_gyro
*DEL*:00000000H   CODE     ---       icm20602_gyro_transition
      00000715H   EDATA    INT       icm20602_gyro_x
      00000717H   EDATA    INT       icm20602_gyro_y
      00000719H   EDATA    INT       icm20602_gyro_z
*DEL*:00000000H   CODE     ---       icm20602_init
L251 LINKER/LOCATER V4.66.93.0                                                        10/07/2023  14:21:18  PAGE 18


*SFR* 000000A8H   DATA     BYTE      IE
*SFR* 000000AFH   DATA     BYTE      IE2
      00000284H   EDATA    FLOAT     ii1
      00000288H   EDATA    FLOAT     ii2
*DEL*:00000000H   CODE     ---       imu660ra_acc_transition
      0000071BH   EDATA    INT       imu660ra_acc_x
      0000071DH   EDATA    INT       imu660ra_acc_y
      0000071FH   EDATA    INT       imu660ra_acc_z
      00FF012DH   CODE     ---       imu660ra_config_file
*DEL*:00000000H   CODE     ---       imu660ra_get_acc
*DEL*:00000000H   CODE     ---       imu660ra_get_gyro
*DEL*:00000000H   CODE     ---       imu660ra_gyro_transition
      00000721H   EDATA    INT       imu660ra_gyro_x
      00000723H   EDATA    INT       imu660ra_gyro_y
      00000725H   EDATA    INT       imu660ra_gyro_z
*DEL*:00000000H   CODE     ---       imu660ra_init
*DEL*:00000000H   CODE     ---       imu963ra_acc_transition
      000005E0H   EDATA    INT       imu963ra_acc_x
      000005E2H   EDATA    INT       imu963ra_acc_y
      000005E4H   EDATA    INT       imu963ra_acc_z
*DEL*:00000000H   CODE     ---       imu963ra_get_acc
*DEL*:00000000H   CODE     ---       imu963ra_get_gyro
*DEL*:00000000H   CODE     ---       imu963ra_get_mag
*DEL*:00000000H   CODE     ---       imu963ra_gyro_transition
      000005ECH   EDATA    INT       imu963ra_gyro_x
      000005EEH   EDATA    INT       imu963ra_gyro_y
      000005F0H   EDATA    INT       imu963ra_gyro_z
*DEL*:00000000H   CODE     ---       imu963ra_init
*DEL*:00000000H   CODE     ---       imu963ra_mag_transition
      000005E6H   EDATA    INT       imu963ra_mag_x
      000005E8H   EDATA    INT       imu963ra_mag_y
      000005EAH   EDATA    INT       imu963ra_mag_z
      0000028CH   EDATA    FLOAT     in1
      00000290H   EDATA    FLOAT     in2
      00FF0046H   CODE     ---       INT0_Isr
      00FF000AH   CODE     ---       INT1_Isr
      00FF7712H   CODE     ---       INT2_Isr
      00FF771AH   CODE     ---       INT3_Isr
      00FF7722H   CODE     ---       INT4_Isr
*SFR* 0000008FH   DATA     BYTE      INTCLKO
*SFR* 000000B8H   DATA     BYTE      IP
*SFR* 000000B5H   DATA     BYTE      IP2
*SFR* 000000B6H   DATA     BYTE      IP2H
*SFR* 000000DFH   DATA     BYTE      IP3
*SFR* 000000EEH   DATA     BYTE      IP3H
*SFR* 000000B7H   DATA     BYTE      IPH
      00000032H   EDATA    ---       ipid_speed_left
      0000000CH   EDATA    ---       ipid_speed_right
      00FF6A2FH   CODE     ---       ips114_clear
*DEL*:00000000H   CODE     ---       ips114_clear_simspi
*DEL*:00000000H   CODE     ---       ips114_drawpoint
*DEL*:00000000H   CODE     ---       ips114_drawpoint_simspi
      00FF583AH   CODE     ---       ips114_init
*DEL*:00000000H   CODE     ---       ips114_init_simspi
      00FF6CF7H   CODE     ---       ips114_set_region
*DEL*:00000000H   CODE     ---       ips114_set_region_simspi
      00FF6252H   CODE     ---       ips114_showchar
*DEL*:00000000H   CODE     ---       ips114_showchar_simspi
*DEL*:00000000H   CODE     ---       ips114_showfloat
*DEL*:00000000H   CODE     ---       ips114_showfloat_simspi
*DEL*:00000000H   CODE     ---       ips114_showint16
*DEL*:00000000H   CODE     ---       ips114_showint16_simspi
*DEL*:00000000H   CODE     ---       ips114_showint32
*DEL*:00000000H   CODE     ---       ips114_showint32_simspi
*DEL*:00000000H   CODE     ---       ips114_showint8
L251 LINKER/LOCATER V4.66.93.0                                                        10/07/2023  14:21:18  PAGE 19


*DEL*:00000000H   CODE     ---       ips114_showint8_simspi
*DEL*:00000000H   CODE     ---       ips114_showstr
*DEL*:00000000H   CODE     ---       ips114_showstr_simspi
      00FF6185H   CODE     ---       ips114_showuint16
*DEL*:00000000H   CODE     ---       ips114_showuint16_simspi
*DEL*:00000000H   CODE     ---       ips114_showuint8
*DEL*:00000000H   CODE     ---       ips114_showuint8_simspi
      00FF7675H   CODE     ---       ips114_writeData
      00FF7376H   CODE     ---       ips114_writedata_16bit
*DEL*:00000000H   CODE     ---       ips114_writeData_simspi
      00FF6CA2H   CODE     ---       ips114_writeDatai_16bit_simspi
      00FF7660H   CODE     ---       ips114_writeIndex
      00FF6ED8H   CODE     ---       ips114_writeIndex_simspi
*SFR* 0000009DH   DATA     BYTE      IRCBAND
*SFR* 0000009FH   DATA     BYTE      IRTRIM
*SFR* 00000088H.0 DATA     BIT       IT0
*SFR* 00000088H.2 DATA     BIT       IT1
      000002BCH   EDATA    FLOAT     iterm1
      000002C0H   EDATA    FLOAT     iterm2
*DEL*:00000000H   CODE     ---       judge_circle
*DEL*:00000000H   CODE     ---       judge_circle_in
*DEL*:00000000H   CODE     ---       judge_circle_out
      000002C6H   EDATA    INT       lasterror
      000002B4H   EDATA    FLOAT     lastin1
      000002B8H   EDATA    FLOAT     lastin2
*DEL*:00000000H   CODE     ---       lcd_clear
*DEL*:00000000H   CODE     ---       lcd_clear_simspi
*DEL*:00000000H   CODE     ---       lcd_drawpoint
*DEL*:00000000H   CODE     ---       lcd_drawpoint_simspi
*DEL*:00000000H   CODE     ---       lcd_init
*DEL*:00000000H   CODE     ---       lcd_init_simspi
      00FF69CBH   CODE     ---       lcd_set_region
      00FF6967H   CODE     ---       lcd_set_region_simspi
*DEL*:00000000H   CODE     ---       lcd_showchar
*DEL*:00000000H   CODE     ---       lcd_showchar_simspi
*DEL*:00000000H   CODE     ---       lcd_showfloat
*DEL*:00000000H   CODE     ---       lcd_showfloat_simspi
*DEL*:00000000H   CODE     ---       lcd_showint16
*DEL*:00000000H   CODE     ---       lcd_showint16_simspi
*DEL*:00000000H   CODE     ---       lcd_showint32
*DEL*:00000000H   CODE     ---       lcd_showint32_simspi
*DEL*:00000000H   CODE     ---       lcd_showint8
*DEL*:00000000H   CODE     ---       lcd_showint8_simspi
*DEL*:00000000H   CODE     ---       lcd_showstr
*DEL*:00000000H   CODE     ---       lcd_showstr_simspi
*DEL*:00000000H   CODE     ---       lcd_showuint16
*DEL*:00000000H   CODE     ---       lcd_showuint16_simspi
*DEL*:00000000H   CODE     ---       lcd_showuint8
*DEL*:00000000H   CODE     ---       lcd_showuint8_simspi
      00FF764BH   CODE     ---       lcd_writeData
      00FF7322H   CODE     ---       lcd_writedata_16bit
      00FF6C4DH   CODE     ---       lcd_writeData_16bit_simspi
      00FF6E8CH   CODE     ---       lcd_writeData_simspi
      00FF7636H   CODE     ---       lcd_writeIndex
      00FF6E40H   CODE     ---       lcd_writeIndex_simspi
      000006A0H   EDATA    WORD      left_speed_in
*SFR* 000000F9H   DATA     BYTE      LINICR
      00FF64EBH   CODE     ---       main
      000002B0H   EDATA    FLOAT     max_speed
      00FF743FH   CODE     ---       memcpy?_
*DEL*:00000000H   CODE     ---       memset?_
      000002ACH   EDATA    FLOAT     min_speed
      00FF70DFH   CODE     ---       motor_init
*DEL*:00000000H   CODE     ---       motorCtrl
      00000757H   EDATA    INT       mpu6050_acc_x
L251 LINKER/LOCATER V4.66.93.0                                                        10/07/2023  14:21:18  PAGE 20


      00000759H   EDATA    INT       mpu6050_acc_y
      0000075BH   EDATA    INT       mpu6050_acc_z
*DEL*:00000000H   CODE     ---       mpu6050_get_accdata
*DEL*:00000000H   CODE     ---       mpu6050_get_gyro
      0000075DH   EDATA    INT       mpu6050_gyro_x
      0000075FH   EDATA    INT       mpu6050_gyro_y
      00000761H   EDATA    INT       mpu6050_gyro_z
*DEL*:00000000H   CODE     ---       mpu6050_init
*DEL*:00000000H   CODE     ---       mpu6050_simiic_read_reg
*DEL*:00000000H   CODE     ---       mpu6050_simiic_read_regs
*DEL*:00000000H   CODE     ---       number_conversion_ascii
*DEL*:00000000H   CODE     ---       NVIC_SetPriority
      00FF2D0DH   CODE     ---       oled_6x8
      00FF212DH   CODE     ---       oled_8x16
*DEL*:00000000H   CODE     ---       oled_clrpixel
*DEL*:00000000H   CODE     ---       oled_clrpixel_spi
*DEL*:00000000H   CODE     ---       oled_dis_bmp
*DEL*:00000000H   CODE     ---       oled_dis_bmp_spi
*DEL*:00000000H   CODE     ---       oled_fill
*DEL*:00000000H   CODE     ---       oled_fill_spi
*DEL*:00000000H   CODE     ---       oled_hexascii
*DEL*:00000000H   CODE     ---       oled_hexascii_spi
*DEL*:00000000H   CODE     ---       oled_init
*DEL*:00000000H   CODE     ---       oled_init_spi
*DEL*:00000000H   CODE     ---       oled_int16
*DEL*:00000000H   CODE     ---       oled_int16_spi
*DEL*:00000000H   CODE     ---       oled_p6x8str
*DEL*:00000000H   CODE     ---       oled_p6x8str_spi
*DEL*:00000000H   CODE     ---       oled_p8x16str
*DEL*:00000000H   CODE     ---       oled_p8x16str_spi
*DEL*:00000000H   CODE     ---       oled_print_chinese
*DEL*:00000000H   CODE     ---       oled_print_chinese_spi
*DEL*:00000000H   CODE     ---       oled_printf_float
*DEL*:00000000H   CODE     ---       oled_printf_float_spi
*DEL*:00000000H   CODE     ---       oled_printf_int32
*DEL*:00000000H   CODE     ---       oled_printf_int32_spi
*DEL*:00000000H   CODE     ---       oled_putpixel
*DEL*:00000000H   CODE     ---       oled_putpixel_spi
      00FF728DH   CODE     ---       oled_set_pos
      00FF7222H   CODE     ---       oled_set_pos_spi
*DEL*:00000000H   CODE     ---       oled_uint16
*DEL*:00000000H   CODE     ---       oled_uint16_spi
      00FF6F24H   CODE     ---       oled_wrcmd
      00FF768AH   CODE     ---       oled_wrcmd_spi
      00FF6F70H   CODE     ---       oled_wrdat
      00FF769FH   CODE     ---       oled_wrdat_spi
      00000294H   EDATA    FLOAT     out1
      00000298H   EDATA    FLOAT     out2
*SFR* 00000080H   DATA     BYTE      P0
*SFR* 00000080H.7 DATA     BIT       P07
*SFR* 00000094H   DATA     BYTE      P0M0
*SFR* 00000093H   DATA     BYTE      P0M1
*SFR* 00000090H   DATA     BYTE      P1
*SFR* 00000092H   DATA     BYTE      P1M0
*SFR* 00000091H   DATA     BYTE      P1M1
*SFR* 000000A0H   DATA     BYTE      P2
*SFR* 000000A0H.0 DATA     BIT       P20
*SFR* 000000A0H.1 DATA     BIT       P21
*SFR* 000000A0H.2 DATA     BIT       P22
*SFR* 000000A0H.3 DATA     BIT       P23
*SFR* 000000A0H.5 DATA     BIT       P25
*SFR* 000000A0H.7 DATA     BIT       P27
*SFR* 00000096H   DATA     BYTE      P2M0
*SFR* 00000095H   DATA     BYTE      P2M1
*SFR* 000000B0H   DATA     BYTE      P3
L251 LINKER/LOCATER V4.66.93.0                                                        10/07/2023  14:21:18  PAGE 21


*SFR* 000000B2H   DATA     BYTE      P3M0
*SFR* 000000B1H   DATA     BYTE      P3M1
*SFR* 000000C0H   DATA     BYTE      P4
*SFR* 000000C0H.0 DATA     BIT       P40
*SFR* 000000C0H.1 DATA     BIT       P41
*SFR* 000000C0H.2 DATA     BIT       P42
*SFR* 000000C0H.3 DATA     BIT       P43
*SFR* 000000C0H.7 DATA     BIT       P47
*SFR* 000000B4H   DATA     BYTE      P4M0
*SFR* 000000B3H   DATA     BYTE      P4M1
*SFR* 000000C8H   DATA     BYTE      P5
*SFR* 000000C8H.2 DATA     BIT       P52
*SFR* 000000CAH   DATA     BYTE      P5M0
*SFR* 000000C9H   DATA     BYTE      P5M1
*SFR* 000000E8H   DATA     BYTE      P6
*SFR* 000000E8H.3 DATA     BIT       P63
*SFR* 000000E8H.5 DATA     BIT       P65
*SFR* 000000CCH   DATA     BYTE      P6M0
*SFR* 000000CBH   DATA     BYTE      P6M1
*SFR* 000000F8H   DATA     BYTE      P7
*SFR* 000000E2H   DATA     BYTE      P7M0
*SFR* 000000E1H   DATA     BYTE      P7M1
*SFR* 000000A2H   DATA     BYTE      P_SW1
*SFR* 000000BAH   DATA     BYTE      P_SW2
*SFR* 000000BBH   DATA     BYTE      P_SW3
*SFR* 00000087H   DATA     BYTE      PCON
*DEL*:00000000H   CODE     ---       PID_param_init
      0000005AH   EDATA    ---       pid_steer
      00FF6A8EH   CODE     ---       pid_steers
      00FF60A0H   CODE     ---       pit_timer_ms
      0000029CH   EDATA    FLOAT     pp1
      000002A0H   EDATA    FLOAT     pp2
      00FF3BE7H   CODE     NEAR LAB  printf
*DEL*:00000000H   CODE     ---       printf_reverse_order
      00FF750CH   CODE     ---       protect
      00000B31H   EDATA    INT       protect_motor
*SFR* 000000D0H   DATA     BYTE      PSW
      00FF76EEH   CODE     ---       putchar
      00FF789CH   HCONST   ---       PWM_ARR_ADDR
      00FF78A4H   HCONST   ---       PWM_CCER_ADDR
      00FF78B4H   HCONST   ---       PWM_CCMR_ADDR
      00FF787CH   HCONST   ---       PWM_CCR_ADDR
      00FF5DA2H   CODE     ---       pwm_duty
*DEL*:00000000H   CODE     ---       pwm_freq
      00FF4BF0H   CODE     ---       pwm_init
      00FF4FCAH   CODE     ---       pwm_set_gpio
      00FF5FAFH   CODE     ---       PWMSetMotor2
      00FF71E6H   CODE     ---       PWMSetSteer
      0000069EH   EDATA    WORD      right_speed_in
*SFR* 000000FFH   DATA     BYTE      RSTCFG
*SFR* 0000009BH   DATA     BYTE      S2BUF
*SFR* 0000009AH   DATA     BYTE      S2CON
*SFR* 000000ADH   DATA     BYTE      S3BUF
*SFR* 000000ACH   DATA     BYTE      S3CON
*SFR* 000000FEH   DATA     BYTE      S4BUF
*SFR* 000000FDH   DATA     BYTE      S4CON
*SFR* 00000099H   DATA     BYTE      SBUF
*SFR* 00000098H   DATA     BYTE      SCON
      00FF5634H   CODE     ---       set_clk
      000002A4H   EDATA    FLOAT     setpoint1
      000002A8H   EDATA    FLOAT     setpoint2
      00000008H   EDATA    FLOAT     setpoint_left
      00000096H   EDATA    FLOAT     setpoint_right
*DEL*:00000000H   CODE     ---       showimage
*SFR* 000000CEH   DATA     BYTE      SPCTL
L251 LINKER/LOCATER V4.66.93.0                                                        10/07/2023  14:21:18  PAGE 22


*SFR* 000000CFH   DATA     BYTE      SPDAT
*DEL*:00000000H   CODE     ---       speed_pid
      00000056H   EDATA    INT       speedflag
*DEL*:00000000H   CODE     ---       speedleft_pid_realize
*DEL*:00000000H   CODE     ---       speedright_pid_realize
*DEL*:00000000H   CODE     ---       spi_change_mode
*DEL*:00000000H   CODE     ---       spi_change_pin
      00FF5EBAH   CODE     ---       spi_init
      00FF7700H   CODE     ---       spi_mosi
*SFR* 000000CDH   DATA     BYTE      SPSTAT
      00000030H   EDATA    INT       status
      00FF76B4H   CODE     ---       steer_init
*DEL*:00000000H   CODE     ---       steerCtrl
      00000A58H   EDATA    LONG      sys_clk
*SFR* 000000D6H   DATA     BYTE      T2H
*SFR* 000000D7H   DATA     BYTE      T2L
*SFR* 000000D4H   DATA     BYTE      T3H
*SFR* 000000D5H   DATA     BYTE      T3L
*SFR* 000000D2H   DATA     BYTE      T4H
*SFR* 000000D3H   DATA     BYTE      T4L
*SFR* 000000DDH   DATA     BYTE      T4T3M
*SFR* 00000088H   DATA     BYTE      TCON
      00FF271DH   CODE     ---       tft_ascii
*SFR* 0000008CH   DATA     BYTE      TH0
*SFR* 0000008DH   DATA     BYTE      TH1
*DEL*:00000000H   CODE     ---       Timer_Init
*SFR* 0000008AH   DATA     BYTE      TL0
*SFR* 0000008BH   DATA     BYTE      TL1
      00FF72C2H   CODE     ---       TM0_Isr
      00FF000EH   CODE     ---       TM1_Isr
      00FF772AH   CODE     ---       TM2_Isr
      00FF7732H   CODE     ---       TM3_Isr
      00FF773AH   CODE     ---       TM4_Isr
*SFR* 00000089H   DATA     BYTE      TMOD
      0000069AH   EDATA    ---       toipid_speed_left
      00000696H   EDATA    ---       toipid_speed_right
*SFR* 00000088H.4 DATA     BIT       TR0
*SFR* 00000088H.6 DATA     BIT       TR1
      00FF7099H   CODE     ---       UART1_Isr
      00FF7549H   CODE     ---       UART2_Isr
      00FF7567H   CODE     ---       UART3_Isr
      00FF66E2H   CODE     ---       UART4_Isr
      00FF5382H   CODE     ---       uart_init
*DEL*:00000000H   CODE     ---       uart_putbuff
      00FF666DH   CODE     ---       uart_putchar
*DEL*:00000000H   CODE     ---       uart_putstr
*SFR* 000000F4H   DATA     BYTE      USBCON
      00000823H   EDATA    ---       virtual_scope_data
*SFR* 000000A6H   DATA     BYTE      VRTRIM
*SFR* 000000C1H   DATA     BYTE      WDT_CONTR
      00FF75F0H   CODE     ---       wireless_ch573_callback
*DEL*:00000000H   CODE     ---       wireless_ch573_init
*DEL*:00000000H   CODE     ---       wireless_ch573_read_buff
*DEL*:00000000H   CODE     ---       wireless_ch573_send_buff
      00000AEDH   EDATA    INT       wireless_type
      00FF75D6H   CODE     ---       wireless_uart_callback
*DEL*:00000000H   CODE     ---       wireless_uart_init
*DEL*:00000000H   CODE     ---       wireless_uart_read_buff
*DEL*:00000000H   CODE     ---       wireless_uart_send_buff
*SFR* 000000E9H   DATA     BYTE      WTST
      00000A60H   EDATA    WORD      zf_delay_ms
      00000A62H   EDATA    WORD      zf_delay_us
*DEL*:00000000H   CODE     ---       zf_sprintf


L251 LINKER/LOCATER V4.66.93.0                                                        10/07/2023  14:21:18  PAGE 23



SYMBOL TABLE OF MODULE:  .\Out_File\SEEKFREE (board)

      VALUE       REP       CLASS    TYPE      SYMBOL NAME
      ====================================================
      ---         MODULE    ---      ---       board
      00FF0006H   PUBLIC    CODE     ---       EnableGlobalIRQ
      00FF63C6H   PUBLIC    CODE     ---       board_init
      00FF5634H   PUBLIC    CODE     ---       set_clk
      00FF76EEH   PUBLIC    CODE     ---       putchar
      00000A58H   PUBLIC    EDATA    LONG      sys_clk
      00000094H   SFRSYM    DATA     BYTE      P0M0
      000000D0H   SFRSYM    DATA     BYTE      PSW
      000000BAH.7 SFRSYM    DATA     BIT       EAXFR
      0000009DH   SFRSYM    DATA     BYTE      IRCBAND
      00000097H   SFRSYM    DATA     BYTE      AUXR2
      000000EAH   SFRSYM    DATA     BYTE      CKCON
      000000EFH   SFRSYM    DATA     BYTE      AUXINTIF
      000000FDH   SFRSYM    DATA     BYTE      S4CON
      000000ACH   SFRSYM    DATA     BYTE      S3CON
      0000009AH   SFRSYM    DATA     BYTE      S2CON
      000000A6H   SFRSYM    DATA     BYTE      VRTRIM
      000000B7H   SFRSYM    DATA     BYTE      IPH
      000000CDH   SFRSYM    DATA     BYTE      SPSTAT
      000000DDH   SFRSYM    DATA     BYTE      T4T3M
      0000009FH   SFRSYM    DATA     BYTE      IRTRIM
      000000C1H   SFRSYM    DATA     BYTE      WDT_CONTR
      000000E9H   SFRSYM    DATA     BYTE      WTST
      000000DFH   SFRSYM    DATA     BYTE      IP3
      000000F4H   SFRSYM    DATA     BYTE      USBCON
      000000B5H   SFRSYM    DATA     BYTE      IP2
      000000FFH   SFRSYM    DATA     BYTE      RSTCFG
      000000F9H   SFRSYM    DATA     BYTE      LINICR
      0000008EH   SFRSYM    DATA     BYTE      AUXR
      000000AFH   SFRSYM    DATA     BYTE      IE2
      00000088H   SFRSYM    DATA     BYTE      TCON
      00000089H   SFRSYM    DATA     BYTE      TMOD
      00000098H   SFRSYM    DATA     BYTE      SCON
      000000F1H   SFRSYM    DATA     BYTE      CANICR
      00000087H   SFRSYM    DATA     BYTE      PCON
      000000BCH   SFRSYM    DATA     BYTE      ADC_CONTR
      000000E7H   SFRSYM    DATA     BYTE      CMPCR2
      000000E6H   SFRSYM    DATA     BYTE      CMPCR1
      000000DEH   SFRSYM    DATA     BYTE      ADCCFG
      000000B8H   SFRSYM    DATA     BYTE      IP
      0000008FH   SFRSYM    DATA     BYTE      INTCLKO
      000000EEH   SFRSYM    DATA     BYTE      IP3H
      000000B6H   SFRSYM    DATA     BYTE      IP2H
      000000A8H   SFRSYM    DATA     BYTE      IE
      000000BBH   SFRSYM    DATA     BYTE      P_SW3
      000000BAH   SFRSYM    DATA     BYTE      P_SW2
      000000A2H   SFRSYM    DATA     BYTE      P_SW1
      000000CEH   SFRSYM    DATA     BYTE      SPCTL
      000000F8H   SFRSYM    DATA     BYTE      P7
      000000A8H.7 SFRSYM    DATA     BIT       EA
      000000E1H   SFRSYM    DATA     BYTE      P7M1
      000000E8H   SFRSYM    DATA     BYTE      P6
      000000C8H   SFRSYM    DATA     BYTE      P5
      000000CBH   SFRSYM    DATA     BYTE      P6M1
      000000E2H   SFRSYM    DATA     BYTE      P7M0
      000000C0H   SFRSYM    DATA     BYTE      P4
      000000C9H   SFRSYM    DATA     BYTE      P5M1
      000000CCH   SFRSYM    DATA     BYTE      P6M0
      000000B0H   SFRSYM    DATA     BYTE      P3
      000000B3H   SFRSYM    DATA     BYTE      P4M1
L251 LINKER/LOCATER V4.66.93.0                                                        10/07/2023  14:21:18  PAGE 24


      000000CAH   SFRSYM    DATA     BYTE      P5M0
      000000A0H   SFRSYM    DATA     BYTE      P2
      000000B1H   SFRSYM    DATA     BYTE      P3M1
      000000B4H   SFRSYM    DATA     BYTE      P4M0
      00000090H   SFRSYM    DATA     BYTE      P1
      00000095H   SFRSYM    DATA     BYTE      P2M1
      000000B2H   SFRSYM    DATA     BYTE      P3M0
      00000080H   SFRSYM    DATA     BYTE      P0
      00000091H   SFRSYM    DATA     BYTE      P1M1
      00000096H   SFRSYM    DATA     BYTE      P2M0
      00000092H   SFRSYM    DATA     BYTE      P1M0
      00000093H   SFRSYM    DATA     BYTE      P0M1

      00FF5634H   BLOCK     CODE     ---       LVL=0
      00FF5634H   LINE      CODE     ---       #43
      00FF5634H   LINE      CODE     ---       #46
      00FF5637H   LINE      CODE     ---       #48
      00FF5647H   LINE      CODE     ---       #51
      00FF5654H   LINE      CODE     ---       #52
      00FF5661H   LINE      CODE     ---       #53
      00FF566EH   LINE      CODE     ---       #54
      00FF5672H   LINE      CODE     ---       #55
      00FF567EH   LINE      CODE     ---       #56
      00FF5681H   LINE      CODE     ---       #57
      00FF5691H   LINE      CODE     ---       #60
      00FF569EH   LINE      CODE     ---       #61
      00FF56ABH   LINE      CODE     ---       #62
      00FF56B8H   LINE      CODE     ---       #63
      00FF56BCH   LINE      CODE     ---       #64
      00FF56C8H   LINE      CODE     ---       #65
      00FF56CBH   LINE      CODE     ---       #66
      00FF56DBH   LINE      CODE     ---       #69
      00FF56E8H   LINE      CODE     ---       #70
      00FF56F5H   LINE      CODE     ---       #71
      00FF5702H   LINE      CODE     ---       #72
      00FF5706H   LINE      CODE     ---       #73
      00FF5712H   LINE      CODE     ---       #74
      00FF5715H   LINE      CODE     ---       #75
      00FF5725H   LINE      CODE     ---       #79
      00FF5732H   LINE      CODE     ---       #80
      00FF573FH   LINE      CODE     ---       #81
      00FF574CH   LINE      CODE     ---       #82
      00FF5750H   LINE      CODE     ---       #83
      00FF575CH   LINE      CODE     ---       #84
      00FF575FH   LINE      CODE     ---       #85
      00FF576FH   LINE      CODE     ---       #88
      00FF577CH   LINE      CODE     ---       #89
      00FF5789H   LINE      CODE     ---       #90
      00FF5796H   LINE      CODE     ---       #91
      00FF579AH   LINE      CODE     ---       #92
      00FF57A6H   LINE      CODE     ---       #93
      00FF57A9H   LINE      CODE     ---       #94
      00FF57B9H   LINE      CODE     ---       #97
      00FF57C6H   LINE      CODE     ---       #98
      00FF57D3H   LINE      CODE     ---       #99
      00FF57E0H   LINE      CODE     ---       #100
      00FF57E4H   LINE      CODE     ---       #101
      00FF57F0H   LINE      CODE     ---       #102
      00FF57F2H   LINE      CODE     ---       #105
      00FF57FEH   LINE      CODE     ---       #107
      00FF580BH   LINE      CODE     ---       #108
      00FF5818H   LINE      CODE     ---       #109
      00FF5825H   LINE      CODE     ---       #110
      00FF5829H   LINE      CODE     ---       #111
      00FF5835H   LINE      CODE     ---       #112
L251 LINKER/LOCATER V4.66.93.0                                                        10/07/2023  14:21:18  PAGE 25


      00FF5835H   LINE      CODE     ---       #114
      00FF5839H   LINE      CODE     ---       #115
      ---         BLOCKEND  ---      ---       LVL=0

      00FF63C6H   BLOCK     CODE     ---       LVL=0
      00FF63C6H   LINE      CODE     ---       #121
      00FF63C6H   LINE      CODE     ---       #123
      00FF63CAH   LINE      CODE     ---       #124
      00FF63CDH   LINE      CODE     ---       #125
      00FF63D0H   LINE      CODE     ---       #126
      00FF63D3H   LINE      CODE     ---       #127
      00FF63D7H   LINE      CODE     ---       #137
      00FF63DEH   LINE      CODE     ---       #143
      00FF63E1H   LINE      CODE     ---       #145
      00FF63E4H   LINE      CODE     ---       #146
      00FF63E7H   LINE      CODE     ---       #147
      00FF63F3H   LINE      CODE     ---       #149
      00FF63F6H   LINE      CODE     ---       #150
      00FF63F9H   LINE      CODE     ---       #151
      00FF63FCH   LINE      CODE     ---       #152
      00FF63FFH   LINE      CODE     ---       #153
      00FF6402H   LINE      CODE     ---       #154
      00FF6405H   LINE      CODE     ---       #155
      00FF6408H   LINE      CODE     ---       #156
      00FF640BH   LINE      CODE     ---       #157
      00FF640EH   LINE      CODE     ---       #158
      00FF6411H   LINE      CODE     ---       #159
      00FF6414H   LINE      CODE     ---       #160
      00FF6417H   LINE      CODE     ---       #161
      00FF641AH   LINE      CODE     ---       #162
      00FF641DH   LINE      CODE     ---       #163
      00FF6420H   LINE      CODE     ---       #164
      00FF6423H   LINE      CODE     ---       #166
      00FF6426H   LINE      CODE     ---       #167
      00FF6429H   LINE      CODE     ---       #168
      00FF642CH   LINE      CODE     ---       #169
      00FF642FH   LINE      CODE     ---       #170
      00FF6432H   LINE      CODE     ---       #171
      00FF6435H   LINE      CODE     ---       #172
      00FF6438H   LINE      CODE     ---       #173
      00FF643BH   LINE      CODE     ---       #174
      00FF643EH   LINE      CODE     ---       #176
      00FF6459H   LINE      CODE     ---       #177
      00FF645CH   LINE      CODE     ---       #178
      ---         BLOCKEND  ---      ---       LVL=0

      00FF76EEH   BLOCK     CODE     ---       LVL=0
      00000B35H   SYMBOL    EDATA    CHAR      c
      00FF76EEH   LINE      CODE     ---       #183
      00FF76F2H   LINE      CODE     ---       #185
      00FF76FBH   LINE      CODE     ---       #187
      00FF76FFH   LINE      CODE     ---       #188
      ---         BLOCKEND  ---      ---       LVL=0

      00FF0006H   BLOCK     CODE     ---       LVL=0
      00FF0006H   LINE      CODE     ---       #197
      00FF0006H   LINE      CODE     ---       #199
      00FF0009H   LINE      CODE     ---       #200
      ---         BLOCKEND  ---      ---       LVL=0

      ---         MODULE    ---      ---       common
      00000AEDH   PUBLIC    EDATA    INT       wireless_type
      000000D0H   SFRSYM    DATA     BYTE      PSW
      0000009DH   SFRSYM    DATA     BYTE      IRCBAND
      00000097H   SFRSYM    DATA     BYTE      AUXR2
L251 LINKER/LOCATER V4.66.93.0                                                        10/07/2023  14:21:18  PAGE 26


      000000EFH   SFRSYM    DATA     BYTE      AUXINTIF
      000000FDH   SFRSYM    DATA     BYTE      S4CON
      000000ACH   SFRSYM    DATA     BYTE      S3CON
      0000009AH   SFRSYM    DATA     BYTE      S2CON
      000000B7H   SFRSYM    DATA     BYTE      IPH
      000000CDH   SFRSYM    DATA     BYTE      SPSTAT
      000000DDH   SFRSYM    DATA     BYTE      T4T3M
      000000C1H   SFRSYM    DATA     BYTE      WDT_CONTR
      000000DFH   SFRSYM    DATA     BYTE      IP3
      000000F4H   SFRSYM    DATA     BYTE      USBCON
      000000B5H   SFRSYM    DATA     BYTE      IP2
      000000FFH   SFRSYM    DATA     BYTE      RSTCFG
      000000F9H   SFRSYM    DATA     BYTE      LINICR
      0000008EH   SFRSYM    DATA     BYTE      AUXR
      000000AFH   SFRSYM    DATA     BYTE      IE2
      00000088H   SFRSYM    DATA     BYTE      TCON
      00000098H   SFRSYM    DATA     BYTE      SCON
      000000F1H   SFRSYM    DATA     BYTE      CANICR
      00000087H   SFRSYM    DATA     BYTE      PCON
      000000BCH   SFRSYM    DATA     BYTE      ADC_CONTR
      000000E7H   SFRSYM    DATA     BYTE      CMPCR2
      000000E6H   SFRSYM    DATA     BYTE      CMPCR1
      000000B8H   SFRSYM    DATA     BYTE      IP
      0000008FH   SFRSYM    DATA     BYTE      INTCLKO
      000000EEH   SFRSYM    DATA     BYTE      IP3H
      000000B6H   SFRSYM    DATA     BYTE      IP2H
      000000A8H   SFRSYM    DATA     BYTE      IE
      000000BBH   SFRSYM    DATA     BYTE      P_SW3
      000000BAH   SFRSYM    DATA     BYTE      P_SW2
      000000A2H   SFRSYM    DATA     BYTE      P_SW1
      000000CEH   SFRSYM    DATA     BYTE      SPCTL
      000000F8H   SFRSYM    DATA     BYTE      P7
      000000E8H   SFRSYM    DATA     BYTE      P6
      000000C8H   SFRSYM    DATA     BYTE      P5
      000000C0H   SFRSYM    DATA     BYTE      P4
      000000B0H   SFRSYM    DATA     BYTE      P3
      000000A0H   SFRSYM    DATA     BYTE      P2
      00000090H   SFRSYM    DATA     BYTE      P1
      00000080H   SFRSYM    DATA     BYTE      P0

      ---         MODULE    ---      ---       zf_adc
      00FF6BF7H   PUBLIC    CODE     ---       adc_once
      00FF6311H   PUBLIC    CODE     ---       adc_init
      00FF5B17H   PUBLIC    CODE     ---       Filter
      00000094H   SFRSYM    DATA     BYTE      P0M0
      000000D0H   SFRSYM    DATA     BYTE      PSW
      0000009DH   SFRSYM    DATA     BYTE      IRCBAND
      00000097H   SFRSYM    DATA     BYTE      AUXR2
      000000EFH   SFRSYM    DATA     BYTE      AUXINTIF
      000000FDH   SFRSYM    DATA     BYTE      S4CON
      000000ACH   SFRSYM    DATA     BYTE      S3CON
      0000009AH   SFRSYM    DATA     BYTE      S2CON
      000000B7H   SFRSYM    DATA     BYTE      IPH
      000000CDH   SFRSYM    DATA     BYTE      SPSTAT
      000000BEH   SFRSYM    DATA     BYTE      ADC_RESL
      000000DDH   SFRSYM    DATA     BYTE      T4T3M
      000000C1H   SFRSYM    DATA     BYTE      WDT_CONTR
      000000DFH   SFRSYM    DATA     BYTE      IP3
      000000F4H   SFRSYM    DATA     BYTE      USBCON
      000000B5H   SFRSYM    DATA     BYTE      IP2
      000000FFH   SFRSYM    DATA     BYTE      RSTCFG
      000000F9H   SFRSYM    DATA     BYTE      LINICR
      0000008EH   SFRSYM    DATA     BYTE      AUXR
      000000AFH   SFRSYM    DATA     BYTE      IE2
      00000088H   SFRSYM    DATA     BYTE      TCON
L251 LINKER/LOCATER V4.66.93.0                                                        10/07/2023  14:21:18  PAGE 27


      00000098H   SFRSYM    DATA     BYTE      SCON
      000000F1H   SFRSYM    DATA     BYTE      CANICR
      00000087H   SFRSYM    DATA     BYTE      PCON
      000000BCH   SFRSYM    DATA     BYTE      ADC_CONTR
      000000E7H   SFRSYM    DATA     BYTE      CMPCR2
      000000E6H   SFRSYM    DATA     BYTE      CMPCR1
      000000DEH   SFRSYM    DATA     BYTE      ADCCFG
      000000B8H   SFRSYM    DATA     BYTE      IP
      0000008FH   SFRSYM    DATA     BYTE      INTCLKO
      000000EEH   SFRSYM    DATA     BYTE      IP3H
      000000B6H   SFRSYM    DATA     BYTE      IP2H
      000000BDH   SFRSYM    DATA     BYTE      ADC_RES
      000000A8H   SFRSYM    DATA     BYTE      IE
      000000BBH   SFRSYM    DATA     BYTE      P_SW3
      000000BAH   SFRSYM    DATA     BYTE      P_SW2
      000000A2H   SFRSYM    DATA     BYTE      P_SW1
      000000CEH   SFRSYM    DATA     BYTE      SPCTL
      000000F8H   SFRSYM    DATA     BYTE      P7
      000000E8H   SFRSYM    DATA     BYTE      P6
      000000C8H   SFRSYM    DATA     BYTE      P5
      000000C0H   SFRSYM    DATA     BYTE      P4
      000000B0H   SFRSYM    DATA     BYTE      P3
      000000A0H   SFRSYM    DATA     BYTE      P2
      00000090H   SFRSYM    DATA     BYTE      P1
      00000080H   SFRSYM    DATA     BYTE      P0
      00000091H   SFRSYM    DATA     BYTE      P1M1
      00000092H   SFRSYM    DATA     BYTE      P1M0
      00000093H   SFRSYM    DATA     BYTE      P0M1

      00FF6311H   BLOCK     CODE     ---       LVL=0
      00000A5CH   SYMBOL    EDATA    INT       adcn
      00000A5EH   SYMBOL    EDATA    INT       speed
      00FF6311H   LINE      CODE     ---       #32
      00FF6319H   LINE      CODE     ---       #34
      00FF631CH   LINE      CODE     ---       #36
      00FF631FH   LINE      CODE     ---       #37
      00FF6327H   LINE      CODE     ---       #39
      00FF6339H   LINE      CODE     ---       #42
      00FF6354H   LINE      CODE     ---       #43
      00FF636DH   LINE      CODE     ---       #44
      00FF636FH   LINE      CODE     ---       #45
      00FF637FH   LINE      CODE     ---       #48
      00FF639AH   LINE      CODE     ---       #49
      00FF63B3H   LINE      CODE     ---       #50
      00FF63B3H   LINE      CODE     ---       #51
      00FF63C2H   LINE      CODE     ---       #53
      00FF63C5H   LINE      CODE     ---       #54
      ---         BLOCKEND  ---      ---       LVL=0

      00FF6BF7H   BLOCK     CODE     ---       LVL=0
      0000099EH   SYMBOL    EDATA    INT       adcn
      000009A0H   SYMBOL    EDATA    INT       resolution
      00FF6BFFH   BLOCK     CODE     NEAR LAB  LVL=1
      000009A2H   SYMBOL    EDATA    WORD      adc_value
      ---         BLOCKEND  ---      ---       LVL=1
      00FF6BF7H   LINE      CODE     ---       #65
      00FF6BFFH   LINE      CODE     ---       #66
      00FF6BFFH   LINE      CODE     ---       #69
      00FF6C02H   LINE      CODE     ---       #70
      00FF6C0AH   LINE      CODE     ---       #72
      00FF6C0DH   LINE      CODE     ---       #73
      00FF6C12H   LINE      CODE     ---       #74
      00FF6C15H   LINE      CODE     ---       #76
      00FF6C1DH   LINE      CODE     ---       #77
      00FF6C25H   LINE      CODE     ---       #78
L251 LINKER/LOCATER V4.66.93.0                                                        10/07/2023  14:21:18  PAGE 28


      00FF6C33H   LINE      CODE     ---       #80
      00FF6C36H   LINE      CODE     ---       #81
      00FF6C39H   LINE      CODE     ---       #83
      00FF6C4CH   LINE      CODE     ---       #86
      00FF6C4CH   LINE      CODE     ---       #87
      ---         BLOCKEND  ---      ---       LVL=0

      00FF5B17H   BLOCK     CODE     ---       LVL=0
      00000529H   SYMBOL    EDATA    INT       adcn
      0000052BH   SYMBOL    EDATA    INT       resolution
      00FF5B1FH   BLOCK     CODE     NEAR LAB  LVL=1
      0000052DH   SYMBOL    EDATA    INT       i
      0000052FH   SYMBOL    EDATA    INT       j
      00000531H   SYMBOL    EDATA    INT       filter_temp
      00000533H   SYMBOL    EDATA    INT       filter_sum
      00000535H   SYMBOL    EDATA    ---       filter_buf
      ---         BLOCKEND  ---      ---       LVL=1
      00FF5B17H   LINE      CODE     ---       #89
      00FF5B1FH   LINE      CODE     ---       #91
      00FF5B25H   LINE      CODE     ---       #93
      00FF5B2DH   LINE      CODE     ---       #94
      00FF5B49H   LINE      CODE     ---       #95
      00FF5B63H   LINE      CODE     ---       #97
      00FF5B6CH   LINE      CODE     ---       #98
      00FF5B74H   LINE      CODE     ---       #99
      00FF5B96H   LINE      CODE     ---       #100
      00FF5BA9H   LINE      CODE     ---       #101
      00FF5BC7H   LINE      CODE     ---       #102
      00FF5BDAH   LINE      CODE     ---       #103
      00FF5BFDH   LINE      CODE     ---       #105
      00FF5C1AH   LINE      CODE     ---       #106
      00FF5C57H   LINE      CODE     ---       #107
      00FF5C69H   LINE      CODE     ---       #108
      ---         BLOCKEND  ---      ---       LVL=0

      ---         MODULE    ---      ---       zf_delay
      00FF7166H   PUBLIC    CODE     ---       delay_init
      00FF7258H   PUBLIC    CODE     ---       delay_ms
      00000A60H   PUBLIC    EDATA    WORD      zf_delay_ms
      00000A62H   PUBLIC    EDATA    WORD      zf_delay_us
      000000D0H   SFRSYM    DATA     BYTE      PSW
      0000009DH   SFRSYM    DATA     BYTE      IRCBAND
      00000097H   SFRSYM    DATA     BYTE      AUXR2
      000000EFH   SFRSYM    DATA     BYTE      AUXINTIF
      000000FDH   SFRSYM    DATA     BYTE      S4CON
      000000ACH   SFRSYM    DATA     BYTE      S3CON
      0000009AH   SFRSYM    DATA     BYTE      S2CON
      000000B7H   SFRSYM    DATA     BYTE      IPH
      000000CDH   SFRSYM    DATA     BYTE      SPSTAT
      000000DDH   SFRSYM    DATA     BYTE      T4T3M
      000000C1H   SFRSYM    DATA     BYTE      WDT_CONTR
      000000DFH   SFRSYM    DATA     BYTE      IP3
      000000F4H   SFRSYM    DATA     BYTE      USBCON
      000000B5H   SFRSYM    DATA     BYTE      IP2
      000000FFH   SFRSYM    DATA     BYTE      RSTCFG
      000000F9H   SFRSYM    DATA     BYTE      LINICR
      0000008EH   SFRSYM    DATA     BYTE      AUXR
      000000AFH   SFRSYM    DATA     BYTE      IE2
      00000088H   SFRSYM    DATA     BYTE      TCON
      00000098H   SFRSYM    DATA     BYTE      SCON
      000000F1H   SFRSYM    DATA     BYTE      CANICR
      00000087H   SFRSYM    DATA     BYTE      PCON
      000000BCH   SFRSYM    DATA     BYTE      ADC_CONTR
      000000E7H   SFRSYM    DATA     BYTE      CMPCR2
      000000E6H   SFRSYM    DATA     BYTE      CMPCR1
L251 LINKER/LOCATER V4.66.93.0                                                        10/07/2023  14:21:18  PAGE 29


      000000B8H   SFRSYM    DATA     BYTE      IP
      0000008FH   SFRSYM    DATA     BYTE      INTCLKO
      000000EEH   SFRSYM    DATA     BYTE      IP3H
      000000B6H   SFRSYM    DATA     BYTE      IP2H
      000000A8H   SFRSYM    DATA     BYTE      IE
      000000BBH   SFRSYM    DATA     BYTE      P_SW3
      000000BAH   SFRSYM    DATA     BYTE      P_SW2
      000000A2H   SFRSYM    DATA     BYTE      P_SW1
      000000CEH   SFRSYM    DATA     BYTE      SPCTL
      000000F8H   SFRSYM    DATA     BYTE      P7
      000000E8H   SFRSYM    DATA     BYTE      P6
      000000C8H   SFRSYM    DATA     BYTE      P5
      000000C0H   SFRSYM    DATA     BYTE      P4
      000000B0H   SFRSYM    DATA     BYTE      P3
      000000A0H   SFRSYM    DATA     BYTE      P2
      00000090H   SFRSYM    DATA     BYTE      P1
      00000080H   SFRSYM    DATA     BYTE      P0

      00FF7166H   BLOCK     CODE     ---       LVL=0
      00FF7166H   LINE      CODE     ---       #34
      00FF7166H   LINE      CODE     ---       #36
      00FF7175H   LINE      CODE     ---       #37
      00FF7188H   LINE      CODE     ---       #38
      00FF71A6H   LINE      CODE     ---       #40
      ---         BLOCKEND  ---      ---       LVL=0

      00FF7258H   BLOCK     CODE     ---       LVL=0
      00000A64H   SYMBOL    EDATA    WORD      ms
      00FF725CH   BLOCK     CODE     NEAR LAB  LVL=1
      00000A66H   SYMBOL    EDATA    WORD      i
      ---         BLOCKEND  ---      ---       LVL=1
      00FF7258H   LINE      CODE     ---       #48
      00FF725CH   LINE      CODE     ---       #49
      00FF725CH   LINE      CODE     ---       #51
      00FF725CH   LINE      CODE     ---       #52
      00FF7264H   LINE      CODE     ---       #54
      00FF7278H   LINE      CODE     ---       #55
      00FF728CH   LINE      CODE     ---       #56
      ---         BLOCKEND  ---      ---       LVL=0
      000009A4H   SYMBOL    EDATA    DWORD     us
      000009A8H   SYMBOL    EDATA    WORD      i

      ---         MODULE    ---      ---       zf_eeprom
      000007BFH   PUBLIC    EDATA    BYTE      ?iap_read_bytes?BYTE
      000007C9H   PUBLIC    EDATA    BYTE      ?iap_write_bytes?BYTE
      000000D0H   SFRSYM    DATA     BYTE      PSW
      0000009DH   SFRSYM    DATA     BYTE      IRCBAND
      000000D0H.5 SFRSYM    DATA     BIT       F0
      00000097H   SFRSYM    DATA     BYTE      AUXR2
      000000C6H   SFRSYM    DATA     BYTE      IAP_TRIG
      000000EFH   SFRSYM    DATA     BYTE      AUXINTIF
      000000FDH   SFRSYM    DATA     BYTE      S4CON
      000000ACH   SFRSYM    DATA     BYTE      S3CON
      0000009AH   SFRSYM    DATA     BYTE      S2CON
      000000B7H   SFRSYM    DATA     BYTE      IPH
      000000CDH   SFRSYM    DATA     BYTE      SPSTAT
      000000DDH   SFRSYM    DATA     BYTE      T4T3M
      000000C1H   SFRSYM    DATA     BYTE      WDT_CONTR
      000000C2H   SFRSYM    DATA     BYTE      IAP_DATA
      000000DFH   SFRSYM    DATA     BYTE      IP3
      000000F4H   SFRSYM    DATA     BYTE      USBCON
      000000B5H   SFRSYM    DATA     BYTE      IP2
      000000FFH   SFRSYM    DATA     BYTE      RSTCFG
      000000C7H   SFRSYM    DATA     BYTE      IAP_CONTR
      000000F9H   SFRSYM    DATA     BYTE      LINICR
L251 LINKER/LOCATER V4.66.93.0                                                        10/07/2023  14:21:18  PAGE 30


      0000008EH   SFRSYM    DATA     BYTE      AUXR
      000000AFH   SFRSYM    DATA     BYTE      IE2
      00000088H   SFRSYM    DATA     BYTE      TCON
      00000098H   SFRSYM    DATA     BYTE      SCON
      000000F5H   SFRSYM    DATA     BYTE      IAP_TPS
      000000F1H   SFRSYM    DATA     BYTE      CANICR
      00000087H   SFRSYM    DATA     BYTE      PCON
      000000BCH   SFRSYM    DATA     BYTE      ADC_CONTR
      000000E7H   SFRSYM    DATA     BYTE      CMPCR2
      000000E6H   SFRSYM    DATA     BYTE      CMPCR1
      000000C4H   SFRSYM    DATA     BYTE      IAP_ADDRL
      000000C3H   SFRSYM    DATA     BYTE      IAP_ADDRH
      000000F6H   SFRSYM    DATA     BYTE      IAP_ADDRE
      000000B8H   SFRSYM    DATA     BYTE      IP
      0000008FH   SFRSYM    DATA     BYTE      INTCLKO
      000000EEH   SFRSYM    DATA     BYTE      IP3H
      000000B6H   SFRSYM    DATA     BYTE      IP2H
      000000C5H   SFRSYM    DATA     BYTE      IAP_CMD
      000000A8H   SFRSYM    DATA     BYTE      IE
      000000BBH   SFRSYM    DATA     BYTE      P_SW3
      000000BAH   SFRSYM    DATA     BYTE      P_SW2
      000000A2H   SFRSYM    DATA     BYTE      P_SW1
      000000CEH   SFRSYM    DATA     BYTE      SPCTL
      000000F8H   SFRSYM    DATA     BYTE      P7
      000000A8H.7 SFRSYM    DATA     BIT       EA
      000000E8H   SFRSYM    DATA     BYTE      P6
      000000C8H   SFRSYM    DATA     BYTE      P5
      000000C0H   SFRSYM    DATA     BYTE      P4
      000000B0H   SFRSYM    DATA     BYTE      P3
      000000A0H   SFRSYM    DATA     BYTE      P2
      00000090H   SFRSYM    DATA     BYTE      P1
      00000080H   SFRSYM    DATA     BYTE      P0
      00000B36H   SYMBOL    EDATA    BYTE      write_time
      000007BFH   SYMBOL    EDATA    DWORD     addr
      000007C3H   SYMBOL    EDATA    ---       buf
      000007C7H   SYMBOL    EDATA    WORD      len
      000007C9H   SYMBOL    EDATA    DWORD     addr
      000007CDH   SYMBOL    EDATA    ---       buf
      000007D1H   SYMBOL    EDATA    WORD      len
      00000A68H   SYMBOL    EDATA    DWORD     addr

      ---         MODULE    ---      ---       zf_exti
      000000D0H   SFRSYM    DATA     BYTE      PSW
      0000009DH   SFRSYM    DATA     BYTE      IRCBAND
      00000097H   SFRSYM    DATA     BYTE      AUXR2
      000000EFH   SFRSYM    DATA     BYTE      AUXINTIF
      000000FDH   SFRSYM    DATA     BYTE      S4CON
      000000ACH   SFRSYM    DATA     BYTE      S3CON
      0000009AH   SFRSYM    DATA     BYTE      S2CON
      000000B7H   SFRSYM    DATA     BYTE      IPH
      000000CDH   SFRSYM    DATA     BYTE      SPSTAT
      000000DDH   SFRSYM    DATA     BYTE      T4T3M
      000000C1H   SFRSYM    DATA     BYTE      WDT_CONTR
      00000088H.2 SFRSYM    DATA     BIT       IT1
      000000A8H.2 SFRSYM    DATA     BIT       EX1
      00000088H.0 SFRSYM    DATA     BIT       IT0
      000000A8H.0 SFRSYM    DATA     BIT       EX0
      000000DFH   SFRSYM    DATA     BYTE      IP3
      000000F4H   SFRSYM    DATA     BYTE      USBCON
      000000B5H   SFRSYM    DATA     BYTE      IP2
      000000FFH   SFRSYM    DATA     BYTE      RSTCFG
      000000F9H   SFRSYM    DATA     BYTE      LINICR
      0000008EH   SFRSYM    DATA     BYTE      AUXR
      000000AFH   SFRSYM    DATA     BYTE      IE2
      00000088H   SFRSYM    DATA     BYTE      TCON
L251 LINKER/LOCATER V4.66.93.0                                                        10/07/2023  14:21:18  PAGE 31


      00000098H   SFRSYM    DATA     BYTE      SCON
      000000F1H   SFRSYM    DATA     BYTE      CANICR
      00000087H   SFRSYM    DATA     BYTE      PCON
      000000BCH   SFRSYM    DATA     BYTE      ADC_CONTR
      000000E7H   SFRSYM    DATA     BYTE      CMPCR2
      000000E6H   SFRSYM    DATA     BYTE      CMPCR1
      000000B8H   SFRSYM    DATA     BYTE      IP
      0000008FH   SFRSYM    DATA     BYTE      INTCLKO
      000000EEH   SFRSYM    DATA     BYTE      IP3H
      000000B6H   SFRSYM    DATA     BYTE      IP2H
      000000A8H   SFRSYM    DATA     BYTE      IE
      000000BBH   SFRSYM    DATA     BYTE      P_SW3
      000000BAH   SFRSYM    DATA     BYTE      P_SW2
      000000A2H   SFRSYM    DATA     BYTE      P_SW1
      000000CEH   SFRSYM    DATA     BYTE      SPCTL
      000000F8H   SFRSYM    DATA     BYTE      P7
      000000E8H   SFRSYM    DATA     BYTE      P6
      000000C8H   SFRSYM    DATA     BYTE      P5
      000000C0H   SFRSYM    DATA     BYTE      P4
      000000B0H   SFRSYM    DATA     BYTE      P3
      000000A0H   SFRSYM    DATA     BYTE      P2
      00000090H   SFRSYM    DATA     BYTE      P1
      00000080H   SFRSYM    DATA     BYTE      P0
      00000A6CH   SYMBOL    EDATA    INT       int_n
      00000A6EH   SYMBOL    EDATA    INT       mode

      ---         MODULE    ---      ---       zf_gpio
      00FF42E3H   PUBLIC    CODE     ---       gpio_mode
      00000094H   SFRSYM    DATA     BYTE      P0M0
      000000D0H   SFRSYM    DATA     BYTE      PSW
      0000009DH   SFRSYM    DATA     BYTE      IRCBAND
      00000097H   SFRSYM    DATA     BYTE      AUXR2
      000000EFH   SFRSYM    DATA     BYTE      AUXINTIF
      000000FDH   SFRSYM    DATA     BYTE      S4CON
      000000ACH   SFRSYM    DATA     BYTE      S3CON
      0000009AH   SFRSYM    DATA     BYTE      S2CON
      000000B7H   SFRSYM    DATA     BYTE      IPH
      000000CDH   SFRSYM    DATA     BYTE      SPSTAT
      000000DDH   SFRSYM    DATA     BYTE      T4T3M
      000000C1H   SFRSYM    DATA     BYTE      WDT_CONTR
      000000DFH   SFRSYM    DATA     BYTE      IP3
      000000F4H   SFRSYM    DATA     BYTE      USBCON
      000000B5H   SFRSYM    DATA     BYTE      IP2
      000000FFH   SFRSYM    DATA     BYTE      RSTCFG
      000000F9H   SFRSYM    DATA     BYTE      LINICR
      0000008EH   SFRSYM    DATA     BYTE      AUXR
      000000AFH   SFRSYM    DATA     BYTE      IE2
      00000088H   SFRSYM    DATA     BYTE      TCON
      00000098H   SFRSYM    DATA     BYTE      SCON
      000000F1H   SFRSYM    DATA     BYTE      CANICR
      00000087H   SFRSYM    DATA     BYTE      PCON
      000000BCH   SFRSYM    DATA     BYTE      ADC_CONTR
      000000E7H   SFRSYM    DATA     BYTE      CMPCR2
      000000E6H   SFRSYM    DATA     BYTE      CMPCR1
      000000B8H   SFRSYM    DATA     BYTE      IP
      0000008FH   SFRSYM    DATA     BYTE      INTCLKO
      000000EEH   SFRSYM    DATA     BYTE      IP3H
      000000B6H   SFRSYM    DATA     BYTE      IP2H
      000000A8H   SFRSYM    DATA     BYTE      IE
      000000BBH   SFRSYM    DATA     BYTE      P_SW3
      000000BAH   SFRSYM    DATA     BYTE      P_SW2
      000000A2H   SFRSYM    DATA     BYTE      P_SW1
      000000CEH   SFRSYM    DATA     BYTE      SPCTL
      000000F8H   SFRSYM    DATA     BYTE      P7
      000000E1H   SFRSYM    DATA     BYTE      P7M1
L251 LINKER/LOCATER V4.66.93.0                                                        10/07/2023  14:21:18  PAGE 32


      000000E8H   SFRSYM    DATA     BYTE      P6
      000000C8H   SFRSYM    DATA     BYTE      P5
      000000CBH   SFRSYM    DATA     BYTE      P6M1
      000000E2H   SFRSYM    DATA     BYTE      P7M0
      000000C0H   SFRSYM    DATA     BYTE      P4
      000000C9H   SFRSYM    DATA     BYTE      P5M1
      000000CCH   SFRSYM    DATA     BYTE      P6M0
      000000B0H   SFRSYM    DATA     BYTE      P3
      000000B3H   SFRSYM    DATA     BYTE      P4M1
      000000CAH   SFRSYM    DATA     BYTE      P5M0
      000000A0H   SFRSYM    DATA     BYTE      P2
      000000B1H   SFRSYM    DATA     BYTE      P3M1
      000000B4H   SFRSYM    DATA     BYTE      P4M0
      00000090H   SFRSYM    DATA     BYTE      P1
      00000095H   SFRSYM    DATA     BYTE      P2M1
      000000B2H   SFRSYM    DATA     BYTE      P3M0
      00000080H   SFRSYM    DATA     BYTE      P0
      00000091H   SFRSYM    DATA     BYTE      P1M1
      00000096H   SFRSYM    DATA     BYTE      P2M0
      00000092H   SFRSYM    DATA     BYTE      P1M0
      00000093H   SFRSYM    DATA     BYTE      P0M1
      00000A70H   SYMBOL    EDATA    INT       pin
      00000A72H   SYMBOL    EDATA    INT       pull

      00FF42E3H   BLOCK     CODE     ---       LVL=0
      00000A74H   SYMBOL    EDATA    INT       pin
      00000A76H   SYMBOL    EDATA    INT       mode
      00FF42E3H   LINE      CODE     ---       #54
      00FF42EBH   LINE      CODE     ---       #56
      00FF42F8H   LINE      CODE     ---       #58
      00FF4308H   LINE      CODE     ---       #60
      00FF4323H   LINE      CODE     ---       #61
      00FF433EH   LINE      CODE     ---       #62
      00FF433EH   LINE      CODE     ---       #63
      00FF4350H   LINE      CODE     ---       #65
      00FF436BH   LINE      CODE     ---       #66
      00FF4386H   LINE      CODE     ---       #67
      00FF4386H   LINE      CODE     ---       #68
      00FF4398H   LINE      CODE     ---       #70
      00FF43B3H   LINE      CODE     ---       #71
      00FF43CEH   LINE      CODE     ---       #72
      00FF43CEH   LINE      CODE     ---       #74
      00FF43E0H   LINE      CODE     ---       #76
      00FF43FBH   LINE      CODE     ---       #77
      00FF4416H   LINE      CODE     ---       #78
      00FF4416H   LINE      CODE     ---       #79
      00FF4428H   LINE      CODE     ---       #81
      00FF4443H   LINE      CODE     ---       #82
      00FF445EH   LINE      CODE     ---       #83
      00FF445EH   LINE      CODE     ---       #84
      00FF4470H   LINE      CODE     ---       #86
      00FF448BH   LINE      CODE     ---       #87
      00FF44A6H   LINE      CODE     ---       #88
      00FF44A6H   LINE      CODE     ---       #89
      00FF44B8H   LINE      CODE     ---       #91
      00FF44D3H   LINE      CODE     ---       #92
      00FF44EEH   LINE      CODE     ---       #93
      00FF44EEH   LINE      CODE     ---       #94
      00FF4503H   LINE      CODE     ---       #96
      00FF451EH   LINE      CODE     ---       #97
      00FF4539H   LINE      CODE     ---       #98
      00FF453CH   LINE      CODE     ---       #100
      00FF454BH   LINE      CODE     ---       #102
      00FF455BH   LINE      CODE     ---       #104
      00FF4576H   LINE      CODE     ---       #105
L251 LINKER/LOCATER V4.66.93.0                                                        10/07/2023  14:21:18  PAGE 33


      00FF458FH   LINE      CODE     ---       #106
      00FF458FH   LINE      CODE     ---       #107
      00FF45A1H   LINE      CODE     ---       #109
      00FF45BCH   LINE      CODE     ---       #110
      00FF45D5H   LINE      CODE     ---       #111
      00FF45D5H   LINE      CODE     ---       #112
      00FF45E7H   LINE      CODE     ---       #114
      00FF4602H   LINE      CODE     ---       #115
      00FF461BH   LINE      CODE     ---       #116
      00FF461BH   LINE      CODE     ---       #118
      00FF462DH   LINE      CODE     ---       #120
      00FF4648H   LINE      CODE     ---       #121
      00FF4661H   LINE      CODE     ---       #122
      00FF4661H   LINE      CODE     ---       #123
      00FF4673H   LINE      CODE     ---       #125
      00FF468EH   LINE      CODE     ---       #126
      00FF46A7H   LINE      CODE     ---       #127
      00FF46A7H   LINE      CODE     ---       #128
      00FF46B9H   LINE      CODE     ---       #130
      00FF46D4H   LINE      CODE     ---       #131
      00FF46EDH   LINE      CODE     ---       #132
      00FF46EDH   LINE      CODE     ---       #133
      00FF46FFH   LINE      CODE     ---       #135
      00FF471AH   LINE      CODE     ---       #136
      00FF4733H   LINE      CODE     ---       #137
      00FF4733H   LINE      CODE     ---       #138
      00FF4748H   LINE      CODE     ---       #140
      00FF4763H   LINE      CODE     ---       #141
      00FF477CH   LINE      CODE     ---       #142
      00FF477FH   LINE      CODE     ---       #145
      00FF478EH   LINE      CODE     ---       #147
      00FF479EH   LINE      CODE     ---       #149
      00FF47B7H   LINE      CODE     ---       #150
      00FF47D2H   LINE      CODE     ---       #151
      00FF47D2H   LINE      CODE     ---       #152
      00FF47E4H   LINE      CODE     ---       #154
      00FF47FDH   LINE      CODE     ---       #155
      00FF4818H   LINE      CODE     ---       #156
      00FF4818H   LINE      CODE     ---       #157
      00FF482AH   LINE      CODE     ---       #159
      00FF4843H   LINE      CODE     ---       #160
      00FF485EH   LINE      CODE     ---       #161
      00FF485EH   LINE      CODE     ---       #163
      00FF4870H   LINE      CODE     ---       #165
      00FF4889H   LINE      CODE     ---       #166
      00FF48A4H   LINE      CODE     ---       #167
      00FF48A4H   LINE      CODE     ---       #168
      00FF48B6H   LINE      CODE     ---       #170
      00FF48CFH   LINE      CODE     ---       #171
      00FF48EAH   LINE      CODE     ---       #172
      00FF48EAH   LINE      CODE     ---       #173
      00FF48FCH   LINE      CODE     ---       #175
      00FF4915H   LINE      CODE     ---       #176
      00FF4930H   LINE      CODE     ---       #177
      00FF4930H   LINE      CODE     ---       #178
      00FF4942H   LINE      CODE     ---       #180
      00FF495BH   LINE      CODE     ---       #181
      00FF4976H   LINE      CODE     ---       #182
      00FF4976H   LINE      CODE     ---       #183
      00FF498BH   LINE      CODE     ---       #185
      00FF49A4H   LINE      CODE     ---       #186
      00FF49BFH   LINE      CODE     ---       #187
      00FF49C2H   LINE      CODE     ---       #189
      00FF49D1H   LINE      CODE     ---       #191
      00FF49E1H   LINE      CODE     ---       #193
L251 LINKER/LOCATER V4.66.93.0                                                        10/07/2023  14:21:18  PAGE 34


      00FF49FAH   LINE      CODE     ---       #194
      00FF4A13H   LINE      CODE     ---       #195
      00FF4A13H   LINE      CODE     ---       #196
      00FF4A25H   LINE      CODE     ---       #198
      00FF4A3EH   LINE      CODE     ---       #199
      00FF4A57H   LINE      CODE     ---       #200
      00FF4A57H   LINE      CODE     ---       #201
      00FF4A69H   LINE      CODE     ---       #203
      00FF4A82H   LINE      CODE     ---       #204
      00FF4A9BH   LINE      CODE     ---       #205
      00FF4A9BH   LINE      CODE     ---       #207
      00FF4AADH   LINE      CODE     ---       #209
      00FF4AC6H   LINE      CODE     ---       #210
      00FF4ADFH   LINE      CODE     ---       #211
      00FF4ADFH   LINE      CODE     ---       #212
      00FF4AF1H   LINE      CODE     ---       #214
      00FF4B0AH   LINE      CODE     ---       #215
      00FF4B23H   LINE      CODE     ---       #216
      00FF4B23H   LINE      CODE     ---       #217
      00FF4B35H   LINE      CODE     ---       #219
      00FF4B4EH   LINE      CODE     ---       #220
      00FF4B67H   LINE      CODE     ---       #221
      00FF4B67H   LINE      CODE     ---       #222
      00FF4B79H   LINE      CODE     ---       #224
      00FF4B92H   LINE      CODE     ---       #225
      00FF4BABH   LINE      CODE     ---       #226
      00FF4BABH   LINE      CODE     ---       #227
      00FF4BBDH   LINE      CODE     ---       #229
      00FF4BD6H   LINE      CODE     ---       #230
      00FF4BEFH   LINE      CODE     ---       #231
      00FF4BEFH   LINE      CODE     ---       #233
      ---         BLOCKEND  ---      ---       LVL=0

      ---         MODULE    ---      ---       zf_nvic
      000000D0H   SFRSYM    DATA     BYTE      PSW
      0000009DH   SFRSYM    DATA     BYTE      IRCBAND
      00000097H   SFRSYM    DATA     BYTE      AUXR2
      000000EFH   SFRSYM    DATA     BYTE      AUXINTIF
      000000FDH   SFRSYM    DATA     BYTE      S4CON
      000000ACH   SFRSYM    DATA     BYTE      S3CON
      0000009AH   SFRSYM    DATA     BYTE      S2CON
      000000B7H   SFRSYM    DATA     BYTE      IPH
      000000CDH   SFRSYM    DATA     BYTE      SPSTAT
      000000DDH   SFRSYM    DATA     BYTE      T4T3M
      000000C1H   SFRSYM    DATA     BYTE      WDT_CONTR
      000000DFH   SFRSYM    DATA     BYTE      IP3
      000000F4H   SFRSYM    DATA     BYTE      USBCON
      000000B5H   SFRSYM    DATA     BYTE      IP2
      000000FFH   SFRSYM    DATA     BYTE      RSTCFG
      000000F9H   SFRSYM    DATA     BYTE      LINICR
      0000008EH   SFRSYM    DATA     BYTE      AUXR
      000000AFH   SFRSYM    DATA     BYTE      IE2
      00000088H   SFRSYM    DATA     BYTE      TCON
      00000098H   SFRSYM    DATA     BYTE      SCON
      000000F1H   SFRSYM    DATA     BYTE      CANICR
      00000087H   SFRSYM    DATA     BYTE      PCON
      000000BCH   SFRSYM    DATA     BYTE      ADC_CONTR
      000000E7H   SFRSYM    DATA     BYTE      CMPCR2
      000000E6H   SFRSYM    DATA     BYTE      CMPCR1
      000000B8H   SFRSYM    DATA     BYTE      IP
      0000008FH   SFRSYM    DATA     BYTE      INTCLKO
      000000EEH   SFRSYM    DATA     BYTE      IP3H
      000000B6H   SFRSYM    DATA     BYTE      IP2H
      000000A8H   SFRSYM    DATA     BYTE      IE
      000000BBH   SFRSYM    DATA     BYTE      P_SW3
L251 LINKER/LOCATER V4.66.93.0                                                        10/07/2023  14:21:18  PAGE 35


      000000BAH   SFRSYM    DATA     BYTE      P_SW2
      000000A2H   SFRSYM    DATA     BYTE      P_SW1
      000000CEH   SFRSYM    DATA     BYTE      SPCTL
      000000F8H   SFRSYM    DATA     BYTE      P7
      000000E8H   SFRSYM    DATA     BYTE      P6
      000000C8H   SFRSYM    DATA     BYTE      P5
      000000C0H   SFRSYM    DATA     BYTE      P4
      000000B0H   SFRSYM    DATA     BYTE      P3
      000000A0H   SFRSYM    DATA     BYTE      P2
      00000090H   SFRSYM    DATA     BYTE      P1
      00000080H   SFRSYM    DATA     BYTE      P0
      00000AB4H   SYMBOL    EDATA    INT       irqn
      00000AB6H   SYMBOL    EDATA    BYTE      priority

      ---         MODULE    ---      ---       zf_pwm
      00FF5DA2H   PUBLIC    CODE     ---       pwm_duty
      00FF4FCAH   PUBLIC    CODE     ---       pwm_set_gpio
      00FF4BF0H   PUBLIC    CODE     ---       pwm_init
      00FF787CH   PUBLIC    HCONST   ---       PWM_CCR_ADDR
      00FF789CH   PUBLIC    HCONST   ---       PWM_ARR_ADDR
      00FF78A4H   PUBLIC    HCONST   ---       PWM_CCER_ADDR
      00FF78B4H   PUBLIC    HCONST   ---       PWM_CCMR_ADDR
      0000057DH   PUBLIC    EDATA    BYTE      ?pwm_init?BYTE
      00000591H   PUBLIC    EDATA    BYTE      ?pwm_freq?BYTE
      000000D0H   SFRSYM    DATA     BYTE      PSW
      0000009DH   SFRSYM    DATA     BYTE      IRCBAND
      00000097H   SFRSYM    DATA     BYTE      AUXR2
      000000EFH   SFRSYM    DATA     BYTE      AUXINTIF
      000000FDH   SFRSYM    DATA     BYTE      S4CON
      000000ACH   SFRSYM    DATA     BYTE      S3CON
      0000009AH   SFRSYM    DATA     BYTE      S2CON
      000000B7H   SFRSYM    DATA     BYTE      IPH
      000000CDH   SFRSYM    DATA     BYTE      SPSTAT
      000000DDH   SFRSYM    DATA     BYTE      T4T3M
      000000C1H   SFRSYM    DATA     BYTE      WDT_CONTR
      000000DFH   SFRSYM    DATA     BYTE      IP3
      000000F4H   SFRSYM    DATA     BYTE      USBCON
      000000B5H   SFRSYM    DATA     BYTE      IP2
      000000FFH   SFRSYM    DATA     BYTE      RSTCFG
      000000F9H   SFRSYM    DATA     BYTE      LINICR
      0000008EH   SFRSYM    DATA     BYTE      AUXR
      000000AFH   SFRSYM    DATA     BYTE      IE2
      00000088H   SFRSYM    DATA     BYTE      TCON
      00000098H   SFRSYM    DATA     BYTE      SCON
      000000F1H   SFRSYM    DATA     BYTE      CANICR
      00000087H   SFRSYM    DATA     BYTE      PCON
      000000BCH   SFRSYM    DATA     BYTE      ADC_CONTR
      000000E7H   SFRSYM    DATA     BYTE      CMPCR2
      000000E6H   SFRSYM    DATA     BYTE      CMPCR1
      000000B8H   SFRSYM    DATA     BYTE      IP
      0000008FH   SFRSYM    DATA     BYTE      INTCLKO
      000000EEH   SFRSYM    DATA     BYTE      IP3H
      000000B6H   SFRSYM    DATA     BYTE      IP2H
      000000A8H   SFRSYM    DATA     BYTE      IE
      000000BBH   SFRSYM    DATA     BYTE      P_SW3
      000000BAH   SFRSYM    DATA     BYTE      P_SW2
      000000A2H   SFRSYM    DATA     BYTE      P_SW1
      000000CEH   SFRSYM    DATA     BYTE      SPCTL
      000000F8H   SFRSYM    DATA     BYTE      P7
      000000E8H   SFRSYM    DATA     BYTE      P6
      000000C8H   SFRSYM    DATA     BYTE      P5
      000000C0H   SFRSYM    DATA     BYTE      P4
      000000B0H   SFRSYM    DATA     BYTE      P3
      000000A0H   SFRSYM    DATA     BYTE      P2
      00000090H   SFRSYM    DATA     BYTE      P1
L251 LINKER/LOCATER V4.66.93.0                                                        10/07/2023  14:21:18  PAGE 36


      00000080H   SFRSYM    DATA     BYTE      P0

      00FF4FCAH   BLOCK     CODE     ---       LVL=0
      00000AEFH   SYMBOL    EDATA    INT       pwmch
      00FF4FCAH   LINE      CODE     ---       #49
      00FF4FCEH   LINE      CODE     ---       #51
      00FF5143H   LINE      CODE     ---       #53
      00FF5143H   LINE      CODE     ---       #55
      00FF514EH   LINE      CODE     ---       #56
      00FF5151H   LINE      CODE     ---       #58
      00FF5151H   LINE      CODE     ---       #60
      00FF515CH   LINE      CODE     ---       #61
      00FF515FH   LINE      CODE     ---       #63
      00FF515FH   LINE      CODE     ---       #65
      00FF516AH   LINE      CODE     ---       #66
      00FF516DH   LINE      CODE     ---       #68
      00FF516DH   LINE      CODE     ---       #70
      00FF5178H   LINE      CODE     ---       #71
      00FF517BH   LINE      CODE     ---       #73
      00FF517BH   LINE      CODE     ---       #75
      00FF5186H   LINE      CODE     ---       #76
      00FF5189H   LINE      CODE     ---       #78
      00FF5189H   LINE      CODE     ---       #80
      00FF5194H   LINE      CODE     ---       #81
      00FF5197H   LINE      CODE     ---       #84
      00FF5197H   LINE      CODE     ---       #86
      00FF51A2H   LINE      CODE     ---       #87
      00FF51A5H   LINE      CODE     ---       #89
      00FF51A5H   LINE      CODE     ---       #91
      00FF51B0H   LINE      CODE     ---       #92
      00FF51B3H   LINE      CODE     ---       #94
      00FF51B3H   LINE      CODE     ---       #96
      00FF51BEH   LINE      CODE     ---       #97
      00FF51C1H   LINE      CODE     ---       #99
      00FF51C1H   LINE      CODE     ---       #101
      00FF51CCH   LINE      CODE     ---       #102
      00FF51CFH   LINE      CODE     ---       #104
      00FF51CFH   LINE      CODE     ---       #106
      00FF51DAH   LINE      CODE     ---       #107
      00FF51DDH   LINE      CODE     ---       #109
      00FF51DDH   LINE      CODE     ---       #111
      00FF51E8H   LINE      CODE     ---       #112
      00FF51EBH   LINE      CODE     ---       #115
      00FF51EBH   LINE      CODE     ---       #117
      00FF51F6H   LINE      CODE     ---       #118
      00FF51F9H   LINE      CODE     ---       #120
      00FF51F9H   LINE      CODE     ---       #122
      00FF5204H   LINE      CODE     ---       #123
      00FF5207H   LINE      CODE     ---       #125
      00FF5207H   LINE      CODE     ---       #127
      00FF5212H   LINE      CODE     ---       #128
      00FF5215H   LINE      CODE     ---       #130
      00FF5215H   LINE      CODE     ---       #132
      00FF5220H   LINE      CODE     ---       #133
      00FF5223H   LINE      CODE     ---       #135
      00FF5223H   LINE      CODE     ---       #137
      00FF522EH   LINE      CODE     ---       #138
      00FF5231H   LINE      CODE     ---       #140
      00FF5231H   LINE      CODE     ---       #142
      00FF523CH   LINE      CODE     ---       #143
      00FF523FH   LINE      CODE     ---       #147
      00FF523FH   LINE      CODE     ---       #149
      00FF524AH   LINE      CODE     ---       #150
      00FF524DH   LINE      CODE     ---       #152
      00FF524DH   LINE      CODE     ---       #154
L251 LINKER/LOCATER V4.66.93.0                                                        10/07/2023  14:21:18  PAGE 37


      00FF5258H   LINE      CODE     ---       #155
      00FF525BH   LINE      CODE     ---       #157
      00FF525BH   LINE      CODE     ---       #159
      00FF5266H   LINE      CODE     ---       #160
      00FF5269H   LINE      CODE     ---       #162
      00FF5269H   LINE      CODE     ---       #164
      00FF5274H   LINE      CODE     ---       #165
      00FF5277H   LINE      CODE     ---       #167
      00FF5277H   LINE      CODE     ---       #169
      00FF5282H   LINE      CODE     ---       #170
      00FF5285H   LINE      CODE     ---       #172
      00FF5285H   LINE      CODE     ---       #174
      00FF5290H   LINE      CODE     ---       #175
      00FF5293H   LINE      CODE     ---       #177
      00FF5293H   LINE      CODE     ---       #179
      00FF529EH   LINE      CODE     ---       #180
      00FF52A1H   LINE      CODE     ---       #182
      00FF52A1H   LINE      CODE     ---       #184
      00FF52ACH   LINE      CODE     ---       #185
      00FF52AFH   LINE      CODE     ---       #189
      00FF52AFH   LINE      CODE     ---       #191
      00FF52BAH   LINE      CODE     ---       #192
      00FF52BDH   LINE      CODE     ---       #194
      00FF52BDH   LINE      CODE     ---       #196
      00FF52C8H   LINE      CODE     ---       #197
      00FF52CBH   LINE      CODE     ---       #199
      00FF52CBH   LINE      CODE     ---       #201
      00FF52D4H   LINE      CODE     ---       #202
      00FF52D7H   LINE      CODE     ---       #204
      00FF52D7H   LINE      CODE     ---       #206
      00FF52E2H   LINE      CODE     ---       #207
      00FF52E5H   LINE      CODE     ---       #210
      00FF52E5H   LINE      CODE     ---       #212
      00FF52F0H   LINE      CODE     ---       #213
      00FF52F3H   LINE      CODE     ---       #215
      00FF52F3H   LINE      CODE     ---       #217
      00FF52FEH   LINE      CODE     ---       #218
      00FF5301H   LINE      CODE     ---       #220
      00FF5301H   LINE      CODE     ---       #222
      00FF530CH   LINE      CODE     ---       #223
      00FF530EH   LINE      CODE     ---       #225
      00FF530EH   LINE      CODE     ---       #227
      00FF5319H   LINE      CODE     ---       #228
      00FF531BH   LINE      CODE     ---       #232
      00FF531BH   LINE      CODE     ---       #234
      00FF5326H   LINE      CODE     ---       #235
      00FF5328H   LINE      CODE     ---       #237
      00FF5328H   LINE      CODE     ---       #239
      00FF5333H   LINE      CODE     ---       #240
      00FF5335H   LINE      CODE     ---       #242
      00FF5335H   LINE      CODE     ---       #244
      00FF5340H   LINE      CODE     ---       #245
      00FF5342H   LINE      CODE     ---       #247
      00FF5342H   LINE      CODE     ---       #249
      00FF534DH   LINE      CODE     ---       #250
      00FF534FH   LINE      CODE     ---       #254
      00FF534FH   LINE      CODE     ---       #256
      00FF535AH   LINE      CODE     ---       #257
      00FF535CH   LINE      CODE     ---       #259
      00FF535CH   LINE      CODE     ---       #261
      00FF5367H   LINE      CODE     ---       #262
      00FF5369H   LINE      CODE     ---       #264
      00FF5369H   LINE      CODE     ---       #266
      00FF5374H   LINE      CODE     ---       #267
      00FF5376H   LINE      CODE     ---       #269
L251 LINKER/LOCATER V4.66.93.0                                                        10/07/2023  14:21:18  PAGE 38


      00FF5376H   LINE      CODE     ---       #271
      00FF5381H   LINE      CODE     ---       #272
      00FF5381H   LINE      CODE     ---       #275
      00FF5381H   LINE      CODE     ---       #277
      ---         BLOCKEND  ---      ---       LVL=0

      00FF4BF0H   BLOCK     CODE     ---       LVL=0
      0000057DH   SYMBOL    EDATA    INT       pwmch
      0000057FH   SYMBOL    EDATA    DWORD     freq
      00000583H   SYMBOL    EDATA    DWORD     duty
      00FF4BF8H   BLOCK     CODE     NEAR LAB  LVL=1
      00000587H   SYMBOL    EDATA    DWORD     match_temp
      0000058BH   SYMBOL    EDATA    DWORD     period_temp
      0000058FH   SYMBOL    EDATA    WORD      freq_div
      ---         BLOCKEND  ---      ---       LVL=1
      00FF4BF0H   LINE      CODE     ---       #290
      00FF4BF8H   LINE      CODE     ---       #291
      00FF4BF8H   LINE      CODE     ---       #295
      00FF4BFEH   LINE      CODE     ---       #298
      00FF4C01H   LINE      CODE     ---       #301
      00FF4C08H   LINE      CODE     ---       #305
      00FF4C1BH   LINE      CODE     ---       #306
      00FF4C2AH   LINE      CODE     ---       #307
      00FF4C45H   LINE      CODE     ---       #309
      00FF4C4FH   LINE      CODE     ---       #311
      00FF4C76H   LINE      CODE     ---       #312
      00FF4C78H   LINE      CODE     ---       #315
      00FF4C86H   LINE      CODE     ---       #316
      00FF4C86H   LINE      CODE     ---       #319
      00FF4C95H   LINE      CODE     ---       #322
      00FF4CC6H   LINE      CODE     ---       #323
      00FF4CFDH   LINE      CODE     ---       #326
      00FF4D4FH   LINE      CODE     ---       #329
      00FF4D62H   LINE      CODE     ---       #330
      00FF4D71H   LINE      CODE     ---       #332
      00FF4D7EH   LINE      CODE     ---       #333
      00FF4D8BH   LINE      CODE     ---       #334
      00FF4D8EH   LINE      CODE     ---       #337
      00FF4DCCH   LINE      CODE     ---       #338
      00FF4DFFH   LINE      CODE     ---       #341
      00FF4E5FH   LINE      CODE     ---       #345
      00FF4E72H   LINE      CODE     ---       #346
      00FF4E81H   LINE      CODE     ---       #348
      00FF4E8EH   LINE      CODE     ---       #349
      00FF4E9BH   LINE      CODE     ---       #350
      00FF4E9BH   LINE      CODE     ---       #353
      00FF4ECDH   LINE      CODE     ---       #354
      00FF4F05H   LINE      CODE     ---       #357
      00FF4F33H   LINE      CODE     ---       #358
      00FF4F67H   LINE      CODE     ---       #361
      00FF4F98H   LINE      CODE     ---       #362
      00FF4FC9H   LINE      CODE     ---       #367
      ---         BLOCKEND  ---      ---       LVL=0

      00FF5DA2H   BLOCK     CODE     ---       LVL=0
      00000636H   SYMBOL    EDATA    INT       pwmch
      00000638H   SYMBOL    EDATA    DWORD     duty
      00FF5DAAH   BLOCK     CODE     NEAR LAB  LVL=1
      0000063CH   SYMBOL    EDATA    DWORD     match_temp
      00000640H   SYMBOL    EDATA    DWORD     arr
      ---         BLOCKEND  ---      ---       LVL=1
      00FF5DA2H   LINE      CODE     ---       #377
      00FF5DAAH   LINE      CODE     ---       #378
      00FF5DAAH   LINE      CODE     ---       #380
      00FF5E16H   LINE      CODE     ---       #384
L251 LINKER/LOCATER V4.66.93.0                                                        10/07/2023  14:21:18  PAGE 39


      00FF5E20H   LINE      CODE     ---       #386
      00FF5E47H   LINE      CODE     ---       #387
      00FF5E49H   LINE      CODE     ---       #390
      00FF5E57H   LINE      CODE     ---       #391
      00FF5E57H   LINE      CODE     ---       #396
      00FF5E85H   LINE      CODE     ---       #397
      00FF5EB9H   LINE      CODE     ---       #401
      ---         BLOCKEND  ---      ---       LVL=0
      00000591H   SYMBOL    EDATA    INT       pwmch
      00000593H   SYMBOL    EDATA    DWORD     freq
      00000597H   SYMBOL    EDATA    DWORD     duty
      0000059BH   SYMBOL    EDATA    DWORD     match_temp
      0000059FH   SYMBOL    EDATA    DWORD     period_temp
      000005A3H   SYMBOL    EDATA    WORD      freq_div

      ---         MODULE    ---      ---       zf_spi
      00FF5EBAH   PUBLIC    CODE     ---       spi_init
      00FF7700H   PUBLIC    CODE     ---       spi_mosi
      0000096EH   PUBLIC    EDATA    BYTE      ?spi_init?BYTE
      000000CFH   SFRSYM    DATA     BYTE      SPDAT
      000000D0H   SFRSYM    DATA     BYTE      PSW
      0000009DH   SFRSYM    DATA     BYTE      IRCBAND
      00000097H   SFRSYM    DATA     BYTE      AUXR2
      000000EFH   SFRSYM    DATA     BYTE      AUXINTIF
      000000FDH   SFRSYM    DATA     BYTE      S4CON
      000000ACH   SFRSYM    DATA     BYTE      S3CON
      0000009AH   SFRSYM    DATA     BYTE      S2CON
      000000B7H   SFRSYM    DATA     BYTE      IPH
      000000CDH   SFRSYM    DATA     BYTE      SPSTAT
      000000DDH   SFRSYM    DATA     BYTE      T4T3M
      000000C1H   SFRSYM    DATA     BYTE      WDT_CONTR
      000000DFH   SFRSYM    DATA     BYTE      IP3
      000000F4H   SFRSYM    DATA     BYTE      USBCON
      000000B5H   SFRSYM    DATA     BYTE      IP2
      000000FFH   SFRSYM    DATA     BYTE      RSTCFG
      000000F9H   SFRSYM    DATA     BYTE      LINICR
      0000008EH   SFRSYM    DATA     BYTE      AUXR
      000000AFH   SFRSYM    DATA     BYTE      IE2
      00000088H   SFRSYM    DATA     BYTE      TCON
      00000098H   SFRSYM    DATA     BYTE      SCON
      000000F1H   SFRSYM    DATA     BYTE      CANICR
      00000087H   SFRSYM    DATA     BYTE      PCON
      000000BCH   SFRSYM    DATA     BYTE      ADC_CONTR
      000000E7H   SFRSYM    DATA     BYTE      CMPCR2
      000000E6H   SFRSYM    DATA     BYTE      CMPCR1
      000000B8H   SFRSYM    DATA     BYTE      IP
      0000008FH   SFRSYM    DATA     BYTE      INTCLKO
      000000EEH   SFRSYM    DATA     BYTE      IP3H
      000000B6H   SFRSYM    DATA     BYTE      IP2H
      000000A8H   SFRSYM    DATA     BYTE      IE
      000000BBH   SFRSYM    DATA     BYTE      P_SW3
      000000BAH   SFRSYM    DATA     BYTE      P_SW2
      000000A2H   SFRSYM    DATA     BYTE      P_SW1
      000000CEH   SFRSYM    DATA     BYTE      SPCTL
      000000F8H   SFRSYM    DATA     BYTE      P7
      000000E8H   SFRSYM    DATA     BYTE      P6
      000000C8H   SFRSYM    DATA     BYTE      P5
      000000C0H   SFRSYM    DATA     BYTE      P4
      000000B0H   SFRSYM    DATA     BYTE      P3
      000000A0H   SFRSYM    DATA     BYTE      P2
      00000090H   SFRSYM    DATA     BYTE      P1
      00000080H   SFRSYM    DATA     BYTE      P0

      00FF5EBAH   BLOCK     CODE     ---       LVL=0
      00000974H   SYMBOL    EDATA    INT       spi_n
L251 LINKER/LOCATER V4.66.93.0                                                        10/07/2023  14:21:18  PAGE 40


      00000976H   SYMBOL    EDATA    BYTE      mode
      00000977H   SYMBOL    EDATA    INT       mstr
      00000979H   SYMBOL    EDATA    INT       baud
      00FF5EBAH   LINE      CODE     ---       #39
      00FF5EC2H   LINE      CODE     ---       #47
      00FF5ED4H   LINE      CODE     ---       #50
      00FF5ED4H   LINE      CODE     ---       #51
      00FF5EDDH   LINE      CODE     ---       #52
      00FF5EE6H   LINE      CODE     ---       #53
      00FF5EEFH   LINE      CODE     ---       #54
      00FF5EF1H   LINE      CODE     ---       #55
      00FF5EF1H   LINE      CODE     ---       #56
      00FF5EFAH   LINE      CODE     ---       #57
      00FF5F03H   LINE      CODE     ---       #58
      00FF5F0CH   LINE      CODE     ---       #59
      00FF5F0EH   LINE      CODE     ---       #60
      00FF5F0EH   LINE      CODE     ---       #61
      00FF5F17H   LINE      CODE     ---       #62
      00FF5F20H   LINE      CODE     ---       #63
      00FF5F29H   LINE      CODE     ---       #64
      00FF5F2BH   LINE      CODE     ---       #65
      00FF5F2BH   LINE      CODE     ---       #66
      00FF5F34H   LINE      CODE     ---       #67
      00FF5F3DH   LINE      CODE     ---       #68
      00FF5F46H   LINE      CODE     ---       #69
      00FF5F46H   LINE      CODE     ---       #70
      00FF5F46H   LINE      CODE     ---       #72
      00FF5F49H   LINE      CODE     ---       #73
      00FF5F5FH   LINE      CODE     ---       #75
      00FF5F5FH   LINE      CODE     ---       #76
      00FF5F63H   LINE      CODE     ---       #77
      00FF5F65H   LINE      CODE     ---       #78
      00FF5F65H   LINE      CODE     ---       #79
      00FF5F68H   LINE      CODE     ---       #80
      00FF5F6AH   LINE      CODE     ---       #81
      00FF5F6AH   LINE      CODE     ---       #82
      00FF5F6DH   LINE      CODE     ---       #83
      00FF5F6FH   LINE      CODE     ---       #84
      00FF5F6FH   LINE      CODE     ---       #85
      00FF5F72H   LINE      CODE     ---       #86
      00FF5F72H   LINE      CODE     ---       #87
      00FF5F72H   LINE      CODE     ---       #89
      00FF5F75H   LINE      CODE     ---       #90
      00FF5F84H   LINE      CODE     ---       #92
      00FF5F84H   LINE      CODE     ---       #94
      00FF5F86H   LINE      CODE     ---       #95
      00FF5F86H   LINE      CODE     ---       #96
      00FF5F89H   LINE      CODE     ---       #97
      00FF5F8BH   LINE      CODE     ---       #98
      00FF5F8BH   LINE      CODE     ---       #99
      00FF5F8EH   LINE      CODE     ---       #100
      00FF5F90H   LINE      CODE     ---       #101
      00FF5F90H   LINE      CODE     ---       #102
      00FF5F93H   LINE      CODE     ---       #103
      00FF5F93H   LINE      CODE     ---       #104
      00FF5F93H   LINE      CODE     ---       #107
      00FF5F9BH   LINE      CODE     ---       #109
      00FF5FA5H   LINE      CODE     ---       #111
      00FF5FA8H   LINE      CODE     ---       #112
      00FF5FABH   LINE      CODE     ---       #113
      00FF5FABH   LINE      CODE     ---       #117
      00FF5FABH   LINE      CODE     ---       #118
      00FF5FAEH   LINE      CODE     ---       #119
      ---         BLOCKEND  ---      ---       LVL=0

L251 LINKER/LOCATER V4.66.93.0                                                        10/07/2023  14:21:18  PAGE 41


      00FF7700H   BLOCK     CODE     ---       LVL=0
      00000B37H   SYMBOL    EDATA    BYTE      dat
      00FF7700H   LINE      CODE     ---       #129
      00FF7704H   LINE      CODE     ---       #131
      00FF7706H   LINE      CODE     ---       #132
      00FF770BH   LINE      CODE     ---       #133
      00FF770FH   LINE      CODE     ---       #134
      00FF7711H   LINE      CODE     ---       #135
      ---         BLOCKEND  ---      ---       LVL=0
      00000AF1H   SYMBOL    EDATA    INT       spi_n
      00000B38H   SYMBOL    EDATA    BYTE      mode

      ---         MODULE    ---      ---       zf_tim
      00FF60A0H   PUBLIC    CODE     ---       pit_timer_ms
      000000D0H   SFRSYM    DATA     BYTE      PSW
      0000009DH   SFRSYM    DATA     BYTE      IRCBAND
      00000097H   SFRSYM    DATA     BYTE      AUXR2
      000000EFH   SFRSYM    DATA     BYTE      AUXINTIF
      000000FDH   SFRSYM    DATA     BYTE      S4CON
      000000ACH   SFRSYM    DATA     BYTE      S3CON
      0000009AH   SFRSYM    DATA     BYTE      S2CON
      000000B7H   SFRSYM    DATA     BYTE      IPH
      000000CDH   SFRSYM    DATA     BYTE      SPSTAT
      000000DDH   SFRSYM    DATA     BYTE      T4T3M
      000000C1H   SFRSYM    DATA     BYTE      WDT_CONTR
      00000088H.6 SFRSYM    DATA     BIT       TR1
      00000088H.4 SFRSYM    DATA     BIT       TR0
      000000D3H   SFRSYM    DATA     BYTE      T4L
      000000D5H   SFRSYM    DATA     BYTE      T3L
      000000D7H   SFRSYM    DATA     BYTE      T2L
      0000008BH   SFRSYM    DATA     BYTE      TL1
      0000008AH   SFRSYM    DATA     BYTE      TL0
      000000D2H   SFRSYM    DATA     BYTE      T4H
      000000D4H   SFRSYM    DATA     BYTE      T3H
      000000D6H   SFRSYM    DATA     BYTE      T2H
      0000008DH   SFRSYM    DATA     BYTE      TH1
      0000008CH   SFRSYM    DATA     BYTE      TH0
      000000DFH   SFRSYM    DATA     BYTE      IP3
      000000F4H   SFRSYM    DATA     BYTE      USBCON
      000000B5H   SFRSYM    DATA     BYTE      IP2
      000000FFH   SFRSYM    DATA     BYTE      RSTCFG
      000000A8H.3 SFRSYM    DATA     BIT       ET1
      000000A8H.1 SFRSYM    DATA     BIT       ET0
      000000F9H   SFRSYM    DATA     BYTE      LINICR
      0000008EH   SFRSYM    DATA     BYTE      AUXR
      000000AFH   SFRSYM    DATA     BYTE      IE2
      00000088H   SFRSYM    DATA     BYTE      TCON
      00000089H   SFRSYM    DATA     BYTE      TMOD
      00000098H   SFRSYM    DATA     BYTE      SCON
      000000F1H   SFRSYM    DATA     BYTE      CANICR
      00000087H   SFRSYM    DATA     BYTE      PCON
      000000BCH   SFRSYM    DATA     BYTE      ADC_CONTR
      000000E7H   SFRSYM    DATA     BYTE      CMPCR2
      000000E6H   SFRSYM    DATA     BYTE      CMPCR1
      000000B8H   SFRSYM    DATA     BYTE      IP
      0000008FH   SFRSYM    DATA     BYTE      INTCLKO
      000000EEH   SFRSYM    DATA     BYTE      IP3H
      000000B6H   SFRSYM    DATA     BYTE      IP2H
      000000A8H   SFRSYM    DATA     BYTE      IE
      000000BBH   SFRSYM    DATA     BYTE      P_SW3
      000000BAH   SFRSYM    DATA     BYTE      P_SW2
      000000A2H   SFRSYM    DATA     BYTE      P_SW1
      000000CEH   SFRSYM    DATA     BYTE      SPCTL
      000000F8H   SFRSYM    DATA     BYTE      P7
      000000E8H   SFRSYM    DATA     BYTE      P6
L251 LINKER/LOCATER V4.66.93.0                                                        10/07/2023  14:21:18  PAGE 42


      000000C8H   SFRSYM    DATA     BYTE      P5
      000000C0H   SFRSYM    DATA     BYTE      P4
      000000B0H   SFRSYM    DATA     BYTE      P3
      000000A0H   SFRSYM    DATA     BYTE      P2
      00000090H   SFRSYM    DATA     BYTE      P1
      00000080H   SFRSYM    DATA     BYTE      P0
      00000AF3H   SYMBOL    EDATA    INT       tim_n
      00000A78H   SYMBOL    EDATA    INT       tim_n
      00000A7AH   SYMBOL    EDATA    WORD      dat
      00000AF5H   SYMBOL    EDATA    INT       tim_n

      00FF60A0H   BLOCK     CODE     ---       LVL=0
      000009AAH   SYMBOL    EDATA    INT       tim_n
      000009ACH   SYMBOL    EDATA    WORD      time_ms
      00FF60A8H   BLOCK     CODE     NEAR LAB  LVL=1
      000009AEH   SYMBOL    EDATA    WORD      temp
      ---         BLOCKEND  ---      ---       LVL=1
      00FF60A0H   LINE      CODE     ---       #198
      00FF60A8H   LINE      CODE     ---       #199
      00FF60A8H   LINE      CODE     ---       #201
      00FF60CBH   LINE      CODE     ---       #203
      00FF60D5H   LINE      CODE     ---       #205
      00FF60D9H   LINE      CODE     ---       #206
      00FF60DFH   LINE      CODE     ---       #207
      00FF60E9H   LINE      CODE     ---       #208
      00FF60ECH   LINE      CODE     ---       #209
      00FF60EFH   LINE      CODE     ---       #210
      00FF60F2H   LINE      CODE     ---       #211
      00FF60FEH   LINE      CODE     ---       #213
      00FF6102H   LINE      CODE     ---       #214
      00FF6108H   LINE      CODE     ---       #215
      00FF6112H   LINE      CODE     ---       #216
      00FF6115H   LINE      CODE     ---       #217
      00FF6118H   LINE      CODE     ---       #218
      00FF611AH   LINE      CODE     ---       #219
      00FF6126H   LINE      CODE     ---       #221
      00FF612CH   LINE      CODE     ---       #222
      00FF6136H   LINE      CODE     ---       #223
      00FF6139H   LINE      CODE     ---       #224
      00FF613CH   LINE      CODE     ---       #225
      00FF613EH   LINE      CODE     ---       #226
      00FF614AH   LINE      CODE     ---       #228
      00FF6150H   LINE      CODE     ---       #229
      00FF615AH   LINE      CODE     ---       #230
      00FF615DH   LINE      CODE     ---       #231
      00FF6160H   LINE      CODE     ---       #232
      00FF6162H   LINE      CODE     ---       #233
      00FF616EH   LINE      CODE     ---       #235
      00FF6174H   LINE      CODE     ---       #236
      00FF617EH   LINE      CODE     ---       #237
      00FF6181H   LINE      CODE     ---       #238
      00FF6184H   LINE      CODE     ---       #239
      ---         BLOCKEND  ---      ---       LVL=0

      ---         MODULE    ---      ---       zf_uart
      00FF666DH   PUBLIC    CODE     ---       uart_putchar
      00FF5382H   PUBLIC    CODE     ---       uart_init
      00000A3AH   PUBLIC    EDATA    ---       busy
      00000644H   PUBLIC    EDATA    BYTE      ?uart_init?BYTE
      000000D0H   SFRSYM    DATA     BYTE      PSW
      0000009DH   SFRSYM    DATA     BYTE      IRCBAND
      00000097H   SFRSYM    DATA     BYTE      AUXR2
      000000EFH   SFRSYM    DATA     BYTE      AUXINTIF
      000000FDH   SFRSYM    DATA     BYTE      S4CON
      000000ACH   SFRSYM    DATA     BYTE      S3CON
L251 LINKER/LOCATER V4.66.93.0                                                        10/07/2023  14:21:18  PAGE 43


      0000009AH   SFRSYM    DATA     BYTE      S2CON
      000000FEH   SFRSYM    DATA     BYTE      S4BUF
      000000ADH   SFRSYM    DATA     BYTE      S3BUF
      0000009BH   SFRSYM    DATA     BYTE      S2BUF
      000000B7H   SFRSYM    DATA     BYTE      IPH
      000000CDH   SFRSYM    DATA     BYTE      SPSTAT
      000000DDH   SFRSYM    DATA     BYTE      T4T3M
      000000C1H   SFRSYM    DATA     BYTE      WDT_CONTR
      00000088H.6 SFRSYM    DATA     BIT       TR1
      000000D3H   SFRSYM    DATA     BYTE      T4L
      000000D5H   SFRSYM    DATA     BYTE      T3L
      000000D7H   SFRSYM    DATA     BYTE      T2L
      0000008BH   SFRSYM    DATA     BYTE      TL1
      000000D2H   SFRSYM    DATA     BYTE      T4H
      000000D4H   SFRSYM    DATA     BYTE      T3H
      000000D6H   SFRSYM    DATA     BYTE      T2H
      0000008DH   SFRSYM    DATA     BYTE      TH1
      000000DFH   SFRSYM    DATA     BYTE      IP3
      000000F4H   SFRSYM    DATA     BYTE      USBCON
      000000B5H   SFRSYM    DATA     BYTE      IP2
      000000FFH   SFRSYM    DATA     BYTE      RSTCFG
      000000F9H   SFRSYM    DATA     BYTE      LINICR
      0000008EH   SFRSYM    DATA     BYTE      AUXR
      000000AFH   SFRSYM    DATA     BYTE      IE2
      00000088H   SFRSYM    DATA     BYTE      TCON
      00000089H   SFRSYM    DATA     BYTE      TMOD
      00000098H   SFRSYM    DATA     BYTE      SCON
      000000F1H   SFRSYM    DATA     BYTE      CANICR
      00000087H   SFRSYM    DATA     BYTE      PCON
      00000099H   SFRSYM    DATA     BYTE      SBUF
      000000BCH   SFRSYM    DATA     BYTE      ADC_CONTR
      000000E7H   SFRSYM    DATA     BYTE      CMPCR2
      000000E6H   SFRSYM    DATA     BYTE      CMPCR1
      000000B8H   SFRSYM    DATA     BYTE      IP
      000000A8H.4 SFRSYM    DATA     BIT       ES
      0000008FH   SFRSYM    DATA     BYTE      INTCLKO
      000000EEH   SFRSYM    DATA     BYTE      IP3H
      000000B6H   SFRSYM    DATA     BYTE      IP2H
      000000A8H   SFRSYM    DATA     BYTE      IE
      000000BBH   SFRSYM    DATA     BYTE      P_SW3
      000000BAH   SFRSYM    DATA     BYTE      P_SW2
      000000A2H   SFRSYM    DATA     BYTE      P_SW1
      000000CEH   SFRSYM    DATA     BYTE      SPCTL
      000000F8H   SFRSYM    DATA     BYTE      P7
      000000E8H   SFRSYM    DATA     BYTE      P6
      000000C8H   SFRSYM    DATA     BYTE      P5
      000000C0H   SFRSYM    DATA     BYTE      P4
      000000C9H   SFRSYM    DATA     BYTE      P5M1
      000000B0H   SFRSYM    DATA     BYTE      P3
      000000CAH   SFRSYM    DATA     BYTE      P5M0
      000000A0H   SFRSYM    DATA     BYTE      P2
      00000090H   SFRSYM    DATA     BYTE      P1
      00000080H   SFRSYM    DATA     BYTE      P0

      00FF5382H   BLOCK     CODE     ---       LVL=0
      00000644H   SYMBOL    EDATA    INT       uart_n
      00000646H   SYMBOL    EDATA    INT       uart_rx_pin
      00000648H   SYMBOL    EDATA    INT       uart_tx_pin
      0000064AH   SYMBOL    EDATA    DWORD     baud
      0000064EH   SYMBOL    EDATA    INT       tim_n
      00FF5392H   BLOCK     CODE     NEAR LAB  LVL=1
      00000650H   SYMBOL    EDATA    WORD      brt
      ---         BLOCKEND  ---      ---       LVL=1
      00FF5382H   LINE      CODE     ---       #47
      00FF5392H   LINE      CODE     ---       #48
L251 LINKER/LOCATER V4.66.93.0                                                        10/07/2023  14:21:18  PAGE 44


      00FF5392H   LINE      CODE     ---       #51
      00FF53B9H   LINE      CODE     ---       #54
      00FF53DBH   LINE      CODE     ---       #56
      00FF53DBH   LINE      CODE     ---       #58
      00FF53E7H   LINE      CODE     ---       #60
      00FF53EAH   LINE      CODE     ---       #61
      00FF53EEH   LINE      CODE     ---       #62
      00FF53F4H   LINE      CODE     ---       #63
      00FF53FEH   LINE      CODE     ---       #64
      00FF5401H   LINE      CODE     ---       #65
      00FF5404H   LINE      CODE     ---       #66
      00FF5409H   LINE      CODE     ---       #67
      00FF540BH   LINE      CODE     ---       #68
      00FF5417H   LINE      CODE     ---       #70
      00FF541AH   LINE      CODE     ---       #71
      00FF5420H   LINE      CODE     ---       #72
      00FF542AH   LINE      CODE     ---       #73
      00FF542DH   LINE      CODE     ---       #74
      00FF542DH   LINE      CODE     ---       #75
      00FF5430H   LINE      CODE     ---       #76
      00FF5446H   LINE      CODE     ---       #78
      00FF544AH   LINE      CODE     ---       #79
      00FF544CH   LINE      CODE     ---       #80
      00FF5464H   LINE      CODE     ---       #82
      00FF5467H   LINE      CODE     ---       #83
      00FF5469H   LINE      CODE     ---       #84
      00FF5481H   LINE      CODE     ---       #86
      00FF5484H   LINE      CODE     ---       #87
      00FF5486H   LINE      CODE     ---       #88
      00FF549EH   LINE      CODE     ---       #90
      00FF54A1H   LINE      CODE     ---       #91
      00FF54A1H   LINE      CODE     ---       #92
      00FF54A6H   LINE      CODE     ---       #93
      00FF54A9H   LINE      CODE     ---       #94
      00FF54ACH   LINE      CODE     ---       #97
      00FF54ACH   LINE      CODE     ---       #99
      00FF54B8H   LINE      CODE     ---       #101
      00FF54BBH   LINE      CODE     ---       #102
      00FF54C1H   LINE      CODE     ---       #103
      00FF54CBH   LINE      CODE     ---       #104
      00FF54CEH   LINE      CODE     ---       #105
      00FF54CEH   LINE      CODE     ---       #107
      00FF54D1H   LINE      CODE     ---       #108
      00FF54E9H   LINE      CODE     ---       #110
      00FF54EDH   LINE      CODE     ---       #111
      00FF54EFH   LINE      CODE     ---       #112
      00FF5507H   LINE      CODE     ---       #114
      00FF550AH   LINE      CODE     ---       #115
      00FF550AH   LINE      CODE     ---       #117
      00FF550DH   LINE      CODE     ---       #118
      00FF5512H   LINE      CODE     ---       #119
      00FF5515H   LINE      CODE     ---       #122
      00FF5515H   LINE      CODE     ---       #124
      00FF5521H   LINE      CODE     ---       #126
      00FF5524H   LINE      CODE     ---       #127
      00FF552AH   LINE      CODE     ---       #128
      00FF5534H   LINE      CODE     ---       #129
      00FF5537H   LINE      CODE     ---       #130
      00FF5539H   LINE      CODE     ---       #131
      00FF5545H   LINE      CODE     ---       #133
      00FF5548H   LINE      CODE     ---       #134
      00FF554EH   LINE      CODE     ---       #135
      00FF5558H   LINE      CODE     ---       #136
      00FF555BH   LINE      CODE     ---       #137
      00FF555BH   LINE      CODE     ---       #139
L251 LINKER/LOCATER V4.66.93.0                                                        10/07/2023  14:21:18  PAGE 45


      00FF555EH   LINE      CODE     ---       #140
      00FF5576H   LINE      CODE     ---       #142
      00FF557AH   LINE      CODE     ---       #143
      00FF557CH   LINE      CODE     ---       #144
      00FF5594H   LINE      CODE     ---       #146
      00FF5597H   LINE      CODE     ---       #147
      00FF5597H   LINE      CODE     ---       #149
      00FF559AH   LINE      CODE     ---       #150
      00FF559FH   LINE      CODE     ---       #151
      00FF55A2H   LINE      CODE     ---       #154
      00FF55A2H   LINE      CODE     ---       #156
      00FF55AEH   LINE      CODE     ---       #158
      00FF55B1H   LINE      CODE     ---       #159
      00FF55B7H   LINE      CODE     ---       #160
      00FF55C1H   LINE      CODE     ---       #161
      00FF55C4H   LINE      CODE     ---       #162
      00FF55C6H   LINE      CODE     ---       #163
      00FF55D2H   LINE      CODE     ---       #165
      00FF55D5H   LINE      CODE     ---       #166
      00FF55DBH   LINE      CODE     ---       #167
      00FF55E5H   LINE      CODE     ---       #168
      00FF55E8H   LINE      CODE     ---       #169
      00FF55E8H   LINE      CODE     ---       #171
      00FF55EBH   LINE      CODE     ---       #172
      00FF5603H   LINE      CODE     ---       #174
      00FF5607H   LINE      CODE     ---       #175
      00FF5609H   LINE      CODE     ---       #176
      00FF5621H   LINE      CODE     ---       #178
      00FF5624H   LINE      CODE     ---       #179
      00FF5628H   LINE      CODE     ---       #180
      00FF562BH   LINE      CODE     ---       #181
      00FF562BH   LINE      CODE     ---       #182
      00FF562EH   LINE      CODE     ---       #183
      00FF5633H   LINE      CODE     ---       #184
      00FF5633H   LINE      CODE     ---       #187
      00FF5633H   LINE      CODE     ---       #189
      ---         BLOCKEND  ---      ---       LVL=0

      00FF666DH   BLOCK     CODE     ---       LVL=0
      00000AB7H   SYMBOL    EDATA    INT       uart_n
      00000AB9H   SYMBOL    EDATA    BYTE      dat
      00FF666DH   LINE      CODE     ---       #198
      00FF6675H   LINE      CODE     ---       #200
      00FF6687H   LINE      CODE     ---       #202
      00FF6687H   LINE      CODE     ---       #203
      00FF6690H   LINE      CODE     ---       #204
      00FF6696H   LINE      CODE     ---       #205
      00FF669CH   LINE      CODE     ---       #206
      00FF669EH   LINE      CODE     ---       #207
      00FF669EH   LINE      CODE     ---       #208
      00FF66A7H   LINE      CODE     ---       #209
      00FF66ADH   LINE      CODE     ---       #210
      00FF66B3H   LINE      CODE     ---       #211
      00FF66B5H   LINE      CODE     ---       #212
      00FF66B5H   LINE      CODE     ---       #213
      00FF66BEH   LINE      CODE     ---       #214
      00FF66C4H   LINE      CODE     ---       #215
      00FF66CAH   LINE      CODE     ---       #216
      00FF66CCH   LINE      CODE     ---       #217
      00FF66CCH   LINE      CODE     ---       #218
      00FF66D5H   LINE      CODE     ---       #219
      00FF66DBH   LINE      CODE     ---       #220
      00FF66E1H   LINE      CODE     ---       #221
      00FF66E1H   LINE      CODE     ---       #222
      00FF66E1H   LINE      CODE     ---       #223
L251 LINKER/LOCATER V4.66.93.0                                                        10/07/2023  14:21:18  PAGE 46


      ---         BLOCKEND  ---      ---       LVL=0
      000008FCH   SYMBOL    EDATA    INT       uart_n
      000008FEH   SYMBOL    EDATA    ---       p
      00000902H   SYMBOL    EDATA    WORD      len
      000009B0H   SYMBOL    EDATA    INT       uart_n
      000009B2H   SYMBOL    EDATA    ---       str

      ---         MODULE    ---      ---       zf_fifo
      00FF67C1H   PUBLIC    CODE     ---       fifo_head_offset
      00FF5C6AH   PUBLIC    CODE     ---       fifo_write_buffer
      000006A3H   PUBLIC    EDATA    BYTE      ?fifo_init?BYTE
      00000616H   PUBLIC    EDATA    BYTE      ?fifo_write_buffer?BYTE
      000005CDH   PUBLIC    EDATA    BYTE      ?fifo_read_buffer?BYTE
      000000D0H   SFRSYM    DATA     BYTE      PSW
      0000009DH   SFRSYM    DATA     BYTE      IRCBAND
      00000097H   SFRSYM    DATA     BYTE      AUXR2
      000000EFH   SFRSYM    DATA     BYTE      AUXINTIF
      000000FDH   SFRSYM    DATA     BYTE      S4CON
      000000ACH   SFRSYM    DATA     BYTE      S3CON
      0000009AH   SFRSYM    DATA     BYTE      S2CON
      000000B7H   SFRSYM    DATA     BYTE      IPH
      000000CDH   SFRSYM    DATA     BYTE      SPSTAT
      000000DDH   SFRSYM    DATA     BYTE      T4T3M
      000000C1H   SFRSYM    DATA     BYTE      WDT_CONTR
      000000DFH   SFRSYM    DATA     BYTE      IP3
      000000F4H   SFRSYM    DATA     BYTE      USBCON
      000000B5H   SFRSYM    DATA     BYTE      IP2
      000000FFH   SFRSYM    DATA     BYTE      RSTCFG
      000000F9H   SFRSYM    DATA     BYTE      LINICR
      0000008EH   SFRSYM    DATA     BYTE      AUXR
      000000AFH   SFRSYM    DATA     BYTE      IE2
      00000088H   SFRSYM    DATA     BYTE      TCON
      00000098H   SFRSYM    DATA     BYTE      SCON
      000000F1H   SFRSYM    DATA     BYTE      CANICR
      00000087H   SFRSYM    DATA     BYTE      PCON
      000000BCH   SFRSYM    DATA     BYTE      ADC_CONTR
      000000E7H   SFRSYM    DATA     BYTE      CMPCR2
      000000E6H   SFRSYM    DATA     BYTE      CMPCR1
      000000B8H   SFRSYM    DATA     BYTE      IP
      0000008FH   SFRSYM    DATA     BYTE      INTCLKO
      000000EEH   SFRSYM    DATA     BYTE      IP3H
      000000B6H   SFRSYM    DATA     BYTE      IP2H
      000000A8H   SFRSYM    DATA     BYTE      IE
      000000BBH   SFRSYM    DATA     BYTE      P_SW3
      000000BAH   SFRSYM    DATA     BYTE      P_SW2
      000000A2H   SFRSYM    DATA     BYTE      P_SW1
      000000CEH   SFRSYM    DATA     BYTE      SPCTL
      000000F8H   SFRSYM    DATA     BYTE      P7
      000000E8H   SFRSYM    DATA     BYTE      P6
      000000C8H   SFRSYM    DATA     BYTE      P5
      000000C0H   SFRSYM    DATA     BYTE      P4
      000000B0H   SFRSYM    DATA     BYTE      P3
      000000A0H   SFRSYM    DATA     BYTE      P2
      00000090H   SFRSYM    DATA     BYTE      P1
      00000080H   SFRSYM    DATA     BYTE      P0
      000006A3H   SYMBOL    EDATA    ---       fifo
      000006A7H   SYMBOL    EDATA    ---       buffer_addr
      000006ABH   SYMBOL    EDATA    DWORD     size

      00FF67C1H   BLOCK     CODE     ---       LVL=0
      00000904H   SYMBOL    EDATA    ---       fifo
      00000908H   SYMBOL    EDATA    DWORD     offset
      00FF67C1H   LINE      CODE     ---       #61
      00FF67C9H   LINE      CODE     ---       #63
      00FF67E3H   LINE      CODE     ---       #65
L251 LINKER/LOCATER V4.66.93.0                                                        10/07/2023  14:21:18  PAGE 47


      00FF67E5H   LINE      CODE     ---       #67
      00FF680AH   LINE      CODE     ---       #68
      00FF682AH   LINE      CODE     ---       #69
      ---         BLOCKEND  ---      ---       LVL=0
      0000090CH   SYMBOL    EDATA    ---       fifo
      00000910H   SYMBOL    EDATA    DWORD     offset
      00000A7CH   SYMBOL    EDATA    ---       fifo
      00000A80H   SYMBOL    EDATA    ---       fifo

      00FF5C6AH   BLOCK     CODE     ---       LVL=0
      00000616H   SYMBOL    EDATA    ---       fifo
      0000061AH   SYMBOL    EDATA    ---       dat
      0000061EH   SYMBOL    EDATA    DWORD     length
      00FF5C72H   BLOCK     CODE     NEAR LAB  LVL=1
      00000622H   SYMBOL    EDATA    DWORD     temp_length
      ---         BLOCKEND  ---      ---       LVL=1
      00FF5C6AH   LINE      CODE     ---       #120
      00FF5C72H   LINE      CODE     ---       #121
      00FF5C72H   LINE      CODE     ---       #124
      00FF5C8CH   LINE      CODE     ---       #126
      00FF5CAEH   LINE      CODE     ---       #128
      00FF5CBDH   LINE      CODE     ---       #130
      00FF5CE6H   LINE      CODE     ---       #131
      00FF5CF1H   LINE      CODE     ---       #132
      00FF5D01H   LINE      CODE     ---       #133
      00FF5D34H   LINE      CODE     ---       #134
      00FF5D45H   LINE      CODE     ---       #135
      00FF5D47H   LINE      CODE     ---       #138
      00FF5D70H   LINE      CODE     ---       #139
      00FF5D7BH   LINE      CODE     ---       #140
      00FF5D7BH   LINE      CODE     ---       #142
      00FF5D97H   LINE      CODE     ---       #143
      00FF5D99H   LINE      CODE     ---       #146
      00FF5D9FH   LINE      CODE     ---       #147
      00FF5D9FH   LINE      CODE     ---       #149
      00FF5DA1H   LINE      CODE     ---       #150
      ---         BLOCKEND  ---      ---       LVL=0
      000005CDH   SYMBOL    EDATA    ---       fifo
      000005D1H   SYMBOL    EDATA    ---       dat
      000005D5H   SYMBOL    EDATA    ---       length
      000005D9H   SYMBOL    EDATA    INT       flag
      000005DBH   SYMBOL    EDATA    BYTE      data_check
      000005DCH   SYMBOL    EDATA    DWORD     temp_length

      ---         MODULE    ---      ---       SEEKFREE_18TFT
      00FF6E40H   PUBLIC    CODE     ---       lcd_writeIndex_simspi
      00FF6E8CH   PUBLIC    CODE     ---       lcd_writeData_simspi
      00FF7636H   PUBLIC    CODE     ---       lcd_writeIndex
      00FF764BH   PUBLIC    CODE     ---       lcd_writeData
      00FF6C4DH   PUBLIC    CODE     ---       lcd_writeData_16bit_simspi
      00FF6967H   PUBLIC    CODE     ---       lcd_set_region_simspi
      00FF69CBH   PUBLIC    CODE     ---       lcd_set_region
      00FF7322H   PUBLIC    CODE     ---       lcd_writedata_16bit
      000002D2H   PUBLIC    EDATA    BYTE      ?lcd_showfloat_simspi?BYTE
      00000302H   PUBLIC    EDATA    BYTE      ?lcd_showfloat?BYTE
      000000D0H   SFRSYM    DATA     BYTE      PSW
      0000009DH   SFRSYM    DATA     BYTE      IRCBAND
      00000097H   SFRSYM    DATA     BYTE      AUXR2
      000000EFH   SFRSYM    DATA     BYTE      AUXINTIF
      000000FDH   SFRSYM    DATA     BYTE      S4CON
      000000ACH   SFRSYM    DATA     BYTE      S3CON
      0000009AH   SFRSYM    DATA     BYTE      S2CON
      000000B7H   SFRSYM    DATA     BYTE      IPH
      000000CDH   SFRSYM    DATA     BYTE      SPSTAT
      000000DDH   SFRSYM    DATA     BYTE      T4T3M
L251 LINKER/LOCATER V4.66.93.0                                                        10/07/2023  14:21:18  PAGE 48


      000000C1H   SFRSYM    DATA     BYTE      WDT_CONTR
      000000DFH   SFRSYM    DATA     BYTE      IP3
      000000F4H   SFRSYM    DATA     BYTE      USBCON
      000000B5H   SFRSYM    DATA     BYTE      IP2
      000000FFH   SFRSYM    DATA     BYTE      RSTCFG
      000000F9H   SFRSYM    DATA     BYTE      LINICR
      0000008EH   SFRSYM    DATA     BYTE      AUXR
      000000AFH   SFRSYM    DATA     BYTE      IE2
      000000A0H.5 SFRSYM    DATA     BIT       P25
      00000088H   SFRSYM    DATA     BYTE      TCON
      000000A0H.3 SFRSYM    DATA     BIT       P23
      00000098H   SFRSYM    DATA     BYTE      SCON
      000000A0H.2 SFRSYM    DATA     BIT       P22
      000000A0H.1 SFRSYM    DATA     BIT       P21
      000000A0H.0 SFRSYM    DATA     BIT       P20
      000000F1H   SFRSYM    DATA     BYTE      CANICR
      00000087H   SFRSYM    DATA     BYTE      PCON
      000000BCH   SFRSYM    DATA     BYTE      ADC_CONTR
      000000E7H   SFRSYM    DATA     BYTE      CMPCR2
      000000E6H   SFRSYM    DATA     BYTE      CMPCR1
      000000B8H   SFRSYM    DATA     BYTE      IP
      0000008FH   SFRSYM    DATA     BYTE      INTCLKO
      000000EEH   SFRSYM    DATA     BYTE      IP3H
      000000B6H   SFRSYM    DATA     BYTE      IP2H
      000000A8H   SFRSYM    DATA     BYTE      IE
      000000BBH   SFRSYM    DATA     BYTE      P_SW3
      000000BAH   SFRSYM    DATA     BYTE      P_SW2
      000000A2H   SFRSYM    DATA     BYTE      P_SW1
      000000CEH   SFRSYM    DATA     BYTE      SPCTL
      000000F8H   SFRSYM    DATA     BYTE      P7
      000000E8H   SFRSYM    DATA     BYTE      P6
      000000C8H   SFRSYM    DATA     BYTE      P5
      000000C0H   SFRSYM    DATA     BYTE      P4
      000000B0H   SFRSYM    DATA     BYTE      P3
      000000A0H   SFRSYM    DATA     BYTE      P2
      00000090H   SFRSYM    DATA     BYTE      P1
      00000080H   SFRSYM    DATA     BYTE      P0

      00FF6E40H   BLOCK     CODE     ---       LVL=0
      00000AF7H   SYMBOL    EDATA    BYTE      dat
      00FF6E44H   BLOCK     CODE     NEAR LAB  LVL=1
      00000AF8H   SYMBOL    EDATA    BYTE      i
      ---         BLOCKEND  ---      ---       LVL=1
      00FF6E40H   LINE      CODE     ---       #60
      00FF6E44H   LINE      CODE     ---       #61
      00FF6E44H   LINE      CODE     ---       #62
      00FF6E4AH   LINE      CODE     ---       #64
      00FF6E4DH   LINE      CODE     ---       #65
      00FF6E50H   LINE      CODE     ---       #66
      00FF6E53H   LINE      CODE     ---       #68
      00FF6E55H   LINE      CODE     ---       #70
      00FF6E61H   LINE      CODE     ---       #71
      00FF6E64H   LINE      CODE     ---       #72
      00FF6E67H   LINE      CODE     ---       #74
      00FF6E6AH   LINE      CODE     ---       #75
      00FF6E74H   LINE      CODE     ---       #76
      00FF6E88H   LINE      CODE     ---       #77
      00FF6E8BH   LINE      CODE     ---       #78
      ---         BLOCKEND  ---      ---       LVL=0

      00FF6E8CH   BLOCK     CODE     ---       LVL=0
      00000AF9H   SYMBOL    EDATA    BYTE      dat
      00FF6E90H   BLOCK     CODE     NEAR LAB  LVL=1
      00000AFAH   SYMBOL    EDATA    BYTE      i
      ---         BLOCKEND  ---      ---       LVL=1
L251 LINKER/LOCATER V4.66.93.0                                                        10/07/2023  14:21:18  PAGE 49


      00FF6E8CH   LINE      CODE     ---       #87
      00FF6E90H   LINE      CODE     ---       #88
      00FF6E90H   LINE      CODE     ---       #89
      00FF6E96H   LINE      CODE     ---       #91
      00FF6E99H   LINE      CODE     ---       #92
      00FF6E9CH   LINE      CODE     ---       #93
      00FF6E9FH   LINE      CODE     ---       #94
      00FF6EA1H   LINE      CODE     ---       #96
      00FF6EADH   LINE      CODE     ---       #97
      00FF6EB0H   LINE      CODE     ---       #98
      00FF6EB3H   LINE      CODE     ---       #100
      00FF6EB6H   LINE      CODE     ---       #101
      00FF6EC0H   LINE      CODE     ---       #102
      00FF6ED4H   LINE      CODE     ---       #103
      00FF6ED7H   LINE      CODE     ---       #104
      ---         BLOCKEND  ---      ---       LVL=0

      00FF6C4DH   BLOCK     CODE     ---       LVL=0
      00000ABAH   SYMBOL    EDATA    WORD      dat
      00FF6C51H   BLOCK     CODE     NEAR LAB  LVL=1
      00000ABCH   SYMBOL    EDATA    BYTE      i
      ---         BLOCKEND  ---      ---       LVL=1
      00FF6C4DH   LINE      CODE     ---       #113
      00FF6C51H   LINE      CODE     ---       #114
      00FF6C51H   LINE      CODE     ---       #115
      00FF6C57H   LINE      CODE     ---       #117
      00FF6C5AH   LINE      CODE     ---       #118
      00FF6C5DH   LINE      CODE     ---       #119
      00FF6C60H   LINE      CODE     ---       #121
      00FF6C62H   LINE      CODE     ---       #123
      00FF6C77H   LINE      CODE     ---       #124
      00FF6C7AH   LINE      CODE     ---       #125
      00FF6C7DH   LINE      CODE     ---       #127
      00FF6C80H   LINE      CODE     ---       #128
      00FF6C8AH   LINE      CODE     ---       #129
      00FF6C9EH   LINE      CODE     ---       #131
      00FF6CA1H   LINE      CODE     ---       #133
      ---         BLOCKEND  ---      ---       LVL=0

      00FF6967H   BLOCK     CODE     ---       LVL=0
      00000914H   SYMBOL    EDATA    WORD      x_start
      00000916H   SYMBOL    EDATA    WORD      y_start
      00000918H   SYMBOL    EDATA    WORD      x_end
      0000091AH   SYMBOL    EDATA    WORD      y_end
      00FF6967H   LINE      CODE     ---       #145
      00FF6977H   LINE      CODE     ---       #163
      00FF697CH   LINE      CODE     ---       #164
      00FF6980H   LINE      CODE     ---       #165
      00FF698DH   LINE      CODE     ---       #166
      00FF6991H   LINE      CODE     ---       #167
      00FF699EH   LINE      CODE     ---       #169
      00FF69A3H   LINE      CODE     ---       #170
      00FF69A7H   LINE      CODE     ---       #171
      00FF69B4H   LINE      CODE     ---       #172
      00FF69B8H   LINE      CODE     ---       #173
      00FF69C5H   LINE      CODE     ---       #177
      00FF69CAH   LINE      CODE     ---       #178
      ---         BLOCKEND  ---      ---       LVL=0
      00000A84H   SYMBOL    EDATA    INT       color
      00000A86H   SYMBOL    EDATA    BYTE      i
      00000A87H   SYMBOL    EDATA    BYTE      j
      000009B6H   SYMBOL    EDATA    WORD      x
      000009B8H   SYMBOL    EDATA    WORD      y
      000009BAH   SYMBOL    EDATA    WORD      color
      0000091CH   SYMBOL    EDATA    WORD      x
L251 LINKER/LOCATER V4.66.93.0                                                        10/07/2023  14:21:18  PAGE 50


      0000091EH   SYMBOL    EDATA    WORD      y
      00000920H   SYMBOL    EDATA    CHAR      dat
      00000921H   SYMBOL    EDATA    BYTE      i
      00000922H   SYMBOL    EDATA    BYTE      j
      00000923H   SYMBOL    EDATA    BYTE      temp
      000007D3H   SYMBOL    EDATA    WORD      x
      000007D5H   SYMBOL    EDATA    WORD      y
      000007D7H   SYMBOL    EDATA    ---       dat
      000007DBH   SYMBOL    EDATA    WORD      j
      0000082DH   SYMBOL    EDATA    WORD      x
      0000082FH   SYMBOL    EDATA    WORD      y
      00000831H   SYMBOL    EDATA    CHAR      dat
      00000832H   SYMBOL    EDATA    ---       a
      00000835H   SYMBOL    EDATA    BYTE      i
      00000836H   SYMBOL    EDATA    WORD      x
      00000838H   SYMBOL    EDATA    WORD      y
      0000083AH   SYMBOL    EDATA    BYTE      dat
      0000083BH   SYMBOL    EDATA    ---       a
      0000083EH   SYMBOL    EDATA    BYTE      i
      000006AFH   SYMBOL    EDATA    WORD      x
      000006B1H   SYMBOL    EDATA    WORD      y
      000006B3H   SYMBOL    EDATA    INT       dat
      000006B5H   SYMBOL    EDATA    ---       a
      000006BAH   SYMBOL    EDATA    BYTE      i
      000006BBH   SYMBOL    EDATA    WORD      x
      000006BDH   SYMBOL    EDATA    WORD      y
      000006BFH   SYMBOL    EDATA    WORD      dat
      000006C1H   SYMBOL    EDATA    ---       a
      000006C6H   SYMBOL    EDATA    BYTE      i
      00000421H   SYMBOL    EDATA    WORD      x
      00000423H   SYMBOL    EDATA    WORD      y
      00000425H   SYMBOL    EDATA    LONG      dat
      00000429H   SYMBOL    EDATA    BYTE      num
      0000042AH   SYMBOL    EDATA    ---       buff
      0000044CH   SYMBOL    EDATA    BYTE      length
      000002D2H   SYMBOL    EDATA    WORD      x
      000002D4H   SYMBOL    EDATA    WORD      y
      000002D6H   SYMBOL    EDATA    FLOAT     dat
      000002DAH   SYMBOL    EDATA    BYTE      num
      000002DBH   SYMBOL    EDATA    BYTE      pointnum
      000002DCH   SYMBOL    EDATA    BYTE      length
      000002DDH   SYMBOL    EDATA    ---       buff
      000002FFH   SYMBOL    EDATA    CHAR      start
      00000300H   SYMBOL    EDATA    CHAR      end
      00000301H   SYMBOL    EDATA    CHAR      point

      00FF7636H   BLOCK     CODE     ---       LVL=0
      00000B39H   SYMBOL    EDATA    BYTE      dat
      00FF7636H   LINE      CODE     ---       #607
      00FF763AH   LINE      CODE     ---       #610
      00FF763DH   LINE      CODE     ---       #611
      00FF7640H   LINE      CODE     ---       #612
      00FF7647H   LINE      CODE     ---       #613
      00FF764AH   LINE      CODE     ---       #614
      ---         BLOCKEND  ---      ---       LVL=0

      00FF764BH   BLOCK     CODE     ---       LVL=0
      00000B3AH   SYMBOL    EDATA    BYTE      dat
      00FF764BH   LINE      CODE     ---       #623
      00FF764FH   LINE      CODE     ---       #625
      00FF7652H   LINE      CODE     ---       #626
      00FF7655H   LINE      CODE     ---       #627
      00FF765CH   LINE      CODE     ---       #628
      00FF765FH   LINE      CODE     ---       #629
      ---         BLOCKEND  ---      ---       LVL=0
L251 LINKER/LOCATER V4.66.93.0                                                        10/07/2023  14:21:18  PAGE 51



      00FF7322H   BLOCK     CODE     ---       LVL=0
      00000A88H   SYMBOL    EDATA    WORD      dat
      00FF7326H   BLOCK     CODE     NEAR LAB  LVL=1
      00000A8AH   SYMBOL    EDATA    ---       dat1
      ---         BLOCKEND  ---      ---       LVL=1
      00FF7322H   LINE      CODE     ---       #638
      00FF7326H   LINE      CODE     ---       #639
      00FF7326H   LINE      CODE     ---       #642
      00FF732CH   LINE      CODE     ---       #643
      00FF7334H   LINE      CODE     ---       #645
      00FF7337H   LINE      CODE     ---       #646
      00FF733AH   LINE      CODE     ---       #647
      00FF7341H   LINE      CODE     ---       #648
      00FF7348H   LINE      CODE     ---       #649
      00FF734BH   LINE      CODE     ---       #651
      ---         BLOCKEND  ---      ---       LVL=0

      00FF69CBH   BLOCK     CODE     ---       LVL=0
      00000924H   SYMBOL    EDATA    WORD      x_start
      00000926H   SYMBOL    EDATA    WORD      y_start
      00000928H   SYMBOL    EDATA    WORD      x_end
      0000092AH   SYMBOL    EDATA    WORD      y_end
      00FF69CBH   LINE      CODE     ---       #663
      00FF69DBH   LINE      CODE     ---       #681
      00FF69E0H   LINE      CODE     ---       #682
      00FF69E4H   LINE      CODE     ---       #683
      00FF69F1H   LINE      CODE     ---       #684
      00FF69F5H   LINE      CODE     ---       #685
      00FF6A02H   LINE      CODE     ---       #687
      00FF6A07H   LINE      CODE     ---       #688
      00FF6A0BH   LINE      CODE     ---       #689
      00FF6A18H   LINE      CODE     ---       #690
      00FF6A1CH   LINE      CODE     ---       #691
      00FF6A29H   LINE      CODE     ---       #695
      00FF6A2EH   LINE      CODE     ---       #696
      ---         BLOCKEND  ---      ---       LVL=0
      00000A8CH   SYMBOL    EDATA    INT       color
      00000A8EH   SYMBOL    EDATA    BYTE      i
      00000A8FH   SYMBOL    EDATA    BYTE      j
      000009BCH   SYMBOL    EDATA    WORD      x
      000009BEH   SYMBOL    EDATA    WORD      y
      000009C0H   SYMBOL    EDATA    WORD      color
      0000092CH   SYMBOL    EDATA    WORD      x
      0000092EH   SYMBOL    EDATA    WORD      y
      00000930H   SYMBOL    EDATA    CHAR      dat
      00000931H   SYMBOL    EDATA    BYTE      i
      00000932H   SYMBOL    EDATA    BYTE      j
      00000933H   SYMBOL    EDATA    BYTE      temp
      000007DDH   SYMBOL    EDATA    WORD      x
      000007DFH   SYMBOL    EDATA    WORD      y
      000007E1H   SYMBOL    EDATA    ---       dat
      000007E5H   SYMBOL    EDATA    WORD      j
      0000083FH   SYMBOL    EDATA    WORD      x
      00000841H   SYMBOL    EDATA    WORD      y
      00000843H   SYMBOL    EDATA    CHAR      dat
      00000844H   SYMBOL    EDATA    ---       a
      00000847H   SYMBOL    EDATA    BYTE      i
      00000848H   SYMBOL    EDATA    WORD      x
      0000084AH   SYMBOL    EDATA    WORD      y
      0000084CH   SYMBOL    EDATA    BYTE      dat
      0000084DH   SYMBOL    EDATA    ---       a
      00000850H   SYMBOL    EDATA    BYTE      i
      000006C7H   SYMBOL    EDATA    WORD      x
      000006C9H   SYMBOL    EDATA    WORD      y
L251 LINKER/LOCATER V4.66.93.0                                                        10/07/2023  14:21:18  PAGE 52


      000006CBH   SYMBOL    EDATA    INT       dat
      000006CDH   SYMBOL    EDATA    ---       a
      000006D2H   SYMBOL    EDATA    BYTE      i
      000006D3H   SYMBOL    EDATA    WORD      x
      000006D5H   SYMBOL    EDATA    WORD      y
      000006D7H   SYMBOL    EDATA    WORD      dat
      000006D9H   SYMBOL    EDATA    ---       a
      000006DEH   SYMBOL    EDATA    BYTE      i
      0000044DH   SYMBOL    EDATA    WORD      x
      0000044FH   SYMBOL    EDATA    WORD      y
      00000451H   SYMBOL    EDATA    LONG      dat
      00000455H   SYMBOL    EDATA    BYTE      num
      00000456H   SYMBOL    EDATA    ---       buff
      00000478H   SYMBOL    EDATA    BYTE      length
      00000302H   SYMBOL    EDATA    WORD      x
      00000304H   SYMBOL    EDATA    WORD      y
      00000306H   SYMBOL    EDATA    FLOAT     dat
      0000030AH   SYMBOL    EDATA    BYTE      num
      0000030BH   SYMBOL    EDATA    BYTE      pointnum
      0000030CH   SYMBOL    EDATA    BYTE      length
      0000030DH   SYMBOL    EDATA    ---       buff
      0000032FH   SYMBOL    EDATA    CHAR      start
      00000330H   SYMBOL    EDATA    CHAR      end
      00000331H   SYMBOL    EDATA    CHAR      point
      000006DFH   SYMBOL    EDATA    ---       p
      000006E3H   SYMBOL    EDATA    INT       i
      000006E5H   SYMBOL    EDATA    INT       j
      000006E7H   SYMBOL    EDATA    INT       k
      000006E9H   SYMBOL    EDATA    BYTE      picH
      000006EAH   SYMBOL    EDATA    BYTE      picL

      ---         MODULE    ---      ---       SEEKFREE_BLUETOOTH_CH9141
      00FF75A2H   PUBLIC    CODE     ---       bluetooth_ch9141_uart_callback
      000000D0H   SFRSYM    DATA     BYTE      PSW
      0000009DH   SFRSYM    DATA     BYTE      IRCBAND
      00000097H   SFRSYM    DATA     BYTE      AUXR2
      000000EFH   SFRSYM    DATA     BYTE      AUXINTIF
      000000FDH   SFRSYM    DATA     BYTE      S4CON
      000000ACH   SFRSYM    DATA     BYTE      S3CON
      0000009AH   SFRSYM    DATA     BYTE      S2CON
      000000FEH   SFRSYM    DATA     BYTE      S4BUF
      000000B7H   SFRSYM    DATA     BYTE      IPH
      000000CDH   SFRSYM    DATA     BYTE      SPSTAT
      000000DDH   SFRSYM    DATA     BYTE      T4T3M
      000000C1H   SFRSYM    DATA     BYTE      WDT_CONTR
      000000DFH   SFRSYM    DATA     BYTE      IP3
      000000F4H   SFRSYM    DATA     BYTE      USBCON
      000000B5H   SFRSYM    DATA     BYTE      IP2
      000000FFH   SFRSYM    DATA     BYTE      RSTCFG
      000000F9H   SFRSYM    DATA     BYTE      LINICR
      0000008EH   SFRSYM    DATA     BYTE      AUXR
      000000AFH   SFRSYM    DATA     BYTE      IE2
      00000080H.7 SFRSYM    DATA     BIT       P07
      00000088H   SFRSYM    DATA     BYTE      TCON
      00000098H   SFRSYM    DATA     BYTE      SCON
      000000F1H   SFRSYM    DATA     BYTE      CANICR
      00000087H   SFRSYM    DATA     BYTE      PCON
      000000BCH   SFRSYM    DATA     BYTE      ADC_CONTR
      000000E7H   SFRSYM    DATA     BYTE      CMPCR2
      000000E6H   SFRSYM    DATA     BYTE      CMPCR1
      000000B8H   SFRSYM    DATA     BYTE      IP
      0000008FH   SFRSYM    DATA     BYTE      INTCLKO
      000000EEH   SFRSYM    DATA     BYTE      IP3H
      000000B6H   SFRSYM    DATA     BYTE      IP2H
      000000A8H   SFRSYM    DATA     BYTE      IE
L251 LINKER/LOCATER V4.66.93.0                                                        10/07/2023  14:21:18  PAGE 53


      000000BBH   SFRSYM    DATA     BYTE      P_SW3
      000000BAH   SFRSYM    DATA     BYTE      P_SW2
      000000A2H   SFRSYM    DATA     BYTE      P_SW1
      000000CEH   SFRSYM    DATA     BYTE      SPCTL
      000000F8H   SFRSYM    DATA     BYTE      P7
      000000E8H   SFRSYM    DATA     BYTE      P6
      000000C8H   SFRSYM    DATA     BYTE      P5
      000000C0H   SFRSYM    DATA     BYTE      P4
      000000B0H   SFRSYM    DATA     BYTE      P3
      000000A0H   SFRSYM    DATA     BYTE      P2
      00000090H   SFRSYM    DATA     BYTE      P1
      00000080H   SFRSYM    DATA     BYTE      P0
      00000185H   SYMBOL    EDATA    ---       bluetooth_ch9141_buffer
      000001C5H   SYMBOL    EDATA    BYTE      bluetooth_ch9141_data
      000001C6H   SYMBOL    EDATA    ---       bluetooth_ch9141_fifo

      00FF75A2H   BLOCK     CODE     ---       LVL=0
      00FF75A2H   LINE      CODE     ---       #67
      00FF75A2H   LINE      CODE     ---       #70
      00FF75A8H   LINE      CODE     ---       #71
      00FF75BBH   LINE      CODE     ---       #72
      ---         BLOCKEND  ---      ---       LVL=0
      000007E7H   SYMBOL    EDATA    ---       buff
      000007EBH   SYMBOL    EDATA    DWORD     len
      000007EFH   SYMBOL    EDATA    WORD      time_count
      000006EBH   SYMBOL    EDATA    ---       buff
      000006EFH   SYMBOL    EDATA    DWORD     len
      000006F3H   SYMBOL    EDATA    DWORD     data_len

      ---         MODULE    ---      ---       SEEKFREE_DL1A
      00000ABDH   PUBLIC    EDATA    WORD      dl1a_distance_mm
      00000ABFH   PUBLIC    EDATA    BYTE      dl1a_finsh_flag
      000000D0H   SFRSYM    DATA     BYTE      PSW
      0000009DH   SFRSYM    DATA     BYTE      IRCBAND
      00000097H   SFRSYM    DATA     BYTE      AUXR2
      000000EFH   SFRSYM    DATA     BYTE      AUXINTIF
      000000FDH   SFRSYM    DATA     BYTE      S4CON
      000000ACH   SFRSYM    DATA     BYTE      S3CON
      0000009AH   SFRSYM    DATA     BYTE      S2CON
      000000B7H   SFRSYM    DATA     BYTE      IPH
      000000CDH   SFRSYM    DATA     BYTE      SPSTAT
      000000DDH   SFRSYM    DATA     BYTE      T4T3M
      000000C1H   SFRSYM    DATA     BYTE      WDT_CONTR
      000000DFH   SFRSYM    DATA     BYTE      IP3
      000000F4H   SFRSYM    DATA     BYTE      USBCON
      000000B5H   SFRSYM    DATA     BYTE      IP2
      000000FFH   SFRSYM    DATA     BYTE      RSTCFG
      000000F9H   SFRSYM    DATA     BYTE      LINICR
      0000008EH   SFRSYM    DATA     BYTE      AUXR
      000000AFH   SFRSYM    DATA     BYTE      IE2
      000000C0H.7 SFRSYM    DATA     BIT       P47
      000000E8H.5 SFRSYM    DATA     BIT       P65
      000000E8H.3 SFRSYM    DATA     BIT       P63
      00000088H   SFRSYM    DATA     BYTE      TCON
      00000098H   SFRSYM    DATA     BYTE      SCON
      000000F1H   SFRSYM    DATA     BYTE      CANICR
      00000087H   SFRSYM    DATA     BYTE      PCON
      000000BCH   SFRSYM    DATA     BYTE      ADC_CONTR
      000000E7H   SFRSYM    DATA     BYTE      CMPCR2
      000000E6H   SFRSYM    DATA     BYTE      CMPCR1
      000000B8H   SFRSYM    DATA     BYTE      IP
      0000008FH   SFRSYM    DATA     BYTE      INTCLKO
      000000EEH   SFRSYM    DATA     BYTE      IP3H
      000000B6H   SFRSYM    DATA     BYTE      IP2H
      000000A8H   SFRSYM    DATA     BYTE      IE
L251 LINKER/LOCATER V4.66.93.0                                                        10/07/2023  14:21:18  PAGE 54


      000000BBH   SFRSYM    DATA     BYTE      P_SW3
      000000BAH   SFRSYM    DATA     BYTE      P_SW2
      000000A2H   SFRSYM    DATA     BYTE      P_SW1
      000000CEH   SFRSYM    DATA     BYTE      SPCTL
      000000F8H   SFRSYM    DATA     BYTE      P7
      000000E8H   SFRSYM    DATA     BYTE      P6
      000000C8H   SFRSYM    DATA     BYTE      P5
      000000C0H   SFRSYM    DATA     BYTE      P4
      000000B0H   SFRSYM    DATA     BYTE      P3
      000000A0H   SFRSYM    DATA     BYTE      P2
      00000090H   SFRSYM    DATA     BYTE      P1
      00000080H   SFRSYM    DATA     BYTE      P0
      00FF73A0H   SYMBOL    CODE     ---       dl1a_simiic_sendack
      00FF6D9EH   SYMBOL    CODE     ---       dl1a_timeout_microseconds_to_mclks
      00FF6D4BH   SYMBOL    CODE     ---       dl1a_timeout_mclks_to_microseconds
      00FF682BH   SYMBOL    CODE     ---       dl1a_read_ch
      00FF734CH   SYMBOL    CODE     ---       dl1a_decode_timeout
      00FF7007H   SYMBOL    CODE     ---       dl1a_send_ch
      00FF6574H   SYMBOL    CODE     ---       dl1a_encode_timeout
      00FF645DH   SYMBOL    CODE     ---       dl1a_get_sequence_step_enables
      00FF74A9H   SYMBOL    CODE     ---       dl1a_sccb_waitack
      00FF0026H   SYMBOL    CODE     ---       dl1a_simiic_delay
      00FF59AEH   SYMBOL    CODE     ---       dl1a_get_sequence_step_timeouts
      00FF76C8H   SYMBOL    CODE     ---       dl1a_simiic_start
      00FF68FFH   SYMBOL    CODE     ---       dl1a_simiic_read_regs
      00FF7124H   SYMBOL    CODE     ---       dl1a_simiic_write_dats
      00FF760AH   SYMBOL    CODE     ---       dl1a_simiic_stop
      00FF65F3H   SYMBOL    CODE     ---       dl1a_get_vcsel_pulse_period

      00FF0026H   BLOCK     CODE     ---       LVL=0
      00000AFBH   SYMBOL    EDATA    WORD      j
      00FF0026H   LINE      CODE     ---       #59
      00FF0026H   LINE      CODE     ---       #60
      00FF0026H   LINE      CODE     ---       #61
      00FF002CH   LINE      CODE     ---       #62
      00FF0042H   LINE      CODE     ---       #63
      ---         BLOCKEND  ---      ---       LVL=0

      00FF76C8H   BLOCK     CODE     ---       LVL=0
      00FF76C8H   LINE      CODE     ---       #66
      00FF76C8H   LINE      CODE     ---       #68
      00FF76CBH   LINE      CODE     ---       #69
      00FF76CEH   LINE      CODE     ---       #70
      00FF76D1H   LINE      CODE     ---       #71
      00FF76D4H   LINE      CODE     ---       #72
      00FF76D7H   LINE      CODE     ---       #73
      00FF76DAH   LINE      CODE     ---       #74
      ---         BLOCKEND  ---      ---       LVL=0

      00FF760AH   BLOCK     CODE     ---       LVL=0
      00FF760AH   LINE      CODE     ---       #77
      00FF760AH   LINE      CODE     ---       #79
      00FF760DH   LINE      CODE     ---       #80
      00FF7610H   LINE      CODE     ---       #81
      00FF7613H   LINE      CODE     ---       #82
      00FF7616H   LINE      CODE     ---       #83
      00FF7619H   LINE      CODE     ---       #84
      00FF761CH   LINE      CODE     ---       #85
      00FF761FH   LINE      CODE     ---       #86
      ---         BLOCKEND  ---      ---       LVL=0

      00FF73A0H   BLOCK     CODE     ---       LVL=0
      00000B3BH   SYMBOL    EDATA    BYTE      ack_dat
      00FF73A0H   LINE      CODE     ---       #90
      00FF73A4H   LINE      CODE     ---       #92
L251 LINKER/LOCATER V4.66.93.0                                                        10/07/2023  14:21:18  PAGE 55


      00FF73A7H   LINE      CODE     ---       #93
      00FF73AAH   LINE      CODE     ---       #94
      00FF73B8H   LINE      CODE     ---       #95
      00FF73BBH   LINE      CODE     ---       #97
      00FF73BEH   LINE      CODE     ---       #98
      00FF73C1H   LINE      CODE     ---       #99
      00FF73C4H   LINE      CODE     ---       #100
      00FF73C7H   LINE      CODE     ---       #101
      ---         BLOCKEND  ---      ---       LVL=0

      00FF74A9H   BLOCK     CODE     ---       LVL=0
      00FF74A9H   LINE      CODE     ---       #104
      00FF74A9H   LINE      CODE     ---       #106
      00FF74ACH   LINE      CODE     ---       #108
      00FF74AFH   LINE      CODE     ---       #110
      00FF74B2H   LINE      CODE     ---       #111
      00FF74B5H   LINE      CODE     ---       #113
      00FF74B8H   LINE      CODE     ---       #116
      00FF74BBH   LINE      CODE     ---       #117
      00FF74BFH   LINE      CODE     ---       #118
      00FF74BFH   LINE      CODE     ---       #120
      00FF74C2H   LINE      CODE     ---       #121
      00FF74C5H   LINE      CODE     ---       #122
      00FF74C9H   LINE      CODE     ---       #123
      ---         BLOCKEND  ---      ---       LVL=0

      00FF7007H   BLOCK     CODE     ---       LVL=0
      00000AFDH   SYMBOL    EDATA    BYTE      c
      00FF700BH   BLOCK     CODE     NEAR LAB  LVL=1
      00000AFEH   SYMBOL    EDATA    BYTE      i
      ---         BLOCKEND  ---      ---       LVL=1
      00FF7007H   LINE      CODE     ---       #129
      00FF700BH   LINE      CODE     ---       #130
      00FF700BH   LINE      CODE     ---       #131
      00FF7011H   LINE      CODE     ---       #132
      00FF7013H   LINE      CODE     ---       #134
      00FF701FH   LINE      CODE     ---       #135
      00FF7022H   LINE      CODE     ---       #136
      00FF702CH   LINE      CODE     ---       #137
      00FF702FH   LINE      CODE     ---       #138
      00FF7032H   LINE      CODE     ---       #139
      00FF7035H   LINE      CODE     ---       #140
      00FF7038H   LINE      CODE     ---       #141
      00FF704CH   LINE      CODE     ---       #142
      00FF704FH   LINE      CODE     ---       #143
      ---         BLOCKEND  ---      ---       LVL=0

      00FF682BH   BLOCK     CODE     ---       LVL=0
      00000AC0H   SYMBOL    EDATA    BYTE      ack_x
      00FF682FH   BLOCK     CODE     NEAR LAB  LVL=1
      00000AC1H   SYMBOL    EDATA    BYTE      i
      00000AC2H   SYMBOL    EDATA    BYTE      c
      ---         BLOCKEND  ---      ---       LVL=1
      00FF682BH   LINE      CODE     ---       #149
      00FF682FH   LINE      CODE     ---       #150
      00FF682FH   LINE      CODE     ---       #153
      00FF6834H   LINE      CODE     ---       #154
      00FF6837H   LINE      CODE     ---       #155
      00FF683AH   LINE      CODE     ---       #156
      00FF683DH   LINE      CODE     ---       #158
      00FF6844H   LINE      CODE     ---       #160
      00FF6847H   LINE      CODE     ---       #161
      00FF684AH   LINE      CODE     ---       #162
      00FF684DH   LINE      CODE     ---       #163
      00FF6850H   LINE      CODE     ---       #164
L251 LINKER/LOCATER V4.66.93.0                                                        10/07/2023  14:21:18  PAGE 56


      00FF6853H   LINE      CODE     ---       #165
      00FF685DH   LINE      CODE     ---       #166
      00FF6860H   LINE      CODE     ---       #168
      00FF686CH   LINE      CODE     ---       #169
      00FF6883H   LINE      CODE     ---       #172
      00FF6886H   LINE      CODE     ---       #173
      00FF6889H   LINE      CODE     ---       #174
      00FF6890H   LINE      CODE     ---       #176
      00FF6894H   LINE      CODE     ---       #177
      ---         BLOCKEND  ---      ---       LVL=0

      00FF7124H   BLOCK     CODE     ---       LVL=0
      00000851H   SYMBOL    EDATA    BYTE      dev_add
      00000852H   SYMBOL    EDATA    ---       dat
      00000856H   SYMBOL    EDATA    DWORD     len
      00FF7124H   LINE      CODE     ---       #189
      00FF7130H   LINE      CODE     ---       #191
      00FF7133H   LINE      CODE     ---       #192
      00FF713CH   LINE      CODE     ---       #193
      00FF713EH   LINE      CODE     ---       #195
      00FF714EH   LINE      CODE     ---       #196
      00FF7162H   LINE      CODE     ---       #199
      00FF7165H   LINE      CODE     ---       #200
      ---         BLOCKEND  ---      ---       LVL=0
      00000AC3H   SYMBOL    EDATA    BYTE      dev_add
      00000AC4H   SYMBOL    EDATA    BYTE      reg
      00000AC5H   SYMBOL    EDATA    BYTE      dat
      00000AC6H   SYMBOL    EDATA    BYTE      dev_add
      00000AC7H   SYMBOL    EDATA    BYTE      reg
      00000AC8H   SYMBOL    EDATA    BYTE      dat

      00FF68FFH   BLOCK     CODE     ---       LVL=0
      000007F1H   SYMBOL    EDATA    BYTE      dev_add
      000007F2H   SYMBOL    EDATA    BYTE      reg
      000007F3H   SYMBOL    EDATA    ---       dat_add
      000007F7H   SYMBOL    EDATA    DWORD     num
      00FF68FFH   LINE      CODE     ---       #257
      00FF690BH   LINE      CODE     ---       #259
      00FF690EH   LINE      CODE     ---       #260
      00FF6917H   LINE      CODE     ---       #261
      00FF691EH   LINE      CODE     ---       #264
      00FF6921H   LINE      CODE     ---       #265
      00FF692EH   LINE      CODE     ---       #266
      00FF6930H   LINE      CODE     ---       #268
      00FF693CH   LINE      CODE     ---       #269
      00FF6946H   LINE      CODE     ---       #270
      00FF6958H   LINE      CODE     ---       #271
      00FF6963H   LINE      CODE     ---       #272
      00FF6966H   LINE      CODE     ---       #273
      ---         BLOCKEND  ---      ---       LVL=0
      000007FBH   SYMBOL    EDATA    BYTE      dev_add
      000007FCH   SYMBOL    EDATA    BYTE      reg
      000007FDH   SYMBOL    EDATA    ---       dat_add
      00000801H   SYMBOL    EDATA    DWORD     num
      000006F7H   SYMBOL    EDATA    ---       index
      000006FBH   SYMBOL    EDATA    ---       type_is_aperture
      000006FFH   SYMBOL    EDATA    BYTE      tmp
      00000700H   SYMBOL    EDATA    BYTE      return_state
      00000701H   SYMBOL    EDATA    WORD      loop_count

      00FF6D4BH   BLOCK     CODE     ---       LVL=0
      0000097BH   SYMBOL    EDATA    WORD      timeout_period_mclks
      0000097DH   SYMBOL    EDATA    BYTE      vcsel_period_pclks
      00FF6D53H   BLOCK     CODE     NEAR LAB  LVL=1
      0000097EH   SYMBOL    EDATA    DWORD     macro_period_ns
L251 LINKER/LOCATER V4.66.93.0                                                        10/07/2023  14:21:18  PAGE 57


      ---         BLOCKEND  ---      ---       LVL=1
      00FF6D4BH   LINE      CODE     ---       #401
      00FF6D53H   LINE      CODE     ---       #402
      00FF6D53H   LINE      CODE     ---       #403
      00FF6D7AH   LINE      CODE     ---       #405
      00FF6D9DH   LINE      CODE     ---       #406
      ---         BLOCKEND  ---      ---       LVL=0

      00FF6D9EH   BLOCK     CODE     ---       LVL=0
      0000085AH   SYMBOL    EDATA    DWORD     timeout_period_us
      0000085EH   SYMBOL    EDATA    BYTE      vcsel_period_pclks
      00FF6DA6H   BLOCK     CODE     NEAR LAB  LVL=1
      0000085FH   SYMBOL    EDATA    DWORD     macro_period_ns
      ---         BLOCKEND  ---      ---       LVL=1
      00FF6D9EH   LINE      CODE     ---       #416
      00FF6DA6H   LINE      CODE     ---       #417
      00FF6DA6H   LINE      CODE     ---       #418
      00FF6DCDH   LINE      CODE     ---       #420
      00FF6DEEH   LINE      CODE     ---       #421
      ---         BLOCKEND  ---      ---       LVL=0

      00FF734CH   BLOCK     CODE     ---       LVL=0
      00000AFFH   SYMBOL    EDATA    WORD      reg_val
      00FF734CH   LINE      CODE     ---       #430
      00FF7350H   LINE      CODE     ---       #433
      00FF7375H   LINE      CODE     ---       #435
      ---         BLOCKEND  ---      ---       LVL=0

      00FF6574H   BLOCK     CODE     ---       LVL=0
      00000805H   SYMBOL    EDATA    WORD      timeout_mclks
      00FF6578H   BLOCK     CODE     NEAR LAB  LVL=1
      00000807H   SYMBOL    EDATA    DWORD     ls_byte
      0000080BH   SYMBOL    EDATA    WORD      ms_byte
      0000080DH   SYMBOL    EDATA    WORD      return_data
      ---         BLOCKEND  ---      ---       LVL=1
      00FF6574H   LINE      CODE     ---       #444
      00FF6578H   LINE      CODE     ---       #445
      00FF6578H   LINE      CODE     ---       #446
      00FF657EH   LINE      CODE     ---       #447
      00FF6584H   LINE      CODE     ---       #448
      00FF658AH   LINE      CODE     ---       #450
      00FF6594H   LINE      CODE     ---       #453
      00FF65A4H   LINE      CODE     ---       #454
      00FF65A6H   LINE      CODE     ---       #456
      00FF65B7H   LINE      CODE     ---       #457
      00FF65C5H   LINE      CODE     ---       #458
      00FF65D6H   LINE      CODE     ---       #459
      00FF65EEH   LINE      CODE     ---       #460
      00FF65EEH   LINE      CODE     ---       #461
      00FF65F2H   LINE      CODE     ---       #462
      ---         BLOCKEND  ---      ---       LVL=0

      00FF645DH   BLOCK     CODE     ---       LVL=0
      00000A3FH   SYMBOL    EDATA    ---       enables
      00FF6461H   BLOCK     CODE     NEAR LAB  LVL=1
      00000A43H   SYMBOL    EDATA    BYTE      sequence_config
      ---         BLOCKEND  ---      ---       LVL=1
      00FF645DH   LINE      CODE     ---       #471
      00FF6461H   LINE      CODE     ---       #472
      00FF6461H   LINE      CODE     ---       #473
      00FF6466H   LINE      CODE     ---       #474
      00FF647AH   LINE      CODE     ---       #476
      00FF648EH   LINE      CODE     ---       #477
      00FF64A5H   LINE      CODE     ---       #478
      00FF64BBH   LINE      CODE     ---       #479
L251 LINKER/LOCATER V4.66.93.0                                                        10/07/2023  14:21:18  PAGE 58


      00FF64D4H   LINE      CODE     ---       #480
      00FF64EAH   LINE      CODE     ---       #481
      ---         BLOCKEND  ---      ---       LVL=0

      00FF65F3H   BLOCK     CODE     ---       LVL=0
      00000AC9H   SYMBOL    EDATA    INT       type
      00FF65F7H   BLOCK     CODE     NEAR LAB  LVL=1
      00000ACBH   SYMBOL    EDATA    BYTE      data_buffer
      ---         BLOCKEND  ---      ---       LVL=1
      00FF65F3H   LINE      CODE     ---       #490
      00FF65F7H   LINE      CODE     ---       #491
      00FF65F7H   LINE      CODE     ---       #492
      00FF65FCH   LINE      CODE     ---       #493
      00FF6606H   LINE      CODE     ---       #495
      00FF661AH   LINE      CODE     ---       #496
      00FF662CH   LINE      CODE     ---       #497
      00FF662EH   LINE      CODE     ---       #498
      00FF663AH   LINE      CODE     ---       #500
      00FF664EH   LINE      CODE     ---       #501
      00FF6660H   LINE      CODE     ---       #502
      00FF6662H   LINE      CODE     ---       #505
      00FF6668H   LINE      CODE     ---       #506
      00FF6668H   LINE      CODE     ---       #507
      00FF666CH   LINE      CODE     ---       #508
      ---         BLOCKEND  ---      ---       LVL=0

      00FF59AEH   BLOCK     CODE     ---       LVL=0
      00000703H   SYMBOL    EDATA    ---       enables
      00000707H   SYMBOL    EDATA    ---       timeouts
      00FF59B6H   BLOCK     CODE     NEAR LAB  LVL=1
      0000070BH   SYMBOL    EDATA    ---       reg_buffer
      0000070DH   SYMBOL    EDATA    WORD      reg16_buffer
      ---         BLOCKEND  ---      ---       LVL=1
      00FF59AEH   LINE      CODE     ---       #518
      00FF59B6H   LINE      CODE     ---       #519
      00FF59B6H   LINE      CODE     ---       #521
      00FF59BCH   LINE      CODE     ---       #523
      00FF59CAH   LINE      CODE     ---       #525
      00FF59DEH   LINE      CODE     ---       #526
      00FF59F3H   LINE      CODE     ---       #527
      00FF5A17H   LINE      CODE     ---       #529
      00FF5A2BH   LINE      CODE     ---       #530
      00FF5A41H   LINE      CODE     ---       #531
      00FF5A51H   LINE      CODE     ---       #532
      00FF5A77H   LINE      CODE     ---       #534
      00FF5A89H   LINE      CODE     ---       #536
      00FF5A9DH   LINE      CODE     ---       #537
      00FF5AB3H   LINE      CODE     ---       #538
      00FF5AC3H   LINE      CODE     ---       #540
      00FF5AD3H   LINE      CODE     ---       #542
      00FF5AEEH   LINE      CODE     ---       #543
      00FF5AEEH   LINE      CODE     ---       #545
      00FF5B16H   LINE      CODE     ---       #546
      ---         BLOCKEND  ---      ---       LVL=0
      00000A44H   SYMBOL    EDATA    BYTE      vhv_init_byte
      00000A45H   SYMBOL    EDATA    BYTE      return_state
      00000A46H   SYMBOL    EDATA    BYTE      data_buffer
      00000A47H   SYMBOL    EDATA    WORD      loop_count
      000003F2H   SYMBOL    EDATA    DWORD     budget_us
      000003F6H   SYMBOL    EDATA    BYTE      return_state
      000003F7H   SYMBOL    EDATA    ---       data_buffer
      000003FAH   SYMBOL    EDATA    WORD      dat
      000003FCH   SYMBOL    EDATA    DWORD     used_budget_us
      00000400H   SYMBOL    EDATA    DWORD     final_range_timeout_us
      00000404H   SYMBOL    EDATA    WORD      final_range_timeout_mclks
L251 LINKER/LOCATER V4.66.93.0                                                        10/07/2023  14:21:18  PAGE 59


      00000406H   SYMBOL    EDATA    ---       enables
      0000040BH   SYMBOL    EDATA    ---       timeouts
      00000549H   SYMBOL    EDATA    ---       enables
      0000054EH   SYMBOL    EDATA    ---       timeouts
      00000564H   SYMBOL    EDATA    DWORD     budget_us
      00000863H   SYMBOL    EDATA    FLOAT     limit_mcps
      00000867H   SYMBOL    EDATA    ---       data_buffer
      0000086AH   SYMBOL    EDATA    WORD      limit_mcps_16bit
      00000ACCH   SYMBOL    EDATA    ---       reg_databuffer
      00000568H   SYMBOL    EDATA    DWORD     measurement_timing_budget_us
      0000056CH   SYMBOL    EDATA    BYTE      stop_variable
      0000056DH   SYMBOL    EDATA    BYTE      return_state
      0000056EH   SYMBOL    EDATA    BYTE      reg_data_buffer
      0000056FH   SYMBOL    EDATA    ---       ref_spad_map
      00000575H   SYMBOL    EDATA    ---       data_buffer
      0000057CH   SYMBOL    EDATA    BYTE      i

      ---         MODULE    ---      ---       SEEKFREE_DL1B
      00000A90H   PUBLIC    EDATA    WORD      dl1b_distance_mm
      00000A92H   PUBLIC    EDATA    BYTE      dl1b_finsh_flag
      00000A93H   PUBLIC    EDATA    BYTE      dl1b_init_flag
      00000626H   PUBLIC    EDATA    BYTE      ?dl1b_iic_transfer_8bit_array?BYTE
      000000D0H   SFRSYM    DATA     BYTE      PSW
      0000009DH   SFRSYM    DATA     BYTE      IRCBAND
      00000097H   SFRSYM    DATA     BYTE      AUXR2
      000000EFH   SFRSYM    DATA     BYTE      AUXINTIF
      000000FDH   SFRSYM    DATA     BYTE      S4CON
      000000ACH   SFRSYM    DATA     BYTE      S3CON
      0000009AH   SFRSYM    DATA     BYTE      S2CON
      000000B7H   SFRSYM    DATA     BYTE      IPH
      000000CDH   SFRSYM    DATA     BYTE      SPSTAT
      000000DDH   SFRSYM    DATA     BYTE      T4T3M
      000000C1H   SFRSYM    DATA     BYTE      WDT_CONTR
      000000DFH   SFRSYM    DATA     BYTE      IP3
      000000F4H   SFRSYM    DATA     BYTE      USBCON
      000000B5H   SFRSYM    DATA     BYTE      IP2
      000000FFH   SFRSYM    DATA     BYTE      RSTCFG
      000000F9H   SFRSYM    DATA     BYTE      LINICR
      0000008EH   SFRSYM    DATA     BYTE      AUXR
      000000AFH   SFRSYM    DATA     BYTE      IE2
      000000C0H.7 SFRSYM    DATA     BIT       P47
      000000E8H.5 SFRSYM    DATA     BIT       P65
      000000E8H.3 SFRSYM    DATA     BIT       P63
      00000088H   SFRSYM    DATA     BYTE      TCON
      00000098H   SFRSYM    DATA     BYTE      SCON
      000000F1H   SFRSYM    DATA     BYTE      CANICR
      00000087H   SFRSYM    DATA     BYTE      PCON
      000000BCH   SFRSYM    DATA     BYTE      ADC_CONTR
      000000E7H   SFRSYM    DATA     BYTE      CMPCR2
      000000E6H   SFRSYM    DATA     BYTE      CMPCR1
      000000B8H   SFRSYM    DATA     BYTE      IP
      0000008FH   SFRSYM    DATA     BYTE      INTCLKO
      000000EEH   SFRSYM    DATA     BYTE      IP3H
      000000B6H   SFRSYM    DATA     BYTE      IP2H
      000000A8H   SFRSYM    DATA     BYTE      IE
      000000BBH   SFRSYM    DATA     BYTE      P_SW3
      000000BAH   SFRSYM    DATA     BYTE      P_SW2
      000000A2H   SFRSYM    DATA     BYTE      P_SW1
      000000CEH   SFRSYM    DATA     BYTE      SPCTL
      000000F8H   SFRSYM    DATA     BYTE      P7
      000000E8H   SFRSYM    DATA     BYTE      P6
      000000C8H   SFRSYM    DATA     BYTE      P5
      000000C0H   SFRSYM    DATA     BYTE      P4
      000000B0H   SFRSYM    DATA     BYTE      P3
      000000A0H   SFRSYM    DATA     BYTE      P2
L251 LINKER/LOCATER V4.66.93.0                                                        10/07/2023  14:21:18  PAGE 60


      00000090H   SFRSYM    DATA     BYTE      P1
      00000080H   SFRSYM    DATA     BYTE      P0
      00FF73C8H   SYMBOL    CODE     ---       dl1b_simiic_sendack
      00FF6895H   SYMBOL    CODE     ---       dl1b_read_ch
      00FF7050H   SYMBOL    CODE     ---       dl1b_send_ch
      00FF74CAH   SYMBOL    CODE     ---       dl1b_sccb_waitack
      00FF0066H   SYMBOL    CODE     ---       dl1b_simiic_delay

      00FF0066H   BLOCK     CODE     ---       LVL=0
      00000B01H   SYMBOL    EDATA    WORD      j
      00FF0066H   LINE      CODE     ---       #76
      00FF0066H   LINE      CODE     ---       #77
      00FF0066H   LINE      CODE     ---       #78
      00FF006CH   LINE      CODE     ---       #79
      00FF0082H   LINE      CODE     ---       #80
      ---         BLOCKEND  ---      ---       LVL=0

      00FF73C8H   BLOCK     CODE     ---       LVL=0
      00000B3CH   SYMBOL    EDATA    BYTE      ack_dat
      00FF73C8H   LINE      CODE     ---       #107
      00FF73CCH   LINE      CODE     ---       #109
      00FF73CFH   LINE      CODE     ---       #110
      00FF73D2H   LINE      CODE     ---       #111
      00FF73E0H   LINE      CODE     ---       #112
      00FF73E3H   LINE      CODE     ---       #114
      00FF73E6H   LINE      CODE     ---       #115
      00FF73E9H   LINE      CODE     ---       #116
      00FF73ECH   LINE      CODE     ---       #117
      00FF73EFH   LINE      CODE     ---       #118
      ---         BLOCKEND  ---      ---       LVL=0

      00FF74CAH   BLOCK     CODE     ---       LVL=0
      00FF74CAH   LINE      CODE     ---       #121
      00FF74CAH   LINE      CODE     ---       #123
      00FF74CDH   LINE      CODE     ---       #125
      00FF74D0H   LINE      CODE     ---       #127
      00FF74D3H   LINE      CODE     ---       #128
      00FF74D6H   LINE      CODE     ---       #130
      00FF74D9H   LINE      CODE     ---       #133
      00FF74DCH   LINE      CODE     ---       #134
      00FF74E0H   LINE      CODE     ---       #135
      00FF74E0H   LINE      CODE     ---       #137
      00FF74E3H   LINE      CODE     ---       #138
      00FF74E6H   LINE      CODE     ---       #139
      00FF74EAH   LINE      CODE     ---       #140
      ---         BLOCKEND  ---      ---       LVL=0

      00FF7050H   BLOCK     CODE     ---       LVL=0
      00000B03H   SYMBOL    EDATA    BYTE      c
      00FF7054H   BLOCK     CODE     NEAR LAB  LVL=1
      00000B04H   SYMBOL    EDATA    BYTE      i
      ---         BLOCKEND  ---      ---       LVL=1
      00FF7050H   LINE      CODE     ---       #146
      00FF7054H   LINE      CODE     ---       #147
      00FF7054H   LINE      CODE     ---       #148
      00FF705AH   LINE      CODE     ---       #149
      00FF705CH   LINE      CODE     ---       #151
      00FF7068H   LINE      CODE     ---       #152
      00FF706BH   LINE      CODE     ---       #153
      00FF7075H   LINE      CODE     ---       #154
      00FF7078H   LINE      CODE     ---       #155
      00FF707BH   LINE      CODE     ---       #156
      00FF707EH   LINE      CODE     ---       #157
      00FF7081H   LINE      CODE     ---       #158
      00FF7095H   LINE      CODE     ---       #159
L251 LINKER/LOCATER V4.66.93.0                                                        10/07/2023  14:21:18  PAGE 61


      00FF7098H   LINE      CODE     ---       #160
      ---         BLOCKEND  ---      ---       LVL=0

      00FF6895H   BLOCK     CODE     ---       LVL=0
      00000ACFH   SYMBOL    EDATA    BYTE      ack_x
      00FF6899H   BLOCK     CODE     NEAR LAB  LVL=1
      00000AD0H   SYMBOL    EDATA    BYTE      i
      00000AD1H   SYMBOL    EDATA    BYTE      c
      ---         BLOCKEND  ---      ---       LVL=1
      00FF6895H   LINE      CODE     ---       #166
      00FF6899H   LINE      CODE     ---       #167
      00FF6899H   LINE      CODE     ---       #170
      00FF689EH   LINE      CODE     ---       #171
      00FF68A1H   LINE      CODE     ---       #172
      00FF68A4H   LINE      CODE     ---       #173
      00FF68A7H   LINE      CODE     ---       #175
      00FF68AEH   LINE      CODE     ---       #177
      00FF68B1H   LINE      CODE     ---       #178
      00FF68B4H   LINE      CODE     ---       #179
      00FF68B7H   LINE      CODE     ---       #180
      00FF68BAH   LINE      CODE     ---       #181
      00FF68BDH   LINE      CODE     ---       #182
      00FF68C7H   LINE      CODE     ---       #183
      00FF68CAH   LINE      CODE     ---       #185
      00FF68D6H   LINE      CODE     ---       #186
      00FF68EDH   LINE      CODE     ---       #189
      00FF68F0H   LINE      CODE     ---       #190
      00FF68F3H   LINE      CODE     ---       #191
      00FF68FAH   LINE      CODE     ---       #193
      00FF68FEH   LINE      CODE     ---       #194
      ---         BLOCKEND  ---      ---       LVL=0
      00000626H   SYMBOL    EDATA    ---       write_data
      0000062AH   SYMBOL    EDATA    DWORD     write_len
      0000062EH   SYMBOL    EDATA    ---       read_data
      00000632H   SYMBOL    EDATA    DWORD     read_len
      00000A49H   SYMBOL    EDATA    ---       data_buffer
      00000A4CH   SYMBOL    EDATA    INT       dl1b_distance_temp
      0000009AH   SYMBOL    EDATA    BYTE      return_state
      0000009BH   SYMBOL    EDATA    ---       data_buffer
      00000124H   SYMBOL    EDATA    WORD      time_out_count

      ---         MODULE    ---      ---       SEEKFREE_FONT
      00FF212DH   PUBLIC    CODE     ---       oled_8x16
      00FF271DH   PUBLIC    CODE     ---       tft_ascii
      00FF2D0DH   PUBLIC    CODE     ---       oled_6x8
      000000D0H   SFRSYM    DATA     BYTE      PSW
      0000009DH   SFRSYM    DATA     BYTE      IRCBAND
      00000097H   SFRSYM    DATA     BYTE      AUXR2
      000000EFH   SFRSYM    DATA     BYTE      AUXINTIF
      000000FDH   SFRSYM    DATA     BYTE      S4CON
      000000ACH   SFRSYM    DATA     BYTE      S3CON
      0000009AH   SFRSYM    DATA     BYTE      S2CON
      000000B7H   SFRSYM    DATA     BYTE      IPH
      000000CDH   SFRSYM    DATA     BYTE      SPSTAT
      000000DDH   SFRSYM    DATA     BYTE      T4T3M
      000000C1H   SFRSYM    DATA     BYTE      WDT_CONTR
      000000DFH   SFRSYM    DATA     BYTE      IP3
      000000F4H   SFRSYM    DATA     BYTE      USBCON
      000000B5H   SFRSYM    DATA     BYTE      IP2
      000000FFH   SFRSYM    DATA     BYTE      RSTCFG
      000000F9H   SFRSYM    DATA     BYTE      LINICR
      0000008EH   SFRSYM    DATA     BYTE      AUXR
      000000AFH   SFRSYM    DATA     BYTE      IE2
      00000088H   SFRSYM    DATA     BYTE      TCON
      00000098H   SFRSYM    DATA     BYTE      SCON
L251 LINKER/LOCATER V4.66.93.0                                                        10/07/2023  14:21:18  PAGE 62


      000000F1H   SFRSYM    DATA     BYTE      CANICR
      00000087H   SFRSYM    DATA     BYTE      PCON
      000000BCH   SFRSYM    DATA     BYTE      ADC_CONTR
      000000E7H   SFRSYM    DATA     BYTE      CMPCR2
      000000E6H   SFRSYM    DATA     BYTE      CMPCR1
      000000B8H   SFRSYM    DATA     BYTE      IP
      0000008FH   SFRSYM    DATA     BYTE      INTCLKO
      000000EEH   SFRSYM    DATA     BYTE      IP3H
      000000B6H   SFRSYM    DATA     BYTE      IP2H
      000000A8H   SFRSYM    DATA     BYTE      IE
      000000BBH   SFRSYM    DATA     BYTE      P_SW3
      000000BAH   SFRSYM    DATA     BYTE      P_SW2
      000000A2H   SFRSYM    DATA     BYTE      P_SW1
      000000CEH   SFRSYM    DATA     BYTE      SPCTL
      000000F8H   SFRSYM    DATA     BYTE      P7
      000000E8H   SFRSYM    DATA     BYTE      P6
      000000C8H   SFRSYM    DATA     BYTE      P5
      000000C0H   SFRSYM    DATA     BYTE      P4
      000000B0H   SFRSYM    DATA     BYTE      P3
      000000A0H   SFRSYM    DATA     BYTE      P2
      00000090H   SFRSYM    DATA     BYTE      P1
      00000080H   SFRSYM    DATA     BYTE      P0

      ---         MODULE    ---      ---       SEEKFREE_ICM20602
      0000070FH   PUBLIC    EDATA    INT       icm20602_acc_x
      00000711H   PUBLIC    EDATA    INT       icm20602_acc_y
      00000713H   PUBLIC    EDATA    INT       icm20602_acc_z
      00000715H   PUBLIC    EDATA    INT       icm20602_gyro_x
      00000717H   PUBLIC    EDATA    INT       icm20602_gyro_y
      00000719H   PUBLIC    EDATA    INT       icm20602_gyro_z
      000000D0H   SFRSYM    DATA     BYTE      PSW
      0000009DH   SFRSYM    DATA     BYTE      IRCBAND
      00000097H   SFRSYM    DATA     BYTE      AUXR2
      000000EFH   SFRSYM    DATA     BYTE      AUXINTIF
      000000FDH   SFRSYM    DATA     BYTE      S4CON
      000000ACH   SFRSYM    DATA     BYTE      S3CON
      0000009AH   SFRSYM    DATA     BYTE      S2CON
      000000B7H   SFRSYM    DATA     BYTE      IPH
      000000CDH   SFRSYM    DATA     BYTE      SPSTAT
      000000DDH   SFRSYM    DATA     BYTE      T4T3M
      000000C1H   SFRSYM    DATA     BYTE      WDT_CONTR
      000000DFH   SFRSYM    DATA     BYTE      IP3
      000000F4H   SFRSYM    DATA     BYTE      USBCON
      000000B5H   SFRSYM    DATA     BYTE      IP2
      000000FFH   SFRSYM    DATA     BYTE      RSTCFG
      000000F9H   SFRSYM    DATA     BYTE      LINICR
      0000008EH   SFRSYM    DATA     BYTE      AUXR
      000000AFH   SFRSYM    DATA     BYTE      IE2
      000000C0H.3 SFRSYM    DATA     BIT       P43
      000000C0H.2 SFRSYM    DATA     BIT       P42
      00000088H   SFRSYM    DATA     BYTE      TCON
      000000C0H.1 SFRSYM    DATA     BIT       P41
      00000098H   SFRSYM    DATA     BYTE      SCON
      000000C0H.0 SFRSYM    DATA     BIT       P40
      000000F1H   SFRSYM    DATA     BYTE      CANICR
      00000087H   SFRSYM    DATA     BYTE      PCON
      000000BCH   SFRSYM    DATA     BYTE      ADC_CONTR
      000000E7H   SFRSYM    DATA     BYTE      CMPCR2
      000000E6H   SFRSYM    DATA     BYTE      CMPCR1
      000000B8H   SFRSYM    DATA     BYTE      IP
      0000008FH   SFRSYM    DATA     BYTE      INTCLKO
      000000EEH   SFRSYM    DATA     BYTE      IP3H
      000000B6H   SFRSYM    DATA     BYTE      IP2H
      000000A8H   SFRSYM    DATA     BYTE      IE
      000000BBH   SFRSYM    DATA     BYTE      P_SW3
L251 LINKER/LOCATER V4.66.93.0                                                        10/07/2023  14:21:18  PAGE 63


      000000BAH   SFRSYM    DATA     BYTE      P_SW2
      000000A2H   SFRSYM    DATA     BYTE      P_SW1
      000000CEH   SFRSYM    DATA     BYTE      SPCTL
      000000F8H   SFRSYM    DATA     BYTE      P7
      000000E8H   SFRSYM    DATA     BYTE      P6
      000000C8H   SFRSYM    DATA     BYTE      P5
      000000C0H   SFRSYM    DATA     BYTE      P4
      000000B0H   SFRSYM    DATA     BYTE      P3
      000000A0H   SFRSYM    DATA     BYTE      P2
      00000090H   SFRSYM    DATA     BYTE      P1
      00000080H   SFRSYM    DATA     BYTE      P0
      00FF752BH   SYMBOL    CODE     ---       icm20602_read_register
      00FF6AECH   SYMBOL    CODE     ---       icm20602_simspi_wr_byte
      00FF6DEFH   SYMBOL    CODE     ---       icm20602_simspi_r_reg_bytes
      00FF7418H   SYMBOL    CODE     ---       icm20602_simspi_r_reg_byte

      00FF6AECH   BLOCK     CODE     ---       LVL=0
      00000B05H   SYMBOL    EDATA    BYTE      byte
      00FF6AF0H   BLOCK     CODE     NEAR LAB  LVL=1
      00000B06H   SYMBOL    EDATA    BYTE      i
      ---         BLOCKEND  ---      ---       LVL=1
      00FF6AECH   LINE      CODE     ---       #278
      00FF6AF0H   LINE      CODE     ---       #279
      00FF6AF0H   LINE      CODE     ---       #282
      00FF6AF7H   LINE      CODE     ---       #284
      00FF6B05H   LINE      CODE     ---       #285
      00FF6B0FH   LINE      CODE     ---       #286
      00FF6B12H   LINE      CODE     ---       #287
      00FF6B15H   LINE      CODE     ---       #289
      00FF6B18H   LINE      CODE     ---       #290
      00FF6B1BH   LINE      CODE     ---       #291
      00FF6B29H   LINE      CODE     ---       #292
      00FF6B40H   LINE      CODE     ---       #293
      00FF6B44H   LINE      CODE     ---       #294
      ---         BLOCKEND  ---      ---       LVL=0
      00000B07H   SYMBOL    EDATA    BYTE      cmd
      00000B08H   SYMBOL    EDATA    BYTE      val

      00FF7418H   BLOCK     CODE     ---       LVL=0
      00000A4EH   SYMBOL    EDATA    BYTE      cmd
      00000A4FH   SYMBOL    EDATA    ---       val
      00FF7418H   LINE      CODE     ---       #340
      00FF7420H   LINE      CODE     ---       #343
      00FF742CH   LINE      CODE     ---       #344
      00FF7433H   LINE      CODE     ---       #345
      00FF743EH   LINE      CODE     ---       #347
      ---         BLOCKEND  ---      ---       LVL=0

      00FF6DEFH   BLOCK     CODE     ---       LVL=0
      0000067CH   SYMBOL    EDATA    BYTE      cmd
      0000067DH   SYMBOL    EDATA    ---       val
      00000681H   SYMBOL    EDATA    DWORD     num
      00FF6DFBH   BLOCK     CODE     NEAR LAB  LVL=1
      00000685H   SYMBOL    EDATA    DWORD     i
      ---         BLOCKEND  ---      ---       LVL=1
      00FF6DEFH   LINE      CODE     ---       #357
      00FF6DFBH   LINE      CODE     ---       #358
      00FF6DFBH   LINE      CODE     ---       #359
      00FF6E01H   LINE      CODE     ---       #360
      00FF6E0DH   LINE      CODE     ---       #361
      00FF6E14H   LINE      CODE     ---       #363
      00FF6E16H   LINE      CODE     ---       #365
      00FF6E2BH   LINE      CODE     ---       #366
      00FF6E3FH   LINE      CODE     ---       #367
      ---         BLOCKEND  ---      ---       LVL=0
L251 LINKER/LOCATER V4.66.93.0                                                        10/07/2023  14:21:18  PAGE 64


      00000B09H   SYMBOL    EDATA    BYTE      reg
      00000B0AH   SYMBOL    EDATA    BYTE      dat

      00FF752BH   BLOCK     CODE     ---       LVL=0
      00000B0BH   SYMBOL    EDATA    BYTE      reg
      00FF752FH   BLOCK     CODE     NEAR LAB  LVL=1
      00000B0CH   SYMBOL    EDATA    BYTE      dat
      ---         BLOCKEND  ---      ---       LVL=1
      00FF752BH   LINE      CODE     ---       #407
      00FF752FH   LINE      CODE     ---       #408
      00FF752FH   LINE      CODE     ---       #410
      00FF7532H   LINE      CODE     ---       #411
      00FF7541H   LINE      CODE     ---       #412
      00FF7544H   LINE      CODE     ---       #413
      00FF7548H   LINE      CODE     ---       #414
      ---         BLOCKEND  ---      ---       LVL=0
      0000086CH   SYMBOL    EDATA    BYTE      reg
      0000086DH   SYMBOL    EDATA    ---       dat
      00000871H   SYMBOL    EDATA    DWORD     len
      00000A94H   SYMBOL    EDATA    BYTE      dat
      00000A95H   SYMBOL    EDATA    BYTE      return_state
      00000A96H   SYMBOL    EDATA    WORD      timeout_count
      000009C2H   SYMBOL    EDATA    ---       dat
      000009C8H   SYMBOL    EDATA    ---       dat
      000009CEH   SYMBOL    EDATA    INT       acc_value
      000009D0H   SYMBOL    EDATA    FLOAT     acc_data
      000009D4H   SYMBOL    EDATA    INT       gyro_value
      000009D6H   SYMBOL    EDATA    FLOAT     gyro_data
      00000A98H   SYMBOL    EDATA    BYTE      val
      00000A99H   SYMBOL    EDATA    BYTE      return_state
      00000A9AH   SYMBOL    EDATA    WORD      timeout_count

      ---         MODULE    ---      ---       SEEKFREE_IMU660RA
      0000071BH   PUBLIC    EDATA    INT       imu660ra_acc_x
      0000071DH   PUBLIC    EDATA    INT       imu660ra_acc_y
      0000071FH   PUBLIC    EDATA    INT       imu660ra_acc_z
      00000721H   PUBLIC    EDATA    INT       imu660ra_gyro_x
      00000723H   PUBLIC    EDATA    INT       imu660ra_gyro_y
      00000725H   PUBLIC    EDATA    INT       imu660ra_gyro_z
      000000D0H   SFRSYM    DATA     BYTE      PSW
      0000009DH   SFRSYM    DATA     BYTE      IRCBAND
      00000097H   SFRSYM    DATA     BYTE      AUXR2
      000000EFH   SFRSYM    DATA     BYTE      AUXINTIF
      000000FDH   SFRSYM    DATA     BYTE      S4CON
      000000ACH   SFRSYM    DATA     BYTE      S3CON
      0000009AH   SFRSYM    DATA     BYTE      S2CON
      000000B7H   SFRSYM    DATA     BYTE      IPH
      000000CDH   SFRSYM    DATA     BYTE      SPSTAT
      000000DDH   SFRSYM    DATA     BYTE      T4T3M
      000000C1H   SFRSYM    DATA     BYTE      WDT_CONTR
      000000DFH   SFRSYM    DATA     BYTE      IP3
      000000F4H   SFRSYM    DATA     BYTE      USBCON
      000000B5H   SFRSYM    DATA     BYTE      IP2
      000000FFH   SFRSYM    DATA     BYTE      RSTCFG
      000000F9H   SFRSYM    DATA     BYTE      LINICR
      0000008EH   SFRSYM    DATA     BYTE      AUXR
      000000AFH   SFRSYM    DATA     BYTE      IE2
      000000C0H.3 SFRSYM    DATA     BIT       P43
      000000C0H.2 SFRSYM    DATA     BIT       P42
      00000088H   SFRSYM    DATA     BYTE      TCON
      000000C0H.1 SFRSYM    DATA     BIT       P41
      00000098H   SFRSYM    DATA     BYTE      SCON
      000000C0H.0 SFRSYM    DATA     BIT       P40
      000000F1H   SFRSYM    DATA     BYTE      CANICR
      00000087H   SFRSYM    DATA     BYTE      PCON
L251 LINKER/LOCATER V4.66.93.0                                                        10/07/2023  14:21:18  PAGE 65


      000000BCH   SFRSYM    DATA     BYTE      ADC_CONTR
      000000E7H   SFRSYM    DATA     BYTE      CMPCR2
      000000E6H   SFRSYM    DATA     BYTE      CMPCR1
      000000B8H   SFRSYM    DATA     BYTE      IP
      0000008FH   SFRSYM    DATA     BYTE      INTCLKO
      000000EEH   SFRSYM    DATA     BYTE      IP3H
      000000B6H   SFRSYM    DATA     BYTE      IP2H
      000000A8H   SFRSYM    DATA     BYTE      IE
      000000BBH   SFRSYM    DATA     BYTE      P_SW3
      000000BAH   SFRSYM    DATA     BYTE      P_SW2
      000000A2H   SFRSYM    DATA     BYTE      P_SW1
      000000CEH   SFRSYM    DATA     BYTE      SPCTL
      000000F8H   SFRSYM    DATA     BYTE      P7
      000000E8H   SFRSYM    DATA     BYTE      P6
      000000C8H   SFRSYM    DATA     BYTE      P5
      000000C0H   SFRSYM    DATA     BYTE      P4
      000000B0H   SFRSYM    DATA     BYTE      P3
      000000A0H   SFRSYM    DATA     BYTE      P2
      00000090H   SFRSYM    DATA     BYTE      P1
      00000080H   SFRSYM    DATA     BYTE      P0
      00FF7487H   SYMBOL    CODE     ---       imu660ra_read_register
      00FF6B45H   SYMBOL    CODE     ---       imu660ra_simspi_wr_byte
      00FF6FBCH   SYMBOL    CODE     ---       imu660ra_simspi_r_reg_bytes

      00FF6B45H   BLOCK     CODE     ---       LVL=0
      00000B0DH   SYMBOL    EDATA    BYTE      byte
      00FF6B49H   BLOCK     CODE     NEAR LAB  LVL=1
      00000B0EH   SYMBOL    EDATA    BYTE      i
      ---         BLOCKEND  ---      ---       LVL=1
      00FF6B45H   LINE      CODE     ---       #309
      00FF6B49H   LINE      CODE     ---       #310
      00FF6B49H   LINE      CODE     ---       #313
      00FF6B50H   LINE      CODE     ---       #315
      00FF6B5EH   LINE      CODE     ---       #316
      00FF6B68H   LINE      CODE     ---       #317
      00FF6B6BH   LINE      CODE     ---       #318
      00FF6B6EH   LINE      CODE     ---       #319
      00FF6B71H   LINE      CODE     ---       #320
      00FF6B74H   LINE      CODE     ---       #322
      00FF6B82H   LINE      CODE     ---       #323
      00FF6B99H   LINE      CODE     ---       #324
      00FF6B9DH   LINE      CODE     ---       #325
      ---         BLOCKEND  ---      ---       LVL=0
      00000B0FH   SYMBOL    EDATA    BYTE      cmd
      00000B10H   SYMBOL    EDATA    BYTE      val
      00000875H   SYMBOL    EDATA    BYTE      cmd
      00000876H   SYMBOL    EDATA    ---       dat_addr
      0000087AH   SYMBOL    EDATA    DWORD     len

      00FF6FBCH   BLOCK     CODE     ---       LVL=0
      0000087EH   SYMBOL    EDATA    BYTE      cmd
      0000087FH   SYMBOL    EDATA    ---       val
      00000883H   SYMBOL    EDATA    DWORD     num
      00FF6FBCH   LINE      CODE     ---       #382
      00FF6FC8H   LINE      CODE     ---       #384
      00FF6FD4H   LINE      CODE     ---       #385
      00FF6FDBH   LINE      CODE     ---       #387
      00FF6FDDH   LINE      CODE     ---       #389
      00FF6FF2H   LINE      CODE     ---       #390
      00FF7006H   LINE      CODE     ---       #391
      ---         BLOCKEND  ---      ---       LVL=0
      00000B11H   SYMBOL    EDATA    BYTE      reg
      00000B12H   SYMBOL    EDATA    BYTE      dat
      00000887H   SYMBOL    EDATA    BYTE      reg
      00000888H   SYMBOL    EDATA    ---       dat
L251 LINKER/LOCATER V4.66.93.0                                                        10/07/2023  14:21:18  PAGE 66


      0000088CH   SYMBOL    EDATA    DWORD     len

      00FF7487H   BLOCK     CODE     ---       LVL=0
      00000AD2H   SYMBOL    EDATA    BYTE      reg
      00FF748BH   BLOCK     CODE     NEAR LAB  LVL=1
      00000AD3H   SYMBOL    EDATA    ---       dat
      ---         BLOCKEND  ---      ---       LVL=1
      00FF7487H   LINE      CODE     ---       #432
      00FF748BH   LINE      CODE     ---       #433
      00FF748BH   LINE      CODE     ---       #435
      00FF748EH   LINE      CODE     ---       #436
      00FF74A1H   LINE      CODE     ---       #437
      00FF74A4H   LINE      CODE     ---       #438
      00FF74A8H   LINE      CODE     ---       #439
      ---         BLOCKEND  ---      ---       LVL=0
      00000890H   SYMBOL    EDATA    BYTE      reg
      00000891H   SYMBOL    EDATA    ---       dat
      00000895H   SYMBOL    EDATA    DWORD     len
      00000A9CH   SYMBOL    EDATA    BYTE      dat
      00000A9DH   SYMBOL    EDATA    BYTE      return_state
      00000A9EH   SYMBOL    EDATA    WORD      timeout_count
      00000982H   SYMBOL    EDATA    ---       dat
      00000989H   SYMBOL    EDATA    ---       dat
      000009DAH   SYMBOL    EDATA    INT       acc_value
      000009DCH   SYMBOL    EDATA    FLOAT     acc_dat
      000009E0H   SYMBOL    EDATA    INT       gyro_value
      000009E2H   SYMBOL    EDATA    FLOAT     gyro_dat
      00000B3DH   SYMBOL    EDATA    BYTE      return_state

      ---         MODULE    ---      ---       SEEKFREE_IMU963RA
      000005E0H   PUBLIC    EDATA    INT       imu963ra_acc_x
      000005E2H   PUBLIC    EDATA    INT       imu963ra_acc_y
      000005E4H   PUBLIC    EDATA    INT       imu963ra_acc_z
      000005E6H   PUBLIC    EDATA    INT       imu963ra_mag_x
      000005E8H   PUBLIC    EDATA    INT       imu963ra_mag_y
      000005EAH   PUBLIC    EDATA    INT       imu963ra_mag_z
      000005ECH   PUBLIC    EDATA    INT       imu963ra_gyro_x
      000005EEH   PUBLIC    EDATA    INT       imu963ra_gyro_y
      000005F0H   PUBLIC    EDATA    INT       imu963ra_gyro_z
      000000D0H   SFRSYM    DATA     BYTE      PSW
      0000009DH   SFRSYM    DATA     BYTE      IRCBAND
      00000097H   SFRSYM    DATA     BYTE      AUXR2
      000000EFH   SFRSYM    DATA     BYTE      AUXINTIF
      000000FDH   SFRSYM    DATA     BYTE      S4CON
      000000ACH   SFRSYM    DATA     BYTE      S3CON
      0000009AH   SFRSYM    DATA     BYTE      S2CON
      000000B7H   SFRSYM    DATA     BYTE      IPH
      000000CDH   SFRSYM    DATA     BYTE      SPSTAT
      000000DDH   SFRSYM    DATA     BYTE      T4T3M
      000000C1H   SFRSYM    DATA     BYTE      WDT_CONTR
      000000DFH   SFRSYM    DATA     BYTE      IP3
      000000F4H   SFRSYM    DATA     BYTE      USBCON
      000000B5H   SFRSYM    DATA     BYTE      IP2
      000000FFH   SFRSYM    DATA     BYTE      RSTCFG
      000000F9H   SFRSYM    DATA     BYTE      LINICR
      0000008EH   SFRSYM    DATA     BYTE      AUXR
      000000AFH   SFRSYM    DATA     BYTE      IE2
      000000C0H.3 SFRSYM    DATA     BIT       P43
      000000C0H.2 SFRSYM    DATA     BIT       P42
      00000088H   SFRSYM    DATA     BYTE      TCON
      000000C0H.1 SFRSYM    DATA     BIT       P41
      00000098H   SFRSYM    DATA     BYTE      SCON
      000000C0H.0 SFRSYM    DATA     BIT       P40
      000000F1H   SFRSYM    DATA     BYTE      CANICR
      00000087H   SFRSYM    DATA     BYTE      PCON
L251 LINKER/LOCATER V4.66.93.0                                                        10/07/2023  14:21:18  PAGE 67


      000000BCH   SFRSYM    DATA     BYTE      ADC_CONTR
      000000E7H   SFRSYM    DATA     BYTE      CMPCR2
      000000E6H   SFRSYM    DATA     BYTE      CMPCR1
      000000B8H   SFRSYM    DATA     BYTE      IP
      0000008FH   SFRSYM    DATA     BYTE      INTCLKO
      000000EEH   SFRSYM    DATA     BYTE      IP3H
      000000B6H   SFRSYM    DATA     BYTE      IP2H
      000000A8H   SFRSYM    DATA     BYTE      IE
      000000BBH   SFRSYM    DATA     BYTE      P_SW3
      000000BAH   SFRSYM    DATA     BYTE      P_SW2
      000000A2H   SFRSYM    DATA     BYTE      P_SW1
      000000CEH   SFRSYM    DATA     BYTE      SPCTL
      000000F8H   SFRSYM    DATA     BYTE      P7
      000000E8H   SFRSYM    DATA     BYTE      P6
      000000C8H   SFRSYM    DATA     BYTE      P5
      000000C0H   SFRSYM    DATA     BYTE      P4
      000000B0H   SFRSYM    DATA     BYTE      P3
      000000A0H   SFRSYM    DATA     BYTE      P2
      00000090H   SFRSYM    DATA     BYTE      P1
      00000080H   SFRSYM    DATA     BYTE      P0
      00FF6B9EH   SYMBOL    CODE     ---       imu963ra_simspi_wr_byte
      00FF6755H   SYMBOL    CODE     ---       imu963ra_read_mag_register
      00FF7464H   SYMBOL    CODE     ---       imu963ra_read_acc_gyro_register
      00FF72F5H   SYMBOL    CODE     ---       imu963ra_simspi_r_reg_byte
      00FF75BCH   SYMBOL    CODE     ---       imu963ra_write_acc_gyro_register
      00FF74EBH   SYMBOL    CODE     ---       imu963ra_simspi_w_reg_byte

      00FF6B9EH   BLOCK     CODE     ---       LVL=0
      00000B13H   SYMBOL    EDATA    BYTE      byte
      00FF6BA2H   BLOCK     CODE     NEAR LAB  LVL=1
      00000B14H   SYMBOL    EDATA    BYTE      i
      ---         BLOCKEND  ---      ---       LVL=1
      00FF6B9EH   LINE      CODE     ---       #344
      00FF6BA2H   LINE      CODE     ---       #345
      00FF6BA2H   LINE      CODE     ---       #348
      00FF6BA9H   LINE      CODE     ---       #350
      00FF6BB7H   LINE      CODE     ---       #351
      00FF6BC1H   LINE      CODE     ---       #352
      00FF6BC4H   LINE      CODE     ---       #353
      00FF6BC7H   LINE      CODE     ---       #355
      00FF6BCAH   LINE      CODE     ---       #356
      00FF6BCDH   LINE      CODE     ---       #357
      00FF6BDBH   LINE      CODE     ---       #358
      00FF6BF2H   LINE      CODE     ---       #359
      00FF6BF6H   LINE      CODE     ---       #360
      ---         BLOCKEND  ---      ---       LVL=0

      00FF74EBH   BLOCK     CODE     ---       LVL=0
      00000B15H   SYMBOL    EDATA    BYTE      cmd
      00000B16H   SYMBOL    EDATA    BYTE      val
      00FF74EBH   LINE      CODE     ---       #368
      00FF74F3H   LINE      CODE     ---       #370
      00FF74F6H   LINE      CODE     ---       #371
      00FF74FAH   LINE      CODE     ---       #372
      00FF7501H   LINE      CODE     ---       #373
      00FF7508H   LINE      CODE     ---       #374
      00FF750BH   LINE      CODE     ---       #375
      ---         BLOCKEND  ---      ---       LVL=0

      00FF72F5H   BLOCK     CODE     ---       LVL=0
      00000A53H   SYMBOL    EDATA    BYTE      cmd
      00000A54H   SYMBOL    EDATA    ---       val
      00FF72F5H   LINE      CODE     ---       #406
      00FF72FDH   LINE      CODE     ---       #408
      00FF7300H   LINE      CODE     ---       #409
L251 LINKER/LOCATER V4.66.93.0                                                        10/07/2023  14:21:18  PAGE 68


      00FF730CH   LINE      CODE     ---       #410
      00FF7313H   LINE      CODE     ---       #411
      00FF731EH   LINE      CODE     ---       #412
      00FF7321H   LINE      CODE     ---       #413
      ---         BLOCKEND  ---      ---       LVL=0
      00000899H   SYMBOL    EDATA    BYTE      cmd
      0000089AH   SYMBOL    EDATA    ---       val
      0000089EH   SYMBOL    EDATA    DWORD     num

      00FF75BCH   BLOCK     CODE     ---       LVL=0
      00000B17H   SYMBOL    EDATA    BYTE      reg
      00000B18H   SYMBOL    EDATA    BYTE      dat
      00FF75BCH   LINE      CODE     ---       #445
      00FF75C4H   LINE      CODE     ---       #447
      00FF75C7H   LINE      CODE     ---       #448
      00FF75D2H   LINE      CODE     ---       #450
      00FF75D5H   LINE      CODE     ---       #451
      ---         BLOCKEND  ---      ---       LVL=0

      00FF7464H   BLOCK     CODE     ---       LVL=0
      00000B19H   SYMBOL    EDATA    BYTE      reg
      00FF7468H   BLOCK     CODE     NEAR LAB  LVL=1
      00000B1AH   SYMBOL    EDATA    BYTE      dat
      ---         BLOCKEND  ---      ---       LVL=1
      00FF7464H   LINE      CODE     ---       #460
      00FF7468H   LINE      CODE     ---       #461
      00FF7468H   LINE      CODE     ---       #462
      00FF746DH   LINE      CODE     ---       #463
      00FF7470H   LINE      CODE     ---       #464
      00FF747FH   LINE      CODE     ---       #465
      00FF7482H   LINE      CODE     ---       #466
      00FF7486H   LINE      CODE     ---       #467
      ---         BLOCKEND  ---      ---       LVL=0
      000008A2H   SYMBOL    EDATA    BYTE      reg
      000008A3H   SYMBOL    EDATA    ---       dat
      000008A7H   SYMBOL    EDATA    DWORD     len
      000009E6H   SYMBOL    EDATA    BYTE      addr
      000009E7H   SYMBOL    EDATA    BYTE      reg
      000009E8H   SYMBOL    EDATA    BYTE      dat
      000009E9H   SYMBOL    EDATA    BYTE      return_state
      000009EAH   SYMBOL    EDATA    WORD      timeout_count

      00FF6755H   BLOCK     CODE     ---       LVL=0
      00000AA0H   SYMBOL    EDATA    BYTE      addr
      00000AA1H   SYMBOL    EDATA    BYTE      reg
      00FF675DH   BLOCK     CODE     NEAR LAB  LVL=1
      00000AA2H   SYMBOL    EDATA    WORD      timeout_count
      ---         BLOCKEND  ---      ---       LVL=1
      00FF6755H   LINE      CODE     ---       #529
      00FF675DH   LINE      CODE     ---       #530
      00FF675DH   LINE      CODE     ---       #531
      00FF6763H   LINE      CODE     ---       #533
      00FF676DH   LINE      CODE     ---       #534
      00FF677BH   LINE      CODE     ---       #535
      00FF6784H   LINE      CODE     ---       #536
      00FF678CH   LINE      CODE     ---       #537
      00FF6794H   LINE      CODE     ---       #540
      00FF6796H   LINE      CODE     ---       #542
      00FF67ACH   LINE      CODE     ---       #544
      00FF67ACH   LINE      CODE     ---       #545
      00FF67ACH   LINE      CODE     ---       #546
      00FF67B3H   LINE      CODE     ---       #547
      00FF67BBH   LINE      CODE     ---       #549
      00FF67C0H   LINE      CODE     ---       #550
      ---         BLOCKEND  ---      ---       LVL=0
L251 LINKER/LOCATER V4.66.93.0                                                        10/07/2023  14:21:18  PAGE 69


      00000B1BH   SYMBOL    EDATA    BYTE      addr
      00000B1CH   SYMBOL    EDATA    BYTE      reg
      00000AA4H   SYMBOL    EDATA    BYTE      return_state
      00000AA5H   SYMBOL    EDATA    BYTE      dat
      00000AA6H   SYMBOL    EDATA    WORD      timeout_count
      00000AA8H   SYMBOL    EDATA    BYTE      return_state
      00000AA9H   SYMBOL    EDATA    BYTE      dat
      00000AAAH   SYMBOL    EDATA    WORD      timeout_count
      000009ECH   SYMBOL    EDATA    ---       dat
      000009F2H   SYMBOL    EDATA    ---       dat
      00000990H   SYMBOL    EDATA    BYTE      temp_status
      00000991H   SYMBOL    EDATA    ---       dat
      000009F8H   SYMBOL    EDATA    INT       acc_value
      000009FAH   SYMBOL    EDATA    FLOAT     acc_dat
      000009FEH   SYMBOL    EDATA    INT       gyro_value
      00000A00H   SYMBOL    EDATA    FLOAT     gyro_dat
      00000A04H   SYMBOL    EDATA    INT       mag_value
      00000A06H   SYMBOL    EDATA    FLOAT     mag_dat
      00000B3EH   SYMBOL    EDATA    BYTE      return_state

      ---         MODULE    ---      ---       SEEKFREE_IPS114_SPI
      00FF7376H   PUBLIC    CODE     ---       ips114_writedata_16bit
      00FF6252H   PUBLIC    CODE     ---       ips114_showchar
      00FF6185H   PUBLIC    CODE     ---       ips114_showuint16
      00FF6A2FH   PUBLIC    CODE     ---       ips114_clear
      00FF6CA2H   PUBLIC    CODE     ---       ips114_writeDatai_16bit_simspi
      00FF6ED8H   PUBLIC    CODE     ---       ips114_writeIndex_simspi
      00FF7660H   PUBLIC    CODE     ---       ips114_writeIndex
      00FF7675H   PUBLIC    CODE     ---       ips114_writeData
      00FF6CF7H   PUBLIC    CODE     ---       ips114_set_region
      00FF583AH   PUBLIC    CODE     ---       ips114_init
      00000332H   PUBLIC    EDATA    BYTE      ?ips114_showfloat_simspi?BYTE
      00000362H   PUBLIC    EDATA    BYTE      ?ips114_showfloat?BYTE
      000000D0H   SFRSYM    DATA     BYTE      PSW
      0000009DH   SFRSYM    DATA     BYTE      IRCBAND
      00000097H   SFRSYM    DATA     BYTE      AUXR2
      000000EFH   SFRSYM    DATA     BYTE      AUXINTIF
      000000FDH   SFRSYM    DATA     BYTE      S4CON
      000000ACH   SFRSYM    DATA     BYTE      S3CON
      0000009AH   SFRSYM    DATA     BYTE      S2CON
      000000B7H   SFRSYM    DATA     BYTE      IPH
      000000CDH   SFRSYM    DATA     BYTE      SPSTAT
      000000DDH   SFRSYM    DATA     BYTE      T4T3M
      000000C1H   SFRSYM    DATA     BYTE      WDT_CONTR
      000000DFH   SFRSYM    DATA     BYTE      IP3
      000000F4H   SFRSYM    DATA     BYTE      USBCON
      000000B5H   SFRSYM    DATA     BYTE      IP2
      000000FFH   SFRSYM    DATA     BYTE      RSTCFG
      000000F9H   SFRSYM    DATA     BYTE      LINICR
      0000008EH   SFRSYM    DATA     BYTE      AUXR
      000000AFH   SFRSYM    DATA     BYTE      IE2
      000000A0H.7 SFRSYM    DATA     BIT       P27
      000000A0H.5 SFRSYM    DATA     BIT       P25
      00000088H   SFRSYM    DATA     BYTE      TCON
      000000A0H.3 SFRSYM    DATA     BIT       P23
      00000098H   SFRSYM    DATA     BYTE      SCON
      000000A0H.2 SFRSYM    DATA     BIT       P22
      000000A0H.1 SFRSYM    DATA     BIT       P21
      000000A0H.0 SFRSYM    DATA     BIT       P20
      000000F1H   SFRSYM    DATA     BYTE      CANICR
      00000087H   SFRSYM    DATA     BYTE      PCON
      000000BCH   SFRSYM    DATA     BYTE      ADC_CONTR
      000000E7H   SFRSYM    DATA     BYTE      CMPCR2
      000000E6H   SFRSYM    DATA     BYTE      CMPCR1
      000000B8H   SFRSYM    DATA     BYTE      IP
L251 LINKER/LOCATER V4.66.93.0                                                        10/07/2023  14:21:18  PAGE 70


      0000008FH   SFRSYM    DATA     BYTE      INTCLKO
      000000EEH   SFRSYM    DATA     BYTE      IP3H
      000000B6H   SFRSYM    DATA     BYTE      IP2H
      000000A8H   SFRSYM    DATA     BYTE      IE
      000000BBH   SFRSYM    DATA     BYTE      P_SW3
      000000BAH   SFRSYM    DATA     BYTE      P_SW2
      000000A2H   SFRSYM    DATA     BYTE      P_SW1
      000000CEH   SFRSYM    DATA     BYTE      SPCTL
      000000F8H   SFRSYM    DATA     BYTE      P7
      000000E8H   SFRSYM    DATA     BYTE      P6
      000000C8H   SFRSYM    DATA     BYTE      P5
      000000C0H   SFRSYM    DATA     BYTE      P4
      000000B0H   SFRSYM    DATA     BYTE      P3
      000000A0H   SFRSYM    DATA     BYTE      P2
      00000090H   SFRSYM    DATA     BYTE      P1
      00000080H   SFRSYM    DATA     BYTE      P0

      00FF6ED8H   BLOCK     CODE     ---       LVL=0
      00000B1DH   SYMBOL    EDATA    BYTE      dat
      00FF6EDCH   BLOCK     CODE     NEAR LAB  LVL=1
      00000B1EH   SYMBOL    EDATA    BYTE      i
      ---         BLOCKEND  ---      ---       LVL=1
      00FF6ED8H   LINE      CODE     ---       #61
      00FF6EDCH   LINE      CODE     ---       #62
      00FF6EDCH   LINE      CODE     ---       #63
      00FF6EE2H   LINE      CODE     ---       #64
      00FF6EE5H   LINE      CODE     ---       #65
      00FF6EE8H   LINE      CODE     ---       #67
      00FF6EEBH   LINE      CODE     ---       #69
      00FF6EEDH   LINE      CODE     ---       #71
      00FF6EF9H   LINE      CODE     ---       #72
      00FF6EFCH   LINE      CODE     ---       #73
      00FF6EFFH   LINE      CODE     ---       #75
      00FF6F02H   LINE      CODE     ---       #76
      00FF6F0CH   LINE      CODE     ---       #77
      00FF6F20H   LINE      CODE     ---       #78
      00FF6F23H   LINE      CODE     ---       #79
      ---         BLOCKEND  ---      ---       LVL=0
      00000B1FH   SYMBOL    EDATA    BYTE      dat
      00000B20H   SYMBOL    EDATA    BYTE      i

      00FF6CA2H   BLOCK     CODE     ---       LVL=0
      00000AD5H   SYMBOL    EDATA    WORD      dat
      00FF6CA6H   BLOCK     CODE     NEAR LAB  LVL=1
      00000AD7H   SYMBOL    EDATA    BYTE      i
      ---         BLOCKEND  ---      ---       LVL=1
      00FF6CA2H   LINE      CODE     ---       #115
      00FF6CA6H   LINE      CODE     ---       #116
      00FF6CA6H   LINE      CODE     ---       #117
      00FF6CACH   LINE      CODE     ---       #118
      00FF6CAFH   LINE      CODE     ---       #119
      00FF6CB2H   LINE      CODE     ---       #120
      00FF6CB5H   LINE      CODE     ---       #121
      00FF6CB7H   LINE      CODE     ---       #123
      00FF6CCCH   LINE      CODE     ---       #124
      00FF6CCFH   LINE      CODE     ---       #125
      00FF6CD2H   LINE      CODE     ---       #127
      00FF6CD5H   LINE      CODE     ---       #128
      00FF6CDFH   LINE      CODE     ---       #129
      00FF6CF3H   LINE      CODE     ---       #130
      00FF6CF6H   LINE      CODE     ---       #131
      ---         BLOCKEND  ---      ---       LVL=0
      00000934H   SYMBOL    EDATA    WORD      x1
      00000936H   SYMBOL    EDATA    WORD      y1
      00000938H   SYMBOL    EDATA    WORD      x2
L251 LINKER/LOCATER V4.66.93.0                                                        10/07/2023  14:21:18  PAGE 71


      0000093AH   SYMBOL    EDATA    WORD      y2
      00000A0AH   SYMBOL    EDATA    WORD      color
      00000A0CH   SYMBOL    EDATA    WORD      i
      00000A0EH   SYMBOL    EDATA    WORD      j
      00000A10H   SYMBOL    EDATA    WORD      x
      00000A12H   SYMBOL    EDATA    WORD      y
      00000A14H   SYMBOL    EDATA    WORD      color
      0000093CH   SYMBOL    EDATA    WORD      x
      0000093EH   SYMBOL    EDATA    WORD      y
      00000940H   SYMBOL    EDATA    CHAR      dat
      00000941H   SYMBOL    EDATA    BYTE      i
      00000942H   SYMBOL    EDATA    BYTE      j
      00000943H   SYMBOL    EDATA    BYTE      temp
      0000080FH   SYMBOL    EDATA    WORD      x
      00000811H   SYMBOL    EDATA    WORD      y
      00000813H   SYMBOL    EDATA    ---       dat
      00000817H   SYMBOL    EDATA    WORD      j
      000008ABH   SYMBOL    EDATA    WORD      x
      000008ADH   SYMBOL    EDATA    WORD      y
      000008AFH   SYMBOL    EDATA    CHAR      dat
      000008B0H   SYMBOL    EDATA    ---       a
      000008B3H   SYMBOL    EDATA    BYTE      i
      000008B4H   SYMBOL    EDATA    WORD      x
      000008B6H   SYMBOL    EDATA    WORD      y
      000008B8H   SYMBOL    EDATA    BYTE      dat
      000008B9H   SYMBOL    EDATA    ---       a
      000008BCH   SYMBOL    EDATA    BYTE      i
      00000727H   SYMBOL    EDATA    WORD      x
      00000729H   SYMBOL    EDATA    WORD      y
      0000072BH   SYMBOL    EDATA    INT       dat
      0000072DH   SYMBOL    EDATA    ---       a
      00000732H   SYMBOL    EDATA    BYTE      i
      00000733H   SYMBOL    EDATA    WORD      x
      00000735H   SYMBOL    EDATA    WORD      y
      00000737H   SYMBOL    EDATA    WORD      dat
      00000739H   SYMBOL    EDATA    ---       a
      0000073EH   SYMBOL    EDATA    BYTE      i
      00000479H   SYMBOL    EDATA    WORD      x
      0000047BH   SYMBOL    EDATA    WORD      y
      0000047DH   SYMBOL    EDATA    LONG      dat
      00000481H   SYMBOL    EDATA    BYTE      num
      00000482H   SYMBOL    EDATA    ---       buff
      000004A4H   SYMBOL    EDATA    BYTE      length
      00000332H   SYMBOL    EDATA    WORD      x
      00000334H   SYMBOL    EDATA    WORD      y
      00000336H   SYMBOL    EDATA    FLOAT     dat
      0000033AH   SYMBOL    EDATA    BYTE      num
      0000033BH   SYMBOL    EDATA    BYTE      pointnum
      0000033CH   SYMBOL    EDATA    BYTE      length
      0000033DH   SYMBOL    EDATA    ---       buff
      0000035FH   SYMBOL    EDATA    CHAR      start
      00000360H   SYMBOL    EDATA    CHAR      end
      00000361H   SYMBOL    EDATA    CHAR      point

      00FF7660H   BLOCK     CODE     ---       LVL=0
      00000B3FH   SYMBOL    EDATA    BYTE      dat
      00FF7660H   LINE      CODE     ---       #594
      00FF7664H   LINE      CODE     ---       #596
      00FF7667H   LINE      CODE     ---       #597
      00FF766AH   LINE      CODE     ---       #599
      00FF7671H   LINE      CODE     ---       #600
      00FF7674H   LINE      CODE     ---       #601
      ---         BLOCKEND  ---      ---       LVL=0

      00FF7675H   BLOCK     CODE     ---       LVL=0
L251 LINKER/LOCATER V4.66.93.0                                                        10/07/2023  14:21:18  PAGE 72


      00000B40H   SYMBOL    EDATA    BYTE      dat
      00FF7675H   LINE      CODE     ---       #610
      00FF7679H   LINE      CODE     ---       #612
      00FF767CH   LINE      CODE     ---       #613
      00FF767FH   LINE      CODE     ---       #615
      00FF7686H   LINE      CODE     ---       #616
      00FF7689H   LINE      CODE     ---       #617
      ---         BLOCKEND  ---      ---       LVL=0

      00FF7376H   BLOCK     CODE     ---       LVL=0
      00000AACH   SYMBOL    EDATA    WORD      dat
      00FF737AH   BLOCK     CODE     NEAR LAB  LVL=1
      00000AAEH   SYMBOL    EDATA    ---       dat1
      ---         BLOCKEND  ---      ---       LVL=1
      00FF7376H   LINE      CODE     ---       #626
      00FF737AH   LINE      CODE     ---       #627
      00FF737AH   LINE      CODE     ---       #629
      00FF7380H   LINE      CODE     ---       #630
      00FF7388H   LINE      CODE     ---       #631
      00FF738BH   LINE      CODE     ---       #632
      00FF738EH   LINE      CODE     ---       #633
      00FF7395H   LINE      CODE     ---       #634
      00FF739CH   LINE      CODE     ---       #635
      00FF739FH   LINE      CODE     ---       #636
      ---         BLOCKEND  ---      ---       LVL=0

      00FF583AH   BLOCK     CODE     ---       LVL=0
      00FF583AH   LINE      CODE     ---       #644
      00FF583AH   LINE      CODE     ---       #646
      00FF585AH   LINE      CODE     ---       #648
      00FF585DH   LINE      CODE     ---       #649
      00FF5860H   LINE      CODE     ---       #650
      00FF5863H   LINE      CODE     ---       #652
      00FF586AH   LINE      CODE     ---       #654
      00FF586DH   LINE      CODE     ---       #655
      00FF5874H   LINE      CODE     ---       #657
      00FF5879H   LINE      CODE     ---       #666
      00FF587EH   LINE      CODE     ---       #669
      00FF5883H   LINE      CODE     ---       #670
      00FF5888H   LINE      CODE     ---       #672
      00FF588DH   LINE      CODE     ---       #673
      00FF5892H   LINE      CODE     ---       #674
      00FF5897H   LINE      CODE     ---       #675
      00FF589BH   LINE      CODE     ---       #676
      00FF58A0H   LINE      CODE     ---       #677
      00FF58A5H   LINE      CODE     ---       #679
      00FF58AAH   LINE      CODE     ---       #680
      00FF58AFH   LINE      CODE     ---       #682
      00FF58B4H   LINE      CODE     ---       #683
      00FF58B9H   LINE      CODE     ---       #685
      00FF58BEH   LINE      CODE     ---       #686
      00FF58C3H   LINE      CODE     ---       #688
      00FF58C8H   LINE      CODE     ---       #689
      00FF58CDH   LINE      CODE     ---       #691
      00FF58D2H   LINE      CODE     ---       #692
      00FF58D7H   LINE      CODE     ---       #694
      00FF58DCH   LINE      CODE     ---       #695
      00FF58E1H   LINE      CODE     ---       #697
      00FF58E6H   LINE      CODE     ---       #698
      00FF58EBH   LINE      CODE     ---       #700
      00FF58F0H   LINE      CODE     ---       #701
      00FF58F5H   LINE      CODE     ---       #702
      00FF58FAH   LINE      CODE     ---       #704
      00FF58FFH   LINE      CODE     ---       #705
      00FF5904H   LINE      CODE     ---       #706
L251 LINKER/LOCATER V4.66.93.0                                                        10/07/2023  14:21:18  PAGE 73


      00FF5909H   LINE      CODE     ---       #707
      00FF590EH   LINE      CODE     ---       #708
      00FF5913H   LINE      CODE     ---       #709
      00FF5918H   LINE      CODE     ---       #710
      00FF591DH   LINE      CODE     ---       #711
      00FF5922H   LINE      CODE     ---       #712
      00FF5927H   LINE      CODE     ---       #713
      00FF592CH   LINE      CODE     ---       #714
      00FF5931H   LINE      CODE     ---       #715
      00FF5936H   LINE      CODE     ---       #716
      00FF593BH   LINE      CODE     ---       #717
      00FF5940H   LINE      CODE     ---       #718
      00FF5945H   LINE      CODE     ---       #720
      00FF594AH   LINE      CODE     ---       #721
      00FF594FH   LINE      CODE     ---       #722
      00FF5954H   LINE      CODE     ---       #723
      00FF5959H   LINE      CODE     ---       #724
      00FF595EH   LINE      CODE     ---       #725
      00FF5963H   LINE      CODE     ---       #726
      00FF5968H   LINE      CODE     ---       #727
      00FF596DH   LINE      CODE     ---       #728
      00FF5972H   LINE      CODE     ---       #729
      00FF5977H   LINE      CODE     ---       #730
      00FF597CH   LINE      CODE     ---       #731
      00FF5981H   LINE      CODE     ---       #732
      00FF5986H   LINE      CODE     ---       #733
      00FF598BH   LINE      CODE     ---       #734
      00FF5990H   LINE      CODE     ---       #736
      00FF5995H   LINE      CODE     ---       #738
      00FF599AH   LINE      CODE     ---       #739
      00FF59A1H   LINE      CODE     ---       #741
      00FF59A6H   LINE      CODE     ---       #742
      00FF59ADH   LINE      CODE     ---       #743
      ---         BLOCKEND  ---      ---       LVL=0

      00FF6CF7H   BLOCK     CODE     ---       LVL=0
      00000944H   SYMBOL    EDATA    WORD      x1
      00000946H   SYMBOL    EDATA    WORD      y1
      00000948H   SYMBOL    EDATA    WORD      x2
      0000094AH   SYMBOL    EDATA    WORD      y2
      00FF6CF7H   LINE      CODE     ---       #747
      00FF6D07H   LINE      CODE     ---       #781
      00FF6D0CH   LINE      CODE     ---       #782
      00FF6D19H   LINE      CODE     ---       #783
      00FF6D26H   LINE      CODE     ---       #784
      00FF6D2BH   LINE      CODE     ---       #785
      00FF6D38H   LINE      CODE     ---       #786
      00FF6D45H   LINE      CODE     ---       #787
      00FF6D4AH   LINE      CODE     ---       #790
      ---         BLOCKEND  ---      ---       LVL=0

      00FF6A2FH   BLOCK     CODE     ---       LVL=0
      00000A16H   SYMBOL    EDATA    WORD      color
      00FF6A33H   BLOCK     CODE     NEAR LAB  LVL=1
      00000A18H   SYMBOL    EDATA    WORD      i
      00000A1AH   SYMBOL    EDATA    WORD      j
      ---         BLOCKEND  ---      ---       LVL=1
      00FF6A2FH   LINE      CODE     ---       #799
      00FF6A33H   LINE      CODE     ---       #800
      00FF6A33H   LINE      CODE     ---       #802
      00FF6A42H   LINE      CODE     ---       #803
      00FF6A4AH   LINE      CODE     ---       #805
      00FF6A52H   LINE      CODE     ---       #807
      00FF6A59H   LINE      CODE     ---       #808
      00FF6A73H   LINE      CODE     ---       #809
L251 LINKER/LOCATER V4.66.93.0                                                        10/07/2023  14:21:18  PAGE 74


      00FF6A8DH   LINE      CODE     ---       #810
      ---         BLOCKEND  ---      ---       LVL=0
      00000A1CH   SYMBOL    EDATA    WORD      x
      00000A1EH   SYMBOL    EDATA    WORD      y
      00000A20H   SYMBOL    EDATA    WORD      color

      00FF6252H   BLOCK     CODE     ---       LVL=0
      0000094CH   SYMBOL    EDATA    WORD      x
      0000094EH   SYMBOL    EDATA    WORD      y
      00000950H   SYMBOL    EDATA    CHAR      dat
      00FF625EH   BLOCK     CODE     NEAR LAB  LVL=1
      00000951H   SYMBOL    EDATA    BYTE      i
      00000952H   SYMBOL    EDATA    BYTE      j
      00000953H   SYMBOL    EDATA    BYTE      temp
      ---         BLOCKEND  ---      ---       LVL=1
      00FF6252H   LINE      CODE     ---       #838
      00FF625EH   LINE      CODE     ---       #839
      00FF625EH   LINE      CODE     ---       #843
      00FF6266H   LINE      CODE     ---       #845
      00FF628FH   LINE      CODE     ---       #846
      00FF62B7H   LINE      CODE     ---       #847
      00FF62BEH   LINE      CODE     ---       #849
      00FF62C5H   LINE      CODE     ---       #851
      00FF62CCH   LINE      CODE     ---       #852
      00FF62CEH   LINE      CODE     ---       #853
      00FF62D5H   LINE      CODE     ---       #854
      00FF62DFH   LINE      CODE     ---       #855
      00FF62F6H   LINE      CODE     ---       #856
      00FF6310H   LINE      CODE     ---       #857
      ---         BLOCKEND  ---      ---       LVL=0
      00000819H   SYMBOL    EDATA    WORD      x
      0000081BH   SYMBOL    EDATA    WORD      y
      0000081DH   SYMBOL    EDATA    ---       dat
      00000821H   SYMBOL    EDATA    WORD      j
      000008BDH   SYMBOL    EDATA    WORD      x
      000008BFH   SYMBOL    EDATA    WORD      y
      000008C1H   SYMBOL    EDATA    CHAR      dat
      000008C2H   SYMBOL    EDATA    ---       a
      000008C5H   SYMBOL    EDATA    BYTE      i
      000008C6H   SYMBOL    EDATA    WORD      x
      000008C8H   SYMBOL    EDATA    WORD      y
      000008CAH   SYMBOL    EDATA    BYTE      dat
      000008CBH   SYMBOL    EDATA    ---       a
      000008CEH   SYMBOL    EDATA    BYTE      i
      0000073FH   SYMBOL    EDATA    WORD      x
      00000741H   SYMBOL    EDATA    WORD      y
      00000743H   SYMBOL    EDATA    INT       dat
      00000745H   SYMBOL    EDATA    ---       a
      0000074AH   SYMBOL    EDATA    BYTE      i

      00FF6185H   BLOCK     CODE     ---       LVL=0
      0000074BH   SYMBOL    EDATA    WORD      x
      0000074DH   SYMBOL    EDATA    WORD      y
      0000074FH   SYMBOL    EDATA    WORD      dat
      00FF6191H   BLOCK     CODE     NEAR LAB  LVL=1
      00000751H   SYMBOL    EDATA    ---       a
      00000756H   SYMBOL    EDATA    BYTE      i
      ---         BLOCKEND  ---      ---       LVL=1
      00FF6185H   LINE      CODE     ---       #980
      00FF6191H   LINE      CODE     ---       #981
      00FF6191H   LINE      CODE     ---       #985
      00FF619FH   LINE      CODE     ---       #986
      00FF61B5H   LINE      CODE     ---       #987
      00FF61CBH   LINE      CODE     ---       #988
      00FF61E1H   LINE      CODE     ---       #989
L251 LINKER/LOCATER V4.66.93.0                                                        10/07/2023  14:21:18  PAGE 75


      00FF61F1H   LINE      CODE     ---       #991
      00FF61F6H   LINE      CODE     ---       #992
      00FF61F8H   LINE      CODE     ---       #994
      00FF623AH   LINE      CODE     ---       #995
      00FF6247H   LINE      CODE     ---       #996
      00FF6251H   LINE      CODE     ---       #997
      ---         BLOCKEND  ---      ---       LVL=0
      000004A5H   SYMBOL    EDATA    WORD      x
      000004A7H   SYMBOL    EDATA    WORD      y
      000004A9H   SYMBOL    EDATA    LONG      dat
      000004ADH   SYMBOL    EDATA    BYTE      num
      000004AEH   SYMBOL    EDATA    ---       buff
      000004D0H   SYMBOL    EDATA    BYTE      length
      00000362H   SYMBOL    EDATA    WORD      x
      00000364H   SYMBOL    EDATA    WORD      y
      00000366H   SYMBOL    EDATA    FLOAT     dat
      0000036AH   SYMBOL    EDATA    BYTE      num
      0000036BH   SYMBOL    EDATA    BYTE      pointnum
      0000036CH   SYMBOL    EDATA    BYTE      length
      0000036DH   SYMBOL    EDATA    ---       buff
      0000038FH   SYMBOL    EDATA    CHAR      start
      00000390H   SYMBOL    EDATA    CHAR      end
      00000391H   SYMBOL    EDATA    CHAR      point

      ---         MODULE    ---      ---       SEEKFREE_MPU6050
      00000757H   PUBLIC    EDATA    INT       mpu6050_acc_x
      00000759H   PUBLIC    EDATA    INT       mpu6050_acc_y
      0000075BH   PUBLIC    EDATA    INT       mpu6050_acc_z
      0000075DH   PUBLIC    EDATA    INT       mpu6050_gyro_x
      0000075FH   PUBLIC    EDATA    INT       mpu6050_gyro_y
      00000761H   PUBLIC    EDATA    INT       mpu6050_gyro_z
      000000D0H   SFRSYM    DATA     BYTE      PSW
      0000009DH   SFRSYM    DATA     BYTE      IRCBAND
      00000097H   SFRSYM    DATA     BYTE      AUXR2
      000000EFH   SFRSYM    DATA     BYTE      AUXINTIF
      000000FDH   SFRSYM    DATA     BYTE      S4CON
      000000ACH   SFRSYM    DATA     BYTE      S3CON
      0000009AH   SFRSYM    DATA     BYTE      S2CON
      000000B7H   SFRSYM    DATA     BYTE      IPH
      000000CDH   SFRSYM    DATA     BYTE      SPSTAT
      000000DDH   SFRSYM    DATA     BYTE      T4T3M
      000000C1H   SFRSYM    DATA     BYTE      WDT_CONTR
      000000DFH   SFRSYM    DATA     BYTE      IP3
      000000F4H   SFRSYM    DATA     BYTE      USBCON
      000000B5H   SFRSYM    DATA     BYTE      IP2
      000000FFH   SFRSYM    DATA     BYTE      RSTCFG
      000000F9H   SFRSYM    DATA     BYTE      LINICR
      0000008EH   SFRSYM    DATA     BYTE      AUXR
      000000AFH   SFRSYM    DATA     BYTE      IE2
      00000088H   SFRSYM    DATA     BYTE      TCON
      000000C0H.1 SFRSYM    DATA     BIT       P41
      00000098H   SFRSYM    DATA     BYTE      SCON
      000000C0H.0 SFRSYM    DATA     BIT       P40
      000000F1H   SFRSYM    DATA     BYTE      CANICR
      00000087H   SFRSYM    DATA     BYTE      PCON
      000000BCH   SFRSYM    DATA     BYTE      ADC_CONTR
      000000E7H   SFRSYM    DATA     BYTE      CMPCR2
      000000E6H   SFRSYM    DATA     BYTE      CMPCR1
      000000B8H   SFRSYM    DATA     BYTE      IP
      0000008FH   SFRSYM    DATA     BYTE      INTCLKO
      000000EEH   SFRSYM    DATA     BYTE      IP3H
      000000B6H   SFRSYM    DATA     BYTE      IP2H
      000000A8H   SFRSYM    DATA     BYTE      IE
      000000BBH   SFRSYM    DATA     BYTE      P_SW3
      000000BAH   SFRSYM    DATA     BYTE      P_SW2
L251 LINKER/LOCATER V4.66.93.0                                                        10/07/2023  14:21:18  PAGE 76


      000000A2H   SFRSYM    DATA     BYTE      P_SW1
      000000CEH   SFRSYM    DATA     BYTE      SPCTL
      000000F8H   SFRSYM    DATA     BYTE      P7
      000000E8H   SFRSYM    DATA     BYTE      P6
      000000C8H   SFRSYM    DATA     BYTE      P5
      000000C0H   SFRSYM    DATA     BYTE      P4
      000000B0H   SFRSYM    DATA     BYTE      P3
      000000A0H   SFRSYM    DATA     BYTE      P2
      00000090H   SFRSYM    DATA     BYTE      P1
      00000080H   SFRSYM    DATA     BYTE      P0
      00FF76DBH   SYMBOL    CODE     ---       mpu6050_simiic_start
      00FF7620H   SYMBOL    CODE     ---       mpu6050_simiic_stop
      00FF73F0H   SYMBOL    CODE     ---       mpu6050_simiic_sendack
      00FF7585H   SYMBOL    CODE     ---       mpu6050_simiic_delay

      00FF7585H   BLOCK     CODE     ---       LVL=0
      00000B21H   SYMBOL    EDATA    WORD      j
      00FF7585H   LINE      CODE     ---       #52
      00FF7585H   LINE      CODE     ---       #53
      00FF7585H   LINE      CODE     ---       #54
      00FF758BH   LINE      CODE     ---       #55
      00FF75A1H   LINE      CODE     ---       #56
      ---         BLOCKEND  ---      ---       LVL=0

      00FF76DBH   BLOCK     CODE     ---       LVL=0
      00FF76DBH   LINE      CODE     ---       #59
      00FF76DBH   LINE      CODE     ---       #61
      00FF76DEH   LINE      CODE     ---       #62
      00FF76E1H   LINE      CODE     ---       #63
      00FF76E4H   LINE      CODE     ---       #64
      00FF76E7H   LINE      CODE     ---       #65
      00FF76EAH   LINE      CODE     ---       #66
      00FF76EDH   LINE      CODE     ---       #67
      ---         BLOCKEND  ---      ---       LVL=0

      00FF7620H   BLOCK     CODE     ---       LVL=0
      00FF7620H   LINE      CODE     ---       #70
      00FF7620H   LINE      CODE     ---       #72
      00FF7623H   LINE      CODE     ---       #73
      00FF7626H   LINE      CODE     ---       #74
      00FF7629H   LINE      CODE     ---       #75
      00FF762CH   LINE      CODE     ---       #76
      00FF762FH   LINE      CODE     ---       #77
      00FF7632H   LINE      CODE     ---       #78
      00FF7635H   LINE      CODE     ---       #79
      ---         BLOCKEND  ---      ---       LVL=0

      00FF73F0H   BLOCK     CODE     ---       LVL=0
      00000B41H   SYMBOL    EDATA    BYTE      ack_dat
      00FF73F0H   LINE      CODE     ---       #83
      00FF73F4H   LINE      CODE     ---       #85
      00FF73F7H   LINE      CODE     ---       #86
      00FF73FAH   LINE      CODE     ---       #87
      00FF7408H   LINE      CODE     ---       #88
      00FF740BH   LINE      CODE     ---       #90
      00FF740EH   LINE      CODE     ---       #91
      00FF7411H   LINE      CODE     ---       #92
      00FF7414H   LINE      CODE     ---       #93
      00FF7417H   LINE      CODE     ---       #94
      ---         BLOCKEND  ---      ---       LVL=0
      00000B23H   SYMBOL    EDATA    BYTE      c
      00000B24H   SYMBOL    EDATA    BYTE      i
      00000AD8H   SYMBOL    EDATA    BYTE      ack_x
      00000AD9H   SYMBOL    EDATA    BYTE      i
      00000ADAH   SYMBOL    EDATA    BYTE      c
L251 LINKER/LOCATER V4.66.93.0                                                        10/07/2023  14:21:18  PAGE 77


      00000ADBH   SYMBOL    EDATA    BYTE      dev_add
      00000ADCH   SYMBOL    EDATA    BYTE      reg
      00000ADDH   SYMBOL    EDATA    BYTE      dat
      00000ADEH   SYMBOL    EDATA    BYTE      dev_add
      00000ADFH   SYMBOL    EDATA    BYTE      reg
      00000AE0H   SYMBOL    EDATA    BYTE      dat
      00000997H   SYMBOL    EDATA    BYTE      dev_add
      00000998H   SYMBOL    EDATA    BYTE      reg
      00000999H   SYMBOL    EDATA    ---       dat_add
      0000099DH   SYMBOL    EDATA    BYTE      num
      00000A22H   SYMBOL    EDATA    ---       dat
      00000A28H   SYMBOL    EDATA    ---       dat

      ---         MODULE    ---      ---       SEEKFREE_OLED
      00FF728DH   PUBLIC    CODE     ---       oled_set_pos
      00FF6F24H   PUBLIC    CODE     ---       oled_wrcmd
      00FF6F70H   PUBLIC    CODE     ---       oled_wrdat
      00FF7222H   PUBLIC    CODE     ---       oled_set_pos_spi
      00FF768AH   PUBLIC    CODE     ---       oled_wrcmd_spi
      00FF769FH   PUBLIC    CODE     ---       oled_wrdat_spi
      00000392H   PUBLIC    EDATA    BYTE      ?oled_printf_float?BYTE
      000003C2H   PUBLIC    EDATA    BYTE      ?oled_printf_float_spi?BYTE
      000000D0H   SFRSYM    DATA     BYTE      PSW
      0000009DH   SFRSYM    DATA     BYTE      IRCBAND
      00000097H   SFRSYM    DATA     BYTE      AUXR2
      000000EFH   SFRSYM    DATA     BYTE      AUXINTIF
      000000FDH   SFRSYM    DATA     BYTE      S4CON
      000000ACH   SFRSYM    DATA     BYTE      S3CON
      0000009AH   SFRSYM    DATA     BYTE      S2CON
      000000B7H   SFRSYM    DATA     BYTE      IPH
      000000CDH   SFRSYM    DATA     BYTE      SPSTAT
      000000DDH   SFRSYM    DATA     BYTE      T4T3M
      000000C1H   SFRSYM    DATA     BYTE      WDT_CONTR
      000000DFH   SFRSYM    DATA     BYTE      IP3
      000000F4H   SFRSYM    DATA     BYTE      USBCON
      000000B5H   SFRSYM    DATA     BYTE      IP2
      000000FFH   SFRSYM    DATA     BYTE      RSTCFG
      000000F9H   SFRSYM    DATA     BYTE      LINICR
      0000008EH   SFRSYM    DATA     BYTE      AUXR
      000000AFH   SFRSYM    DATA     BYTE      IE2
      000000A0H.5 SFRSYM    DATA     BIT       P25
      00000088H   SFRSYM    DATA     BYTE      TCON
      000000A0H.3 SFRSYM    DATA     BIT       P23
      00000098H   SFRSYM    DATA     BYTE      SCON
      000000A0H.2 SFRSYM    DATA     BIT       P22
      000000A0H.1 SFRSYM    DATA     BIT       P21
      000000A0H.0 SFRSYM    DATA     BIT       P20
      000000F1H   SFRSYM    DATA     BYTE      CANICR
      00000087H   SFRSYM    DATA     BYTE      PCON
      000000BCH   SFRSYM    DATA     BYTE      ADC_CONTR
      000000E7H   SFRSYM    DATA     BYTE      CMPCR2
      000000E6H   SFRSYM    DATA     BYTE      CMPCR1
      000000B8H   SFRSYM    DATA     BYTE      IP
      0000008FH   SFRSYM    DATA     BYTE      INTCLKO
      000000EEH   SFRSYM    DATA     BYTE      IP3H
      000000B6H   SFRSYM    DATA     BYTE      IP2H
      000000A8H   SFRSYM    DATA     BYTE      IE
      000000BBH   SFRSYM    DATA     BYTE      P_SW3
      000000BAH   SFRSYM    DATA     BYTE      P_SW2
      000000A2H   SFRSYM    DATA     BYTE      P_SW1
      000000CEH   SFRSYM    DATA     BYTE      SPCTL
      000000F8H   SFRSYM    DATA     BYTE      P7
      000000E8H   SFRSYM    DATA     BYTE      P6
      000000C8H   SFRSYM    DATA     BYTE      P5
      000000C0H   SFRSYM    DATA     BYTE      P4
L251 LINKER/LOCATER V4.66.93.0                                                        10/07/2023  14:21:18  PAGE 78


      000000B0H   SFRSYM    DATA     BYTE      P3
      000000A0H   SFRSYM    DATA     BYTE      P2
      00000090H   SFRSYM    DATA     BYTE      P1
      00000080H   SFRSYM    DATA     BYTE      P0

      00FF6F70H   BLOCK     CODE     ---       LVL=0
      00000B25H   SYMBOL    EDATA    BYTE      dat
      00FF6F74H   BLOCK     CODE     NEAR LAB  LVL=1
      00000B26H   SYMBOL    EDATA    BYTE      i
      ---         BLOCKEND  ---      ---       LVL=1
      00FF6F70H   LINE      CODE     ---       #47
      00FF6F74H   LINE      CODE     ---       #48
      00FF6F74H   LINE      CODE     ---       #49
      00FF6F7AH   LINE      CODE     ---       #51
      00FF6F7DH   LINE      CODE     ---       #52
      00FF6F80H   LINE      CODE     ---       #53
      00FF6F83H   LINE      CODE     ---       #54
      00FF6F85H   LINE      CODE     ---       #56
      00FF6F91H   LINE      CODE     ---       #57
      00FF6F94H   LINE      CODE     ---       #58
      00FF6F97H   LINE      CODE     ---       #60
      00FF6F9AH   LINE      CODE     ---       #61
      00FF6FA4H   LINE      CODE     ---       #62
      00FF6FB8H   LINE      CODE     ---       #63
      00FF6FBBH   LINE      CODE     ---       #64
      ---         BLOCKEND  ---      ---       LVL=0

      00FF6F24H   BLOCK     CODE     ---       LVL=0
      00000B27H   SYMBOL    EDATA    BYTE      cmd
      00FF6F28H   BLOCK     CODE     NEAR LAB  LVL=1
      00000B28H   SYMBOL    EDATA    BYTE      i
      ---         BLOCKEND  ---      ---       LVL=1
      00FF6F24H   LINE      CODE     ---       #98
      00FF6F28H   LINE      CODE     ---       #99
      00FF6F28H   LINE      CODE     ---       #100
      00FF6F2EH   LINE      CODE     ---       #102
      00FF6F31H   LINE      CODE     ---       #103
      00FF6F34H   LINE      CODE     ---       #104
      00FF6F37H   LINE      CODE     ---       #106
      00FF6F39H   LINE      CODE     ---       #108
      00FF6F45H   LINE      CODE     ---       #109
      00FF6F48H   LINE      CODE     ---       #110
      00FF6F4BH   LINE      CODE     ---       #112
      00FF6F4EH   LINE      CODE     ---       #113
      00FF6F58H   LINE      CODE     ---       #114
      00FF6F6CH   LINE      CODE     ---       #115
      00FF6F6FH   LINE      CODE     ---       #116
      ---         BLOCKEND  ---      ---       LVL=0
      00000954H   SYMBOL    EDATA    WORD      hex
      00000956H   SYMBOL    EDATA    ---       Print
      0000095AH   SYMBOL    EDATA    BYTE      hexcheck
      0000095BH   SYMBOL    EDATA    BYTE      TEMP

      00FF728DH   BLOCK     CODE     ---       LVL=0
      00000B29H   SYMBOL    EDATA    BYTE      x
      00000B2AH   SYMBOL    EDATA    BYTE      y
      00FF728DH   LINE      CODE     ---       #205
      00FF7295H   LINE      CODE     ---       #207
      00FF72A0H   LINE      CODE     ---       #208
      00FF72B6H   LINE      CODE     ---       #209
      00FF72C1H   LINE      CODE     ---       #210
      ---         BLOCKEND  ---      ---       LVL=0
      00000AE1H   SYMBOL    EDATA    BYTE      bmp_data
      00000AE2H   SYMBOL    EDATA    BYTE      y
      00000AE3H   SYMBOL    EDATA    BYTE      x
L251 LINKER/LOCATER V4.66.93.0                                                        10/07/2023  14:21:18  PAGE 79


      00000AE4H   SYMBOL    EDATA    BYTE      x
      00000AE5H   SYMBOL    EDATA    BYTE      y
      00000AE6H   SYMBOL    EDATA    BYTE      data1
      00000B2BH   SYMBOL    EDATA    BYTE      x
      00000B2CH   SYMBOL    EDATA    BYTE      y
      000008CFH   SYMBOL    EDATA    BYTE      x
      000008D0H   SYMBOL    EDATA    BYTE      y
      000008D1H   SYMBOL    EDATA    ---       ch
      000008D5H   SYMBOL    EDATA    BYTE      c
      000008D6H   SYMBOL    EDATA    BYTE      i
      000008D7H   SYMBOL    EDATA    BYTE      j
      000008D8H   SYMBOL    EDATA    BYTE      x
      000008D9H   SYMBOL    EDATA    BYTE      y
      000008DAH   SYMBOL    EDATA    ---       ch
      000008DEH   SYMBOL    EDATA    BYTE      c
      000008DFH   SYMBOL    EDATA    BYTE      i
      000008E0H   SYMBOL    EDATA    BYTE      j
      00000793H   SYMBOL    EDATA    BYTE      x
      00000794H   SYMBOL    EDATA    BYTE      y
      00000795H   SYMBOL    EDATA    WORD      num
      00000797H   SYMBOL    EDATA    ---       ch
      0000079EH   SYMBOL    EDATA    BYTE      x
      0000079FH   SYMBOL    EDATA    BYTE      y
      000007A0H   SYMBOL    EDATA    INT       num
      000007A2H   SYMBOL    EDATA    ---       ch
      000004D1H   SYMBOL    EDATA    WORD      x
      000004D3H   SYMBOL    EDATA    WORD      y
      000004D5H   SYMBOL    EDATA    LONG      dat
      000004D9H   SYMBOL    EDATA    BYTE      num
      000004DAH   SYMBOL    EDATA    ---       buff
      000004FCH   SYMBOL    EDATA    BYTE      length
      00000392H   SYMBOL    EDATA    WORD      x
      00000394H   SYMBOL    EDATA    WORD      y
      00000396H   SYMBOL    EDATA    FLOAT     dat
      0000039AH   SYMBOL    EDATA    BYTE      num
      0000039BH   SYMBOL    EDATA    BYTE      pointnum
      0000039CH   SYMBOL    EDATA    BYTE      length
      0000039DH   SYMBOL    EDATA    ---       buff
      000003BFH   SYMBOL    EDATA    CHAR      start
      000003C0H   SYMBOL    EDATA    CHAR      end
      000003C1H   SYMBOL    EDATA    CHAR      point
      000005F2H   SYMBOL    EDATA    WORD      high
      000005F4H   SYMBOL    EDATA    WORD      width
      000005F6H   SYMBOL    EDATA    ---       p
      000005FAH   SYMBOL    EDATA    BYTE      value
      000005FBH   SYMBOL    EDATA    WORD      i
      000005FDH   SYMBOL    EDATA    WORD      j
      000005FFH   SYMBOL    EDATA    WORD      temp
      00000601H   SYMBOL    EDATA    WORD      temp1
      00000603H   SYMBOL    EDATA    BYTE      dat
      00000652H   SYMBOL    EDATA    BYTE      x
      00000653H   SYMBOL    EDATA    BYTE      y
      00000654H   SYMBOL    EDATA    BYTE      size
      00000655H   SYMBOL    EDATA    ---       p
      00000659H   SYMBOL    EDATA    BYTE      len
      0000065AH   SYMBOL    EDATA    WORD      i
      0000065CH   SYMBOL    EDATA    WORD      j
      0000065EH   SYMBOL    EDATA    WORD      k

      00FF769FH   BLOCK     CODE     ---       LVL=0
      00000B42H   SYMBOL    EDATA    BYTE      dat
      00FF769FH   LINE      CODE     ---       #534
      00FF76A3H   LINE      CODE     ---       #536
      00FF76A6H   LINE      CODE     ---       #537
      00FF76A9H   LINE      CODE     ---       #538
L251 LINKER/LOCATER V4.66.93.0                                                        10/07/2023  14:21:18  PAGE 80


      00FF76B0H   LINE      CODE     ---       #539
      00FF76B3H   LINE      CODE     ---       #542
      ---         BLOCKEND  ---      ---       LVL=0

      00FF768AH   BLOCK     CODE     ---       LVL=0
      00000B43H   SYMBOL    EDATA    BYTE      cmd
      00FF768AH   LINE      CODE     ---       #576
      00FF768EH   LINE      CODE     ---       #578
      00FF7691H   LINE      CODE     ---       #579
      00FF7694H   LINE      CODE     ---       #580
      00FF769BH   LINE      CODE     ---       #581
      00FF769EH   LINE      CODE     ---       #582
      ---         BLOCKEND  ---      ---       LVL=0
      0000095CH   SYMBOL    EDATA    WORD      hex
      0000095EH   SYMBOL    EDATA    ---       Print
      00000962H   SYMBOL    EDATA    BYTE      hexcheck
      00000963H   SYMBOL    EDATA    BYTE      TEMP

      00FF7222H   BLOCK     CODE     ---       LVL=0
      00000B2DH   SYMBOL    EDATA    BYTE      x
      00000B2EH   SYMBOL    EDATA    BYTE      y
      00FF7222H   LINE      CODE     ---       #672
      00FF722AH   LINE      CODE     ---       #676
      00FF7235H   LINE      CODE     ---       #677
      00FF724CH   LINE      CODE     ---       #678
      00FF7257H   LINE      CODE     ---       #679
      ---         BLOCKEND  ---      ---       LVL=0
      00000AE7H   SYMBOL    EDATA    BYTE      bmp_data
      00000AE8H   SYMBOL    EDATA    BYTE      y
      00000AE9H   SYMBOL    EDATA    BYTE      x
      00000AEAH   SYMBOL    EDATA    BYTE      x
      00000AEBH   SYMBOL    EDATA    BYTE      y
      00000AECH   SYMBOL    EDATA    BYTE      data1
      00000B2FH   SYMBOL    EDATA    BYTE      x
      00000B30H   SYMBOL    EDATA    BYTE      y
      000008E1H   SYMBOL    EDATA    BYTE      x
      000008E2H   SYMBOL    EDATA    BYTE      y
      000008E3H   SYMBOL    EDATA    ---       ch
      000008E7H   SYMBOL    EDATA    BYTE      c
      000008E8H   SYMBOL    EDATA    BYTE      i
      000008E9H   SYMBOL    EDATA    BYTE      j
      000008EAH   SYMBOL    EDATA    BYTE      x
      000008EBH   SYMBOL    EDATA    BYTE      y
      000008ECH   SYMBOL    EDATA    ---       ch
      000008F0H   SYMBOL    EDATA    BYTE      c
      000008F1H   SYMBOL    EDATA    BYTE      i
      000008F2H   SYMBOL    EDATA    BYTE      j
      000007A9H   SYMBOL    EDATA    BYTE      x
      000007AAH   SYMBOL    EDATA    BYTE      y
      000007ABH   SYMBOL    EDATA    WORD      num
      000007ADH   SYMBOL    EDATA    ---       ch
      000007B4H   SYMBOL    EDATA    BYTE      x
      000007B5H   SYMBOL    EDATA    BYTE      y
      000007B6H   SYMBOL    EDATA    INT       num
      000007B8H   SYMBOL    EDATA    ---       ch
      000004FDH   SYMBOL    EDATA    WORD      x
      000004FFH   SYMBOL    EDATA    WORD      y
      00000501H   SYMBOL    EDATA    LONG      dat
      00000505H   SYMBOL    EDATA    BYTE      num
      00000506H   SYMBOL    EDATA    ---       buff
      00000528H   SYMBOL    EDATA    BYTE      length
      000003C2H   SYMBOL    EDATA    WORD      x
      000003C4H   SYMBOL    EDATA    WORD      y
      000003C6H   SYMBOL    EDATA    FLOAT     dat
      000003CAH   SYMBOL    EDATA    BYTE      num
L251 LINKER/LOCATER V4.66.93.0                                                        10/07/2023  14:21:18  PAGE 81


      000003CBH   SYMBOL    EDATA    BYTE      pointnum
      000003CCH   SYMBOL    EDATA    BYTE      length
      000003CDH   SYMBOL    EDATA    ---       buff
      000003EFH   SYMBOL    EDATA    CHAR      start
      000003F0H   SYMBOL    EDATA    CHAR      end
      000003F1H   SYMBOL    EDATA    CHAR      point
      00000604H   SYMBOL    EDATA    WORD      high
      00000606H   SYMBOL    EDATA    WORD      width
      00000608H   SYMBOL    EDATA    ---       p
      0000060CH   SYMBOL    EDATA    BYTE      value
      0000060DH   SYMBOL    EDATA    WORD      i
      0000060FH   SYMBOL    EDATA    WORD      j
      00000611H   SYMBOL    EDATA    WORD      temp
      00000613H   SYMBOL    EDATA    WORD      temp1
      00000615H   SYMBOL    EDATA    BYTE      dat
      00000660H   SYMBOL    EDATA    BYTE      x
      00000661H   SYMBOL    EDATA    BYTE      y
      00000662H   SYMBOL    EDATA    BYTE      size
      00000663H   SYMBOL    EDATA    ---       p
      00000667H   SYMBOL    EDATA    BYTE      len
      00000668H   SYMBOL    EDATA    WORD      i
      0000066AH   SYMBOL    EDATA    WORD      j
      0000066CH   SYMBOL    EDATA    WORD      k

      ---         MODULE    ---      ---       SEEKFREE_PRINTF
      000005A5H   PUBLIC    EDATA    BYTE      ?number_conversion_ascii?BYTE
      0000014EH   PUBLIC    EDATA    BYTE      ?zf_sprintf?BYTE
      000000D0H   SFRSYM    DATA     BYTE      PSW
      0000009DH   SFRSYM    DATA     BYTE      IRCBAND
      00000097H   SFRSYM    DATA     BYTE      AUXR2
      000000EFH   SFRSYM    DATA     BYTE      AUXINTIF
      000000FDH   SFRSYM    DATA     BYTE      S4CON
      000000ACH   SFRSYM    DATA     BYTE      S3CON
      0000009AH   SFRSYM    DATA     BYTE      S2CON
      000000B7H   SFRSYM    DATA     BYTE      IPH
      000000CDH   SFRSYM    DATA     BYTE      SPSTAT
      000000DDH   SFRSYM    DATA     BYTE      T4T3M
      000000C1H   SFRSYM    DATA     BYTE      WDT_CONTR
      000000DFH   SFRSYM    DATA     BYTE      IP3
      000000F4H   SFRSYM    DATA     BYTE      USBCON
      000000B5H   SFRSYM    DATA     BYTE      IP2
      000000FFH   SFRSYM    DATA     BYTE      RSTCFG
      000000F9H   SFRSYM    DATA     BYTE      LINICR
      0000008EH   SFRSYM    DATA     BYTE      AUXR
      000000AFH   SFRSYM    DATA     BYTE      IE2
      00000088H   SFRSYM    DATA     BYTE      TCON
      00000098H   SFRSYM    DATA     BYTE      SCON
      000000F1H   SFRSYM    DATA     BYTE      CANICR
      00000087H   SFRSYM    DATA     BYTE      PCON
      000000BCH   SFRSYM    DATA     BYTE      ADC_CONTR
      000000E7H   SFRSYM    DATA     BYTE      CMPCR2
      000000E6H   SFRSYM    DATA     BYTE      CMPCR1
      000000B8H   SFRSYM    DATA     BYTE      IP
      0000008FH   SFRSYM    DATA     BYTE      INTCLKO
      000000EEH   SFRSYM    DATA     BYTE      IP3H
      000000B6H   SFRSYM    DATA     BYTE      IP2H
      000000A8H   SFRSYM    DATA     BYTE      IE
      000000BBH   SFRSYM    DATA     BYTE      P_SW3
      000000BAH   SFRSYM    DATA     BYTE      P_SW2
      000000A2H   SFRSYM    DATA     BYTE      P_SW1
      000000CEH   SFRSYM    DATA     BYTE      SPCTL
      000000F8H   SFRSYM    DATA     BYTE      P7
      000000E8H   SFRSYM    DATA     BYTE      P6
      000000C8H   SFRSYM    DATA     BYTE      P5
      000000C0H   SFRSYM    DATA     BYTE      P4
L251 LINKER/LOCATER V4.66.93.0                                                        10/07/2023  14:21:18  PAGE 82


      000000B0H   SFRSYM    DATA     BYTE      P3
      000000A0H   SFRSYM    DATA     BYTE      P2
      00000090H   SFRSYM    DATA     BYTE      P1
      00000080H   SFRSYM    DATA     BYTE      P0
      000005A5H   SYMBOL    EDATA    DWORD     dat
      000005A9H   SYMBOL    EDATA    ---       p
      000005ADH   SYMBOL    EDATA    BYTE      neg_type
      000005AEH   SYMBOL    EDATA    BYTE      radix
      000005AFH   SYMBOL    EDATA    LONG      neg_dat
      000005B3H   SYMBOL    EDATA    DWORD     pos_dat
      000005B7H   SYMBOL    EDATA    BYTE      temp_data
      000005B8H   SYMBOL    EDATA    BYTE      valid_num
      00000689H   SYMBOL    EDATA    ---       d_buff
      0000068DH   SYMBOL    EDATA    DWORD     len
      00000691H   SYMBOL    EDATA    DWORD     i
      00000695H   SYMBOL    EDATA    CHAR      temp_data
      0000014EH   SYMBOL    EDATA    ---       buff
      00000152H   SYMBOL    EDATA    ---       format
      00000156H   SYMBOL    EDATA    DWORD     buff_len
      0000015AH   SYMBOL    EDATA    ---       arg
      0000015EH   SYMBOL    EDATA    CHAR      ret
      0000015FH   SYMBOL    EDATA    CHAR      ch
      0000015FH   SYMBOL    EDATA    ---       vstr
      00000180H   SYMBOL    EDATA    LONG      ival
      00000184H   SYMBOL    EDATA    BYTE      vlen
      0000015FH   SYMBOL    EDATA    ---       vstr
      00000180H   SYMBOL    EDATA    FLOAT     ival
      00000184H   SYMBOL    EDATA    BYTE      vlen
      0000015FH   SYMBOL    EDATA    ---       vstr
      00000180H   SYMBOL    EDATA    DWORD     ival
      00000184H   SYMBOL    EDATA    BYTE      vlen
      0000015FH   SYMBOL    EDATA    ---       vstr
      00000180H   SYMBOL    EDATA    DWORD     ival
      00000184H   SYMBOL    EDATA    BYTE      vlen
      0000015FH   SYMBOL    EDATA    ---       vstr
      00000180H   SYMBOL    EDATA    DWORD     ival
      00000184H   SYMBOL    EDATA    BYTE      vlen
      0000015FH   SYMBOL    EDATA    ---       pc
      0000015FH   SYMBOL    EDATA    ---       vstr
      00000180H   SYMBOL    EDATA    DWORD     ival

      ---         MODULE    ---      ---       SEEKFREE_VIRSCO
      00000823H   PUBLIC    EDATA    ---       virtual_scope_data
      0000066EH   PUBLIC    EDATA    BYTE      ?data_conversion?BYTE
      000000D0H   SFRSYM    DATA     BYTE      PSW
      0000009DH   SFRSYM    DATA     BYTE      IRCBAND
      00000097H   SFRSYM    DATA     BYTE      AUXR2
      000000EFH   SFRSYM    DATA     BYTE      AUXINTIF
      000000FDH   SFRSYM    DATA     BYTE      S4CON
      000000ACH   SFRSYM    DATA     BYTE      S3CON
      0000009AH   SFRSYM    DATA     BYTE      S2CON
      000000B7H   SFRSYM    DATA     BYTE      IPH
      000000CDH   SFRSYM    DATA     BYTE      SPSTAT
      000000DDH   SFRSYM    DATA     BYTE      T4T3M
      000000C1H   SFRSYM    DATA     BYTE      WDT_CONTR
      000000DFH   SFRSYM    DATA     BYTE      IP3
      000000F4H   SFRSYM    DATA     BYTE      USBCON
      000000B5H   SFRSYM    DATA     BYTE      IP2
      000000FFH   SFRSYM    DATA     BYTE      RSTCFG
      000000F9H   SFRSYM    DATA     BYTE      LINICR
      0000008EH   SFRSYM    DATA     BYTE      AUXR
      000000AFH   SFRSYM    DATA     BYTE      IE2
      00000088H   SFRSYM    DATA     BYTE      TCON
      00000098H   SFRSYM    DATA     BYTE      SCON
      000000F1H   SFRSYM    DATA     BYTE      CANICR
L251 LINKER/LOCATER V4.66.93.0                                                        10/07/2023  14:21:18  PAGE 83


      00000087H   SFRSYM    DATA     BYTE      PCON
      000000BCH   SFRSYM    DATA     BYTE      ADC_CONTR
      000000E7H   SFRSYM    DATA     BYTE      CMPCR2
      000000E6H   SFRSYM    DATA     BYTE      CMPCR1
      000000B8H   SFRSYM    DATA     BYTE      IP
      0000008FH   SFRSYM    DATA     BYTE      INTCLKO
      000000EEH   SFRSYM    DATA     BYTE      IP3H
      000000B6H   SFRSYM    DATA     BYTE      IP2H
      000000A8H   SFRSYM    DATA     BYTE      IE
      000000BBH   SFRSYM    DATA     BYTE      P_SW3
      000000BAH   SFRSYM    DATA     BYTE      P_SW2
      000000A2H   SFRSYM    DATA     BYTE      P_SW1
      000000CEH   SFRSYM    DATA     BYTE      SPCTL
      000000F8H   SFRSYM    DATA     BYTE      P7
      000000E8H   SFRSYM    DATA     BYTE      P6
      000000C8H   SFRSYM    DATA     BYTE      P5
      000000C0H   SFRSYM    DATA     BYTE      P4
      000000B0H   SFRSYM    DATA     BYTE      P3
      000000A0H   SFRSYM    DATA     BYTE      P2
      00000090H   SFRSYM    DATA     BYTE      P1
      00000080H   SFRSYM    DATA     BYTE      P0
      000008F3H   SYMBOL    EDATA    ---       Buf
      000008F7H   SYMBOL    EDATA    BYTE      CRC_CNT
      000008F8H   SYMBOL    EDATA    WORD      CRC_Temp
      000008FAH   SYMBOL    EDATA    BYTE      i
      000008FBH   SYMBOL    EDATA    BYTE      j
      0000066EH   SYMBOL    EDATA    INT       data1
      00000670H   SYMBOL    EDATA    INT       data2
      00000672H   SYMBOL    EDATA    INT       data3
      00000674H   SYMBOL    EDATA    INT       data4
      00000676H   SYMBOL    EDATA    ---       dat
      0000067AH   SYMBOL    EDATA    WORD      CRC16

      ---         MODULE    ---      ---       SEEKFREE_WIRELESS
      00FF75D6H   PUBLIC    CODE     ---       wireless_uart_callback
      000000D0H   SFRSYM    DATA     BYTE      PSW
      0000009DH   SFRSYM    DATA     BYTE      IRCBAND
      00000097H   SFRSYM    DATA     BYTE      AUXR2
      000000EFH   SFRSYM    DATA     BYTE      AUXINTIF
      000000FDH   SFRSYM    DATA     BYTE      S4CON
      000000ACH   SFRSYM    DATA     BYTE      S3CON
      0000009AH   SFRSYM    DATA     BYTE      S2CON
      000000FEH   SFRSYM    DATA     BYTE      S4BUF
      000000B7H   SFRSYM    DATA     BYTE      IPH
      000000CDH   SFRSYM    DATA     BYTE      SPSTAT
      000000DDH   SFRSYM    DATA     BYTE      T4T3M
      000000C1H   SFRSYM    DATA     BYTE      WDT_CONTR
      000000DFH   SFRSYM    DATA     BYTE      IP3
      000000F4H   SFRSYM    DATA     BYTE      USBCON
      000000B5H   SFRSYM    DATA     BYTE      IP2
      000000FFH   SFRSYM    DATA     BYTE      RSTCFG
      000000F9H   SFRSYM    DATA     BYTE      LINICR
      0000008EH   SFRSYM    DATA     BYTE      AUXR
      000000AFH   SFRSYM    DATA     BYTE      IE2
      00000080H.7 SFRSYM    DATA     BIT       P07
      00000088H   SFRSYM    DATA     BYTE      TCON
      00000098H   SFRSYM    DATA     BYTE      SCON
      000000F1H   SFRSYM    DATA     BYTE      CANICR
      00000087H   SFRSYM    DATA     BYTE      PCON
      000000BCH   SFRSYM    DATA     BYTE      ADC_CONTR
      000000E7H   SFRSYM    DATA     BYTE      CMPCR2
      000000E6H   SFRSYM    DATA     BYTE      CMPCR1
      000000B8H   SFRSYM    DATA     BYTE      IP
      0000008FH   SFRSYM    DATA     BYTE      INTCLKO
      000000EEH   SFRSYM    DATA     BYTE      IP3H
L251 LINKER/LOCATER V4.66.93.0                                                        10/07/2023  14:21:18  PAGE 84


      000000B6H   SFRSYM    DATA     BYTE      IP2H
      000000A8H   SFRSYM    DATA     BYTE      IE
      000000BBH   SFRSYM    DATA     BYTE      P_SW3
      000000BAH   SFRSYM    DATA     BYTE      P_SW2
      000000A2H   SFRSYM    DATA     BYTE      P_SW1
      000000CEH   SFRSYM    DATA     BYTE      SPCTL
      000000F8H   SFRSYM    DATA     BYTE      P7
      000000E8H   SFRSYM    DATA     BYTE      P6
      000000C8H   SFRSYM    DATA     BYTE      P5
      000000C0H   SFRSYM    DATA     BYTE      P4
      000000B0H   SFRSYM    DATA     BYTE      P3
      000000A0H   SFRSYM    DATA     BYTE      P2
      00000090H   SFRSYM    DATA     BYTE      P1
      00000080H   SFRSYM    DATA     BYTE      P0
      000001DAH   SYMBOL    EDATA    BYTE      wireless_uart_data
      000001DBH   SYMBOL    EDATA    ---       wireless_uart_fifo
      000001EFH   SYMBOL    EDATA    ---       wireless_uart_buffer

      00FF75D6H   BLOCK     CODE     ---       LVL=0
      00FF75D6H   LINE      CODE     ---       #48
      00FF75D6H   LINE      CODE     ---       #51
      00FF75DCH   LINE      CODE     ---       #52
      00FF75EFH   LINE      CODE     ---       #53
      ---         BLOCKEND  ---      ---       LVL=0
      00000A2EH   SYMBOL    EDATA    ---       buff
      00000A32H   SYMBOL    EDATA    WORD      len
      00000763H   SYMBOL    EDATA    ---       buff
      00000767H   SYMBOL    EDATA    DWORD     len
      0000076BH   SYMBOL    EDATA    DWORD     data_len

      ---         MODULE    ---      ---       SEEKFREE_WIRELESS_CH573
      00FF75F0H   PUBLIC    CODE     ---       wireless_ch573_callback
      000000D0H   SFRSYM    DATA     BYTE      PSW
      0000009DH   SFRSYM    DATA     BYTE      IRCBAND
      00000097H   SFRSYM    DATA     BYTE      AUXR2
      000000EFH   SFRSYM    DATA     BYTE      AUXINTIF
      000000FDH   SFRSYM    DATA     BYTE      S4CON
      000000ACH   SFRSYM    DATA     BYTE      S3CON
      0000009AH   SFRSYM    DATA     BYTE      S2CON
      000000FEH   SFRSYM    DATA     BYTE      S4BUF
      000000B7H   SFRSYM    DATA     BYTE      IPH
      000000CDH   SFRSYM    DATA     BYTE      SPSTAT
      000000DDH   SFRSYM    DATA     BYTE      T4T3M
      000000C1H   SFRSYM    DATA     BYTE      WDT_CONTR
      000000DFH   SFRSYM    DATA     BYTE      IP3
      000000F4H   SFRSYM    DATA     BYTE      USBCON
      000000B5H   SFRSYM    DATA     BYTE      IP2
      000000FFH   SFRSYM    DATA     BYTE      RSTCFG
      000000F9H   SFRSYM    DATA     BYTE      LINICR
      0000008EH   SFRSYM    DATA     BYTE      AUXR
      000000AFH   SFRSYM    DATA     BYTE      IE2
      00000080H.7 SFRSYM    DATA     BIT       P07
      00000088H   SFRSYM    DATA     BYTE      TCON
      00000098H   SFRSYM    DATA     BYTE      SCON
      000000F1H   SFRSYM    DATA     BYTE      CANICR
      00000087H   SFRSYM    DATA     BYTE      PCON
      000000BCH   SFRSYM    DATA     BYTE      ADC_CONTR
      000000E7H   SFRSYM    DATA     BYTE      CMPCR2
      000000E6H   SFRSYM    DATA     BYTE      CMPCR1
      000000B8H   SFRSYM    DATA     BYTE      IP
      0000008FH   SFRSYM    DATA     BYTE      INTCLKO
      000000EEH   SFRSYM    DATA     BYTE      IP3H
      000000B6H   SFRSYM    DATA     BYTE      IP2H
      000000A8H   SFRSYM    DATA     BYTE      IE
      000000BBH   SFRSYM    DATA     BYTE      P_SW3
L251 LINKER/LOCATER V4.66.93.0                                                        10/07/2023  14:21:18  PAGE 85


      000000BAH   SFRSYM    DATA     BYTE      P_SW2
      000000A2H   SFRSYM    DATA     BYTE      P_SW1
      000000CEH   SFRSYM    DATA     BYTE      SPCTL
      000000F8H   SFRSYM    DATA     BYTE      P7
      000000E8H   SFRSYM    DATA     BYTE      P6
      000000C8H   SFRSYM    DATA     BYTE      P5
      000000C0H   SFRSYM    DATA     BYTE      P4
      000000B0H   SFRSYM    DATA     BYTE      P3
      000000A0H   SFRSYM    DATA     BYTE      P2
      00000090H   SFRSYM    DATA     BYTE      P1
      00000080H   SFRSYM    DATA     BYTE      P0
      0000022FH   SYMBOL    EDATA    ---       wireless_ch573_buffer
      0000026FH   SYMBOL    EDATA    BYTE      wireless_ch573_data
      00000270H   SYMBOL    EDATA    ---       wireless_ch573_fifo

      00FF75F0H   BLOCK     CODE     ---       LVL=0
      00FF75F0H   LINE      CODE     ---       #47
      00FF75F0H   LINE      CODE     ---       #50
      00FF75F6H   LINE      CODE     ---       #51
      00FF7609H   LINE      CODE     ---       #52
      ---         BLOCKEND  ---      ---       LVL=0
      00000A34H   SYMBOL    EDATA    ---       buff
      00000A38H   SYMBOL    EDATA    WORD      len
      0000076FH   SYMBOL    EDATA    ---       buff
      00000773H   SYMBOL    EDATA    DWORD     len
      00000777H   SYMBOL    EDATA    DWORD     data_len

      ---         MODULE    ---      ---       isr
      00FF7099H   PUBLIC    CODE     ---       UART1_Isr
      00FF7549H   PUBLIC    CODE     ---       UART2_Isr
      00FF7567H   PUBLIC    CODE     ---       UART3_Isr
      00FF66E2H   PUBLIC    CODE     ---       UART4_Isr
      00FF0046H   PUBLIC    CODE     ---       INT0_Isr
      00FF000AH   PUBLIC    CODE     ---       INT1_Isr
      00FF7712H   PUBLIC    CODE     ---       INT2_Isr
      00FF771AH   PUBLIC    CODE     ---       INT3_Isr
      00FF7722H   PUBLIC    CODE     ---       INT4_Isr
      00FF72C2H   PUBLIC    CODE     ---       TM0_Isr
      00FF000EH   PUBLIC    CODE     ---       TM1_Isr
      00FF772AH   PUBLIC    CODE     ---       TM2_Isr
      00FF7732H   PUBLIC    CODE     ---       TM3_Isr
      00FF773AH   PUBLIC    CODE     ---       TM4_Isr
      00000696H   PUBLIC    EDATA    ---       toipid_speed_right
      0000069AH   PUBLIC    EDATA    ---       toipid_speed_left
      0000069EH   PUBLIC    EDATA    WORD      right_speed_in
      000006A0H   PUBLIC    EDATA    WORD      left_speed_in
      000000D0H   SFRSYM    DATA     BYTE      PSW
      0000009DH   SFRSYM    DATA     BYTE      IRCBAND
      00000097H   SFRSYM    DATA     BYTE      AUXR2
      000000EFH   SFRSYM    DATA     BYTE      AUXINTIF
      000000FDH   SFRSYM    DATA     BYTE      S4CON
      000000ACH   SFRSYM    DATA     BYTE      S3CON
      0000009AH   SFRSYM    DATA     BYTE      S2CON
      000000B7H   SFRSYM    DATA     BYTE      IPH
      000000CDH   SFRSYM    DATA     BYTE      SPSTAT
      000000DDH   SFRSYM    DATA     BYTE      T4T3M
      000000C1H   SFRSYM    DATA     BYTE      WDT_CONTR
      000000DFH   SFRSYM    DATA     BYTE      IP3
      000000F4H   SFRSYM    DATA     BYTE      USBCON
      000000B5H   SFRSYM    DATA     BYTE      IP2
      000000FFH   SFRSYM    DATA     BYTE      RSTCFG
      000000C7H   SFRSYM    DATA     BYTE      IAP_CONTR
      000000F9H   SFRSYM    DATA     BYTE      LINICR
      0000008EH   SFRSYM    DATA     BYTE      AUXR
      000000AFH   SFRSYM    DATA     BYTE      IE2
L251 LINKER/LOCATER V4.66.93.0                                                        10/07/2023  14:21:18  PAGE 86


      000000C8H.2 SFRSYM    DATA     BIT       P52
      00000088H   SFRSYM    DATA     BYTE      TCON
      00000098H   SFRSYM    DATA     BYTE      SCON
      000000F1H   SFRSYM    DATA     BYTE      CANICR
      00000087H   SFRSYM    DATA     BYTE      PCON
      00000099H   SFRSYM    DATA     BYTE      SBUF
      000000BCH   SFRSYM    DATA     BYTE      ADC_CONTR
      000000E7H   SFRSYM    DATA     BYTE      CMPCR2
      000000E6H   SFRSYM    DATA     BYTE      CMPCR1
      000000B8H   SFRSYM    DATA     BYTE      IP
      0000008FH   SFRSYM    DATA     BYTE      INTCLKO
      000000EEH   SFRSYM    DATA     BYTE      IP3H
      000000B6H   SFRSYM    DATA     BYTE      IP2H
      000000A8H   SFRSYM    DATA     BYTE      IE
      000000BBH   SFRSYM    DATA     BYTE      P_SW3
      000000BAH   SFRSYM    DATA     BYTE      P_SW2
      000000A2H   SFRSYM    DATA     BYTE      P_SW1
      000000CEH   SFRSYM    DATA     BYTE      SPCTL
      000000F8H   SFRSYM    DATA     BYTE      P7
      000000E8H   SFRSYM    DATA     BYTE      P6
      000000C8H   SFRSYM    DATA     BYTE      P5
      000000C0H   SFRSYM    DATA     BYTE      P4
      000000B0H   SFRSYM    DATA     BYTE      P3
      000000A0H   SFRSYM    DATA     BYTE      P2
      00000090H   SFRSYM    DATA     BYTE      P1
      00000080H   SFRSYM    DATA     BYTE      P0

      00FF7099H   BLOCK     CODE     ---       LVL=0
      00FF709DH   BLOCK     CODE     NEAR LAB  LVL=1
      00000B44H   SYMBOL    EDATA    BYTE      res
      000006A2H   SYMBOL    EDATA    BYTE      dwon_count
      ---         BLOCKEND  ---      ---       LVL=1
      00FF7099H   LINE      CODE     ---       #31
      00FF709DH   LINE      CODE     ---       #32
      00FF709DH   LINE      CODE     ---       #35
      00FF70A2H   LINE      CODE     ---       #37
      00FF70A5H   LINE      CODE     ---       #38
      00FF70AAH   LINE      CODE     ---       #39
      00FF70AAH   LINE      CODE     ---       #40
      00FF70AFH   LINE      CODE     ---       #42
      00FF70B2H   LINE      CODE     ---       #43
      00FF70B8H   LINE      CODE     ---       #45
      00FF70BDH   LINE      CODE     ---       #47
      00FF70CFH   LINE      CODE     ---       #48
      00FF70D3H   LINE      CODE     ---       #49
      00FF70D5H   LINE      CODE     ---       #52
      00FF70DAH   LINE      CODE     ---       #53
      00FF70DAH   LINE      CODE     ---       #54
      ---         BLOCKEND  ---      ---       LVL=0

      00FF7549H   BLOCK     CODE     ---       LVL=0
      00FF7549H   LINE      CODE     ---       #58
      00FF754DH   LINE      CODE     ---       #60
      00FF7552H   LINE      CODE     ---       #62
      00FF7555H   LINE      CODE     ---       #63
      00FF755AH   LINE      CODE     ---       #64
      00FF755AH   LINE      CODE     ---       #65
      00FF755FH   LINE      CODE     ---       #67
      00FF7562H   LINE      CODE     ---       #70
      ---         BLOCKEND  ---      ---       LVL=0

      00FF7567H   BLOCK     CODE     ---       LVL=0
      00FF7567H   LINE      CODE     ---       #75
      00FF756BH   LINE      CODE     ---       #77
      00FF7570H   LINE      CODE     ---       #79
L251 LINKER/LOCATER V4.66.93.0                                                        10/07/2023  14:21:18  PAGE 87


      00FF7573H   LINE      CODE     ---       #80
      00FF7578H   LINE      CODE     ---       #81
      00FF7578H   LINE      CODE     ---       #82
      00FF757DH   LINE      CODE     ---       #84
      00FF7580H   LINE      CODE     ---       #87
      ---         BLOCKEND  ---      ---       LVL=0

      00FF66E2H   BLOCK     CODE     ---       LVL=0
      00FF66E2H   LINE      CODE     ---       #92
      00FF66F8H   LINE      CODE     ---       #94
      00FF66FDH   LINE      CODE     ---       #96
      00FF6700H   LINE      CODE     ---       #97
      00FF6705H   LINE      CODE     ---       #98
      00FF6705H   LINE      CODE     ---       #99
      00FF670AH   LINE      CODE     ---       #101
      00FF670DH   LINE      CODE     ---       #104
      00FF6719H   LINE      CODE     ---       #106
      00FF671CH   LINE      CODE     ---       #107
      00FF671EH   LINE      CODE     ---       #108
      00FF672AH   LINE      CODE     ---       #110
      00FF672DH   LINE      CODE     ---       #111
      00FF672FH   LINE      CODE     ---       #112
      00FF673BH   LINE      CODE     ---       #114
      00FF673EH   LINE      CODE     ---       #115
      00FF673EH   LINE      CODE     ---       #117
      ---         BLOCKEND  ---      ---       LVL=0

      00FF0046H   BLOCK     CODE     ---       LVL=0
      00FF0046H   LINE      CODE     ---       #120
      00FF0048H   LINE      CODE     ---       #122
      00FF004BH   LINE      CODE     ---       #123
      ---         BLOCKEND  ---      ---       LVL=0

      00FF000AH   BLOCK     CODE     ---       LVL=0
      00FF000AH   LINE      CODE     ---       #124
      00FF000AH   LINE      CODE     ---       #127
      ---         BLOCKEND  ---      ---       LVL=0

      00FF7712H   BLOCK     CODE     ---       LVL=0
      00FF7712H   LINE      CODE     ---       #128
      00FF7714H   LINE      CODE     ---       #130
      00FF7717H   LINE      CODE     ---       #131
      ---         BLOCKEND  ---      ---       LVL=0

      00FF771AH   BLOCK     CODE     ---       LVL=0
      00FF771AH   LINE      CODE     ---       #132
      00FF771CH   LINE      CODE     ---       #134
      00FF771FH   LINE      CODE     ---       #135
      ---         BLOCKEND  ---      ---       LVL=0

      00FF7722H   BLOCK     CODE     ---       LVL=0
      00FF7722H   LINE      CODE     ---       #137
      00FF7724H   LINE      CODE     ---       #139
      00FF7727H   LINE      CODE     ---       #140
      ---         BLOCKEND  ---      ---       LVL=0

      00FF72C2H   BLOCK     CODE     ---       LVL=0
      00FF72C2H   LINE      CODE     ---       #141
      00FF72D8H   LINE      CODE     ---       #148
      00FF72DBH   LINE      CODE     ---       #149
      00FF72DEH   LINE      CODE     ---       #151
      ---         BLOCKEND  ---      ---       LVL=0

      00FF000EH   BLOCK     CODE     ---       LVL=0
      00FF000EH   LINE      CODE     ---       #152
L251 LINKER/LOCATER V4.66.93.0                                                        10/07/2023  14:21:18  PAGE 88


      00FF000EH   LINE      CODE     ---       #154
      ---         BLOCKEND  ---      ---       LVL=0

      00FF772AH   BLOCK     CODE     ---       LVL=0
      00FF772AH   LINE      CODE     ---       #155
      00FF772CH   LINE      CODE     ---       #157
      00FF772FH   LINE      CODE     ---       #158
      ---         BLOCKEND  ---      ---       LVL=0

      00FF7732H   BLOCK     CODE     ---       LVL=0
      00FF7732H   LINE      CODE     ---       #159
      00FF7734H   LINE      CODE     ---       #161
      00FF7737H   LINE      CODE     ---       #162
      ---         BLOCKEND  ---      ---       LVL=0

      00FF773AH   BLOCK     CODE     ---       LVL=0
      00FF773AH   LINE      CODE     ---       #165
      00FF773CH   LINE      CODE     ---       #167
      00FF773FH   LINE      CODE     ---       #172
      ---         BLOCKEND  ---      ---       LVL=0

      ---         MODULE    ---      ---       main
      00FF64EBH   PUBLIC    CODE     ---       main
      00000B31H   PUBLIC    EDATA    INT       protect_motor
      000000D0H   SFRSYM    DATA     BYTE      PSW
      0000009DH   SFRSYM    DATA     BYTE      IRCBAND
      00000097H   SFRSYM    DATA     BYTE      AUXR2
      000000EFH   SFRSYM    DATA     BYTE      AUXINTIF
      000000FDH   SFRSYM    DATA     BYTE      S4CON
      000000ACH   SFRSYM    DATA     BYTE      S3CON
      0000009AH   SFRSYM    DATA     BYTE      S2CON
      000000B7H   SFRSYM    DATA     BYTE      IPH
      000000CDH   SFRSYM    DATA     BYTE      SPSTAT
      000000DDH   SFRSYM    DATA     BYTE      T4T3M
      000000C1H   SFRSYM    DATA     BYTE      WDT_CONTR
      000000DFH   SFRSYM    DATA     BYTE      IP3
      000000F4H   SFRSYM    DATA     BYTE      USBCON
      000000B5H   SFRSYM    DATA     BYTE      IP2
      000000FFH   SFRSYM    DATA     BYTE      RSTCFG
      000000F9H   SFRSYM    DATA     BYTE      LINICR
      0000008EH   SFRSYM    DATA     BYTE      AUXR
      000000AFH   SFRSYM    DATA     BYTE      IE2
      00000088H   SFRSYM    DATA     BYTE      TCON
      00000098H   SFRSYM    DATA     BYTE      SCON
      000000F1H   SFRSYM    DATA     BYTE      CANICR
      00000087H   SFRSYM    DATA     BYTE      PCON
      000000BCH   SFRSYM    DATA     BYTE      ADC_CONTR
      000000E7H   SFRSYM    DATA     BYTE      CMPCR2
      000000E6H   SFRSYM    DATA     BYTE      CMPCR1
      000000B8H   SFRSYM    DATA     BYTE      IP
      0000008FH   SFRSYM    DATA     BYTE      INTCLKO
      000000EEH   SFRSYM    DATA     BYTE      IP3H
      000000B6H   SFRSYM    DATA     BYTE      IP2H
      000000A8H   SFRSYM    DATA     BYTE      IE
      000000BBH   SFRSYM    DATA     BYTE      P_SW3
      000000BAH   SFRSYM    DATA     BYTE      P_SW2
      000000A2H   SFRSYM    DATA     BYTE      P_SW1
      000000CEH   SFRSYM    DATA     BYTE      SPCTL
      000000F8H   SFRSYM    DATA     BYTE      P7
      000000E8H   SFRSYM    DATA     BYTE      P6
      000000C8H   SFRSYM    DATA     BYTE      P5
      000000C0H   SFRSYM    DATA     BYTE      P4
      000000B0H   SFRSYM    DATA     BYTE      P3
      000000A0H   SFRSYM    DATA     BYTE      P2
      00000090H   SFRSYM    DATA     BYTE      P1
L251 LINKER/LOCATER V4.66.93.0                                                        10/07/2023  14:21:18  PAGE 89


      00000080H   SFRSYM    DATA     BYTE      P0

      00FF64EBH   BLOCK     CODE     ---       LVL=0
      00FF64EBH   LINE      CODE     ---       #41
      00FF64EBH   LINE      CODE     ---       #43
      00FF64EEH   LINE      CODE     ---       #46
      00FF64F1H   LINE      CODE     ---       #47
      00FF64F4H   LINE      CODE     ---       #48
      00FF64F7H   LINE      CODE     ---       #49
      00FF6500H   LINE      CODE     ---       #50
      00FF6509H   LINE      CODE     ---       #51
      00FF6512H   LINE      CODE     ---       #54
      00FF651BH   LINE      CODE     ---       #56
      00FF651BH   LINE      CODE     ---       #59
      00FF6522H   LINE      CODE     ---       #60
      00FF652DH   LINE      CODE     ---       #61
      00FF653AH   LINE      CODE     ---       #62
      00FF6547H   LINE      CODE     ---       #70
      00FF6551H   LINE      CODE     ---       #71
      00FF656AH   LINE      CODE     ---       #72
      00FF6571H   LINE      CODE     ---       #74
      00FF6573H   LINE      CODE     ---       #75
      ---         BLOCKEND  ---      ---       LVL=0

      ---         MODULE    ---      ---       motor
      00FF750CH   PUBLIC    CODE     ---       protect
      00FF70DFH   PUBLIC    CODE     ---       motor_init
      00FF5FAFH   PUBLIC    CODE     ---       PWMSetMotor2
      000000D0H   SFRSYM    DATA     BYTE      PSW
      0000009DH   SFRSYM    DATA     BYTE      IRCBAND
      00000097H   SFRSYM    DATA     BYTE      AUXR2
      000000EFH   SFRSYM    DATA     BYTE      AUXINTIF
      000000FDH   SFRSYM    DATA     BYTE      S4CON
      000000ACH   SFRSYM    DATA     BYTE      S3CON
      0000009AH   SFRSYM    DATA     BYTE      S2CON
      000000B7H   SFRSYM    DATA     BYTE      IPH
      000000CDH   SFRSYM    DATA     BYTE      SPSTAT
      000000DDH   SFRSYM    DATA     BYTE      T4T3M
      000000C1H   SFRSYM    DATA     BYTE      WDT_CONTR
      000000DFH   SFRSYM    DATA     BYTE      IP3
      000000F4H   SFRSYM    DATA     BYTE      USBCON
      000000B5H   SFRSYM    DATA     BYTE      IP2
      000000FFH   SFRSYM    DATA     BYTE      RSTCFG
      000000F9H   SFRSYM    DATA     BYTE      LINICR
      0000008EH   SFRSYM    DATA     BYTE      AUXR
      000000AFH   SFRSYM    DATA     BYTE      IE2
      00000088H   SFRSYM    DATA     BYTE      TCON
      00000098H   SFRSYM    DATA     BYTE      SCON
      000000F1H   SFRSYM    DATA     BYTE      CANICR
      00000087H   SFRSYM    DATA     BYTE      PCON
      000000BCH   SFRSYM    DATA     BYTE      ADC_CONTR
      000000E7H   SFRSYM    DATA     BYTE      CMPCR2
      000000E6H   SFRSYM    DATA     BYTE      CMPCR1
      000000B8H   SFRSYM    DATA     BYTE      IP
      0000008FH   SFRSYM    DATA     BYTE      INTCLKO
      000000EEH   SFRSYM    DATA     BYTE      IP3H
      000000B6H   SFRSYM    DATA     BYTE      IP2H
      000000A8H   SFRSYM    DATA     BYTE      IE
      000000BBH   SFRSYM    DATA     BYTE      P_SW3
      000000BAH   SFRSYM    DATA     BYTE      P_SW2
      000000A2H   SFRSYM    DATA     BYTE      P_SW1
      000000CEH   SFRSYM    DATA     BYTE      SPCTL
      000000F8H   SFRSYM    DATA     BYTE      P7
      000000E8H   SFRSYM    DATA     BYTE      P6
      000000C8H   SFRSYM    DATA     BYTE      P5
L251 LINKER/LOCATER V4.66.93.0                                                        10/07/2023  14:21:18  PAGE 90


      000000C0H   SFRSYM    DATA     BYTE      P4
      000000B0H   SFRSYM    DATA     BYTE      P3
      000000A0H   SFRSYM    DATA     BYTE      P2
      00000090H   SFRSYM    DATA     BYTE      P1
      00000080H   SFRSYM    DATA     BYTE      P0

      00FF70DFH   BLOCK     CODE     ---       LVL=0
      00FF70DFH   LINE      CODE     ---       #13
      00FF70DFH   LINE      CODE     ---       #16
      00FF70F0H   LINE      CODE     ---       #17
      00FF7101H   LINE      CODE     ---       #19
      00FF7112H   LINE      CODE     ---       #20
      00FF7123H   LINE      CODE     ---       #22
      ---         BLOCKEND  ---      ---       LVL=0

      00FF5FAFH   BLOCK     CODE     ---       LVL=0
      00000AB0H   SYMBOL    EDATA    INT       speed_pwmL
      00000AB2H   SYMBOL    EDATA    INT       speed_pwmR
      00FF5FAFH   LINE      CODE     ---       #88
      00FF5FB7H   LINE      CODE     ---       #90
      00FF5FC3H   LINE      CODE     ---       #92
      00FF5FCBH   LINE      CODE     ---       #93
      00FF5FCBH   LINE      CODE     ---       #94
      00FF5FD7H   LINE      CODE     ---       #96
      00FF5FDFH   LINE      CODE     ---       #97
      00FF5FDFH   LINE      CODE     ---       #99
      00FF5FEBH   LINE      CODE     ---       #101
      00FF5FF3H   LINE      CODE     ---       #102
      00FF5FF3H   LINE      CODE     ---       #103
      00FF5FFFH   LINE      CODE     ---       #105
      00FF6007H   LINE      CODE     ---       #106
      00FF6007H   LINE      CODE     ---       #108
      00FF6011H   LINE      CODE     ---       #110
      00FF6020H   LINE      CODE     ---       #111
      00FF602BH   LINE      CODE     ---       #112
      00FF602DH   LINE      CODE     ---       #115
      00FF603BH   LINE      CODE     ---       #119
      00FF604AH   LINE      CODE     ---       #120
      00FF6053H   LINE      CODE     ---       #121
      00FF6053H   LINE      CODE     ---       #123
      00FF605DH   LINE      CODE     ---       #126
      00FF606CH   LINE      CODE     ---       #127
      00FF6077H   LINE      CODE     ---       #128
      00FF6079H   LINE      CODE     ---       #131
      00FF6087H   LINE      CODE     ---       #132
      00FF6096H   LINE      CODE     ---       #133
      00FF609FH   LINE      CODE     ---       #134
      00FF609FH   LINE      CODE     ---       #135
      ---         BLOCKEND  ---      ---       LVL=0

      00FF750CH   BLOCK     CODE     ---       LVL=0
      00FF750CH   LINE      CODE     ---       #162
      00FF750CH   LINE      CODE     ---       #163
      00FF7524H   LINE      CODE     ---       #164
      ---         BLOCKEND  ---      ---       LVL=0

      ---         MODULE    ---      ---       pid
      00000284H   PUBLIC    EDATA    FLOAT     ii1
      00000288H   PUBLIC    EDATA    FLOAT     ii2
      0000028CH   PUBLIC    EDATA    FLOAT     in1
      00000290H   PUBLIC    EDATA    FLOAT     in2
      00000294H   PUBLIC    EDATA    FLOAT     out1
      00000298H   PUBLIC    EDATA    FLOAT     out2
      0000029CH   PUBLIC    EDATA    FLOAT     pp1
      000002A0H   PUBLIC    EDATA    FLOAT     pp2
L251 LINKER/LOCATER V4.66.93.0                                                        10/07/2023  14:21:18  PAGE 91


      000002A4H   PUBLIC    EDATA    FLOAT     setpoint1
      000002A8H   PUBLIC    EDATA    FLOAT     setpoint2
      000002ACH   PUBLIC    EDATA    FLOAT     min_speed
      000002B0H   PUBLIC    EDATA    FLOAT     max_speed
      000002B4H   PUBLIC    EDATA    FLOAT     lastin1
      000002B8H   PUBLIC    EDATA    FLOAT     lastin2
      000002BCH   PUBLIC    EDATA    FLOAT     iterm1
      000002C0H   PUBLIC    EDATA    FLOAT     iterm2
      000002C4H   PUBLIC    EDATA    INT       accerror
      000002C6H   PUBLIC    EDATA    INT       lasterror
      000002C8H   PUBLIC    EDATA    FLOAT     dd1
      000002CCH   PUBLIC    EDATA    FLOAT     dd2
      000002D0H   PUBLIC    EDATA    INT       begin_speed
      000000D0H   SFRSYM    DATA     BYTE      PSW
      0000009DH   SFRSYM    DATA     BYTE      IRCBAND
      00000097H   SFRSYM    DATA     BYTE      AUXR2
      000000EFH   SFRSYM    DATA     BYTE      AUXINTIF
      000000FDH   SFRSYM    DATA     BYTE      S4CON
      000000ACH   SFRSYM    DATA     BYTE      S3CON
      0000009AH   SFRSYM    DATA     BYTE      S2CON
      000000B7H   SFRSYM    DATA     BYTE      IPH
      000000CDH   SFRSYM    DATA     BYTE      SPSTAT
      000000DDH   SFRSYM    DATA     BYTE      T4T3M
      000000C1H   SFRSYM    DATA     BYTE      WDT_CONTR
      000000DFH   SFRSYM    DATA     BYTE      IP3
      000000F4H   SFRSYM    DATA     BYTE      USBCON
      000000B5H   SFRSYM    DATA     BYTE      IP2
      000000FFH   SFRSYM    DATA     BYTE      RSTCFG
      000000F9H   SFRSYM    DATA     BYTE      LINICR
      0000008EH   SFRSYM    DATA     BYTE      AUXR
      000000AFH   SFRSYM    DATA     BYTE      IE2
      00000088H   SFRSYM    DATA     BYTE      TCON
      00000098H   SFRSYM    DATA     BYTE      SCON
      000000F1H   SFRSYM    DATA     BYTE      CANICR
      00000087H   SFRSYM    DATA     BYTE      PCON
      000000BCH   SFRSYM    DATA     BYTE      ADC_CONTR
      000000E7H   SFRSYM    DATA     BYTE      CMPCR2
      000000E6H   SFRSYM    DATA     BYTE      CMPCR1
      000000B8H   SFRSYM    DATA     BYTE      IP
      0000008FH   SFRSYM    DATA     BYTE      INTCLKO
      000000EEH   SFRSYM    DATA     BYTE      IP3H
      000000B6H   SFRSYM    DATA     BYTE      IP2H
      000000A8H   SFRSYM    DATA     BYTE      IE
      000000BBH   SFRSYM    DATA     BYTE      P_SW3
      000000BAH   SFRSYM    DATA     BYTE      P_SW2
      000000A2H   SFRSYM    DATA     BYTE      P_SW1
      000000CEH   SFRSYM    DATA     BYTE      SPCTL
      000000F8H   SFRSYM    DATA     BYTE      P7
      000000E8H   SFRSYM    DATA     BYTE      P6
      000000C8H   SFRSYM    DATA     BYTE      P5
      000000C0H   SFRSYM    DATA     BYTE      P4
      000000B0H   SFRSYM    DATA     BYTE      P3
      000000A0H   SFRSYM    DATA     BYTE      P2
      00000090H   SFRSYM    DATA     BYTE      P1
      00000080H   SFRSYM    DATA     BYTE      P0

      ---         MODULE    ---      ---       steer
      00FF71E6H   PUBLIC    CODE     ---       PWMSetSteer
      00FF76B4H   PUBLIC    CODE     ---       steer_init
      000000D0H   SFRSYM    DATA     BYTE      PSW
      0000009DH   SFRSYM    DATA     BYTE      IRCBAND
      00000097H   SFRSYM    DATA     BYTE      AUXR2
      000000EFH   SFRSYM    DATA     BYTE      AUXINTIF
      000000FDH   SFRSYM    DATA     BYTE      S4CON
      000000ACH   SFRSYM    DATA     BYTE      S3CON
L251 LINKER/LOCATER V4.66.93.0                                                        10/07/2023  14:21:18  PAGE 92


      0000009AH   SFRSYM    DATA     BYTE      S2CON
      000000B7H   SFRSYM    DATA     BYTE      IPH
      000000CDH   SFRSYM    DATA     BYTE      SPSTAT
      000000DDH   SFRSYM    DATA     BYTE      T4T3M
      000000C1H   SFRSYM    DATA     BYTE      WDT_CONTR
      000000DFH   SFRSYM    DATA     BYTE      IP3
      000000F4H   SFRSYM    DATA     BYTE      USBCON
      000000B5H   SFRSYM    DATA     BYTE      IP2
      000000FFH   SFRSYM    DATA     BYTE      RSTCFG
      000000F9H   SFRSYM    DATA     BYTE      LINICR
      0000008EH   SFRSYM    DATA     BYTE      AUXR
      000000AFH   SFRSYM    DATA     BYTE      IE2
      00000088H   SFRSYM    DATA     BYTE      TCON
      00000098H   SFRSYM    DATA     BYTE      SCON
      000000F1H   SFRSYM    DATA     BYTE      CANICR
      00000087H   SFRSYM    DATA     BYTE      PCON
      000000BCH   SFRSYM    DATA     BYTE      ADC_CONTR
      000000E7H   SFRSYM    DATA     BYTE      CMPCR2
      000000E6H   SFRSYM    DATA     BYTE      CMPCR1
      000000B8H   SFRSYM    DATA     BYTE      IP
      0000008FH   SFRSYM    DATA     BYTE      INTCLKO
      000000EEH   SFRSYM    DATA     BYTE      IP3H
      000000B6H   SFRSYM    DATA     BYTE      IP2H
      000000A8H   SFRSYM    DATA     BYTE      IE
      000000BBH   SFRSYM    DATA     BYTE      P_SW3
      000000BAH   SFRSYM    DATA     BYTE      P_SW2
      000000A2H   SFRSYM    DATA     BYTE      P_SW1
      000000CEH   SFRSYM    DATA     BYTE      SPCTL
      000000F8H   SFRSYM    DATA     BYTE      P7
      000000E8H   SFRSYM    DATA     BYTE      P6
      000000C8H   SFRSYM    DATA     BYTE      P5
      000000C0H   SFRSYM    DATA     BYTE      P4
      000000B0H   SFRSYM    DATA     BYTE      P3
      000000A0H   SFRSYM    DATA     BYTE      P2
      00000090H   SFRSYM    DATA     BYTE      P1
      00000080H   SFRSYM    DATA     BYTE      P0

      00FF76B4H   BLOCK     CODE     ---       LVL=0
      00FF76B4H   LINE      CODE     ---       #10
      00FF76B4H   LINE      CODE     ---       #13
      00FF76C7H   LINE      CODE     ---       #18
      ---         BLOCKEND  ---      ---       LVL=0

      00FF71E6H   BLOCK     CODE     ---       LVL=0
      00000B33H   SYMBOL    EDATA    INT       angle_pwm
      00FF71E6H   LINE      CODE     ---       #27
      00FF71EAH   LINE      CODE     ---       #32
      00FF71F6H   LINE      CODE     ---       #33
      00FF71FEH   LINE      CODE     ---       #34
      00FF720AH   LINE      CODE     ---       #35
      00FF7212H   LINE      CODE     ---       #37
      00FF7221H   LINE      CODE     ---       #38
      ---         BLOCKEND  ---      ---       LVL=0

      ---         MODULE    ---      ---       allinit
      000000D0H   SFRSYM    DATA     BYTE      PSW
      0000009DH   SFRSYM    DATA     BYTE      IRCBAND
      00000097H   SFRSYM    DATA     BYTE      AUXR2
      000000EFH   SFRSYM    DATA     BYTE      AUXINTIF
      000000FDH   SFRSYM    DATA     BYTE      S4CON
      000000ACH   SFRSYM    DATA     BYTE      S3CON
      0000009AH   SFRSYM    DATA     BYTE      S2CON
      000000B7H   SFRSYM    DATA     BYTE      IPH
      000000CDH   SFRSYM    DATA     BYTE      SPSTAT
      000000DDH   SFRSYM    DATA     BYTE      T4T3M
L251 LINKER/LOCATER V4.66.93.0                                                        10/07/2023  14:21:18  PAGE 93


      000000C1H   SFRSYM    DATA     BYTE      WDT_CONTR
      000000DFH   SFRSYM    DATA     BYTE      IP3
      000000F4H   SFRSYM    DATA     BYTE      USBCON
      000000B5H   SFRSYM    DATA     BYTE      IP2
      000000FFH   SFRSYM    DATA     BYTE      RSTCFG
      000000F9H   SFRSYM    DATA     BYTE      LINICR
      0000008EH   SFRSYM    DATA     BYTE      AUXR
      000000AFH   SFRSYM    DATA     BYTE      IE2
      00000088H   SFRSYM    DATA     BYTE      TCON
      00000098H   SFRSYM    DATA     BYTE      SCON
      000000F1H   SFRSYM    DATA     BYTE      CANICR
      00000087H   SFRSYM    DATA     BYTE      PCON
      000000BCH   SFRSYM    DATA     BYTE      ADC_CONTR
      000000E7H   SFRSYM    DATA     BYTE      CMPCR2
      000000E6H   SFRSYM    DATA     BYTE      CMPCR1
      000000B8H   SFRSYM    DATA     BYTE      IP
      0000008FH   SFRSYM    DATA     BYTE      INTCLKO
      000000EEH   SFRSYM    DATA     BYTE      IP3H
      000000B6H   SFRSYM    DATA     BYTE      IP2H
      000000A8H   SFRSYM    DATA     BYTE      IE
      000000BBH   SFRSYM    DATA     BYTE      P_SW3
      000000BAH   SFRSYM    DATA     BYTE      P_SW2
      000000A2H   SFRSYM    DATA     BYTE      P_SW1
      000000CEH   SFRSYM    DATA     BYTE      SPCTL
      000000F8H   SFRSYM    DATA     BYTE      P7
      000000E8H   SFRSYM    DATA     BYTE      P6
      000000C8H   SFRSYM    DATA     BYTE      P5
      000000C0H   SFRSYM    DATA     BYTE      P4
      000000B0H   SFRSYM    DATA     BYTE      P3
      000000A0H   SFRSYM    DATA     BYTE      P2
      00000090H   SFRSYM    DATA     BYTE      P1
      00000080H   SFRSYM    DATA     BYTE      P0

      ---         MODULE    ---      ---       pidcc
      00FF6A8EH   PUBLIC    CODE     ---       pid_steers
      00FF2F35H   PUBLIC    CODE     ---       ele_direction_control
      00000008H   PUBLIC    EDATA    FLOAT     setpoint_left
      0000000CH   PUBLIC    EDATA    ---       ipid_speed_right
      0000002EH   PUBLIC    EDATA    INT       adc_right_edge
      00000030H   PUBLIC    EDATA    INT       status
      00000032H   PUBLIC    EDATA    ---       ipid_speed_left
      00000054H   PUBLIC    EDATA    INT       adc_left_edge
      00000056H   PUBLIC    EDATA    INT       speedflag
      00000058H   PUBLIC    EDATA    INT       adc_mid
      0000005AH   PUBLIC    EDATA    ---       pid_steer
      00000092H   PUBLIC    EDATA    INT       adc_right_mid
      00000094H   PUBLIC    EDATA    INT       adc_left_mid
      00000096H   PUBLIC    EDATA    FLOAT     setpoint_right
      0000077BH   PUBLIC    EDATA    BYTE      ?judge_circle_in?BYTE
      00000787H   PUBLIC    EDATA    BYTE      ?judge_circle_out?BYTE
      000005B9H   PUBLIC    EDATA    BYTE      ?ele_direction_control?BYTE
      000000D0H   SFRSYM    DATA     BYTE      PSW
      0000009DH   SFRSYM    DATA     BYTE      IRCBAND
      00000097H   SFRSYM    DATA     BYTE      AUXR2
      000000EFH   SFRSYM    DATA     BYTE      AUXINTIF
      000000FDH   SFRSYM    DATA     BYTE      S4CON
      000000ACH   SFRSYM    DATA     BYTE      S3CON
      0000009AH   SFRSYM    DATA     BYTE      S2CON
      000000B7H   SFRSYM    DATA     BYTE      IPH
      000000CDH   SFRSYM    DATA     BYTE      SPSTAT
      000000DDH   SFRSYM    DATA     BYTE      T4T3M
      000000C1H   SFRSYM    DATA     BYTE      WDT_CONTR
      000000DFH   SFRSYM    DATA     BYTE      IP3
      000000F4H   SFRSYM    DATA     BYTE      USBCON
      000000B5H   SFRSYM    DATA     BYTE      IP2
L251 LINKER/LOCATER V4.66.93.0                                                        10/07/2023  14:21:18  PAGE 94


      000000FFH   SFRSYM    DATA     BYTE      RSTCFG
      000000F9H   SFRSYM    DATA     BYTE      LINICR
      0000008EH   SFRSYM    DATA     BYTE      AUXR
      000000AFH   SFRSYM    DATA     BYTE      IE2
      00000088H   SFRSYM    DATA     BYTE      TCON
      00000098H   SFRSYM    DATA     BYTE      SCON
      000000F1H   SFRSYM    DATA     BYTE      CANICR
      00000087H   SFRSYM    DATA     BYTE      PCON
      000000BCH   SFRSYM    DATA     BYTE      ADC_CONTR
      000000E7H   SFRSYM    DATA     BYTE      CMPCR2
      000000E6H   SFRSYM    DATA     BYTE      CMPCR1
      000000B8H   SFRSYM    DATA     BYTE      IP
      0000008FH   SFRSYM    DATA     BYTE      INTCLKO
      000000EEH   SFRSYM    DATA     BYTE      IP3H
      000000B6H   SFRSYM    DATA     BYTE      IP2H
      000000A8H   SFRSYM    DATA     BYTE      IE
      000000BBH   SFRSYM    DATA     BYTE      P_SW3
      000000BAH   SFRSYM    DATA     BYTE      P_SW2
      000000A2H   SFRSYM    DATA     BYTE      P_SW1
      000000CEH   SFRSYM    DATA     BYTE      SPCTL
      000000F8H   SFRSYM    DATA     BYTE      P7
      000000E8H   SFRSYM    DATA     BYTE      P6
      000000C8H   SFRSYM    DATA     BYTE      P5
      000000C0H   SFRSYM    DATA     BYTE      P4
      000000B0H   SFRSYM    DATA     BYTE      P3
      000000A0H   SFRSYM    DATA     BYTE      P2
      00000090H   SFRSYM    DATA     BYTE      P1
      00000080H   SFRSYM    DATA     BYTE      P0
      0000077BH   SYMBOL    EDATA    FLOAT     adc_left_edge
      0000077FH   SYMBOL    EDATA    FLOAT     adc_right_edge
      00000783H   SYMBOL    EDATA    FLOAT     adc_mid
      00000787H   SYMBOL    EDATA    FLOAT     adc_left_edge
      0000078BH   SYMBOL    EDATA    FLOAT     adc_right_edge
      0000078FH   SYMBOL    EDATA    FLOAT     adc_mid

      00FF6A8EH   BLOCK     CODE     ---       LVL=0
      00FF6A8EH   LINE      CODE     ---       #141
      00FF6A8EH   LINE      CODE     ---       #142
      00FF6A9EH   LINE      CODE     ---       #143
      00FF6AAEH   LINE      CODE     ---       #144
      00FF6ABEH   LINE      CODE     ---       #148
      00FF6AEBH   LINE      CODE     ---       #149
      ---         BLOCKEND  ---      ---       LVL=0

      00FF2F35H   BLOCK     CODE     ---       LVL=0
      000005B9H   SYMBOL    EDATA    ---       topid_steer
      000005BDH   SYMBOL    EDATA    ---       toipid_speed_left
      000005C1H   SYMBOL    EDATA    ---       toipid_speed_right
      000005C5H   SYMBOL    EDATA    FLOAT     adc_left_mid
      000005C9H   SYMBOL    EDATA    FLOAT     adc_right_mid
      00FF2F35H   LINE      CODE     ---       #151
      00FF2F3DH   LINE      CODE     ---       #163
      00FF2F6AH   LINE      CODE     ---       #168
      00FF2F87H   LINE      CODE     ---       #169
      00FF2F8FH   LINE      CODE     ---       #170
      00FF2FA0H   LINE      CODE     ---       #171
      00FF2FCEH   LINE      CODE     ---       #172
      00FF2FDAH   LINE      CODE     ---       #174
      00FF2FFFH   LINE      CODE     ---       #175
      00FF3009H   LINE      CODE     ---       #176
      00FF300CH   LINE      CODE     ---       #177
      00FF3018H   LINE      CODE     ---       #179
      00FF303DH   LINE      CODE     ---       #180
      00FF3047H   LINE      CODE     ---       #181
      00FF304AH   LINE      CODE     ---       #182
L251 LINKER/LOCATER V4.66.93.0                                                        10/07/2023  14:21:18  PAGE 95


      00FF3059H   LINE      CODE     ---       #184
      00FF3065H   LINE      CODE     ---       #185
      00FF3083H   LINE      CODE     ---       #186
      00FF3086H   LINE      CODE     ---       #189
      00FF30C0H   LINE      CODE     ---       #190
      00FF30C8H   LINE      CODE     ---       #191
      00FF30D9H   LINE      CODE     ---       #192
      00FF3107H   LINE      CODE     ---       #193
      00FF3113H   LINE      CODE     ---       #195
      00FF312FH   LINE      CODE     ---       #196
      00FF3139H   LINE      CODE     ---       #197
      00FF313CH   LINE      CODE     ---       #198
      00FF3148H   LINE      CODE     ---       #200
      00FF316DH   LINE      CODE     ---       #201
      00FF3177H   LINE      CODE     ---       #202
      00FF317AH   LINE      CODE     ---       #203
      00FF3189H   LINE      CODE     ---       #205
      00FF3195H   LINE      CODE     ---       #206
      00FF31B3H   LINE      CODE     ---       #207
      00FF31B6H   LINE      CODE     ---       #209
      00FF31F0H   LINE      CODE     ---       #210
      00FF31F8H   LINE      CODE     ---       #211
      00FF3209H   LINE      CODE     ---       #212
      00FF3237H   LINE      CODE     ---       #213
      00FF3243H   LINE      CODE     ---       #215
      00FF325FH   LINE      CODE     ---       #216
      00FF3269H   LINE      CODE     ---       #217
      00FF326CH   LINE      CODE     ---       #218
      00FF3278H   LINE      CODE     ---       #220
      00FF329DH   LINE      CODE     ---       #221
      00FF32A7H   LINE      CODE     ---       #222
      00FF32AAH   LINE      CODE     ---       #223
      00FF32B9H   LINE      CODE     ---       #225
      00FF32C5H   LINE      CODE     ---       #226
      00FF32E3H   LINE      CODE     ---       #227
      00FF32E6H   LINE      CODE     ---       #229
      00FF331CH   LINE      CODE     ---       #230
      00FF3324H   LINE      CODE     ---       #231
      00FF3335H   LINE      CODE     ---       #232
      00FF3363H   LINE      CODE     ---       #233
      00FF336FH   LINE      CODE     ---       #235
      00FF3383H   LINE      CODE     ---       #236
      00FF3386H   LINE      CODE     ---       #237
      00FF3395H   LINE      CODE     ---       #239
      00FF33A9H   LINE      CODE     ---       #240
      00FF33ACH   LINE      CODE     ---       #243
      00FF33E2H   LINE      CODE     ---       #244
      00FF33EAH   LINE      CODE     ---       #245
      00FF33FBH   LINE      CODE     ---       #246
      00FF3429H   LINE      CODE     ---       #247
      00FF3435H   LINE      CODE     ---       #249
      00FF3449H   LINE      CODE     ---       #250
      00FF344CH   LINE      CODE     ---       #251
      00FF345BH   LINE      CODE     ---       #253
      00FF346FH   LINE      CODE     ---       #254
      00FF3472H   LINE      CODE     ---       #257
      00FF34ACH   LINE      CODE     ---       #258
      00FF34B4H   LINE      CODE     ---       #259
      00FF34C5H   LINE      CODE     ---       #260
      00FF34F3H   LINE      CODE     ---       #261
      00FF34FFH   LINE      CODE     ---       #263
      00FF351BH   LINE      CODE     ---       #264
      00FF3525H   LINE      CODE     ---       #265
      00FF3528H   LINE      CODE     ---       #266
      00FF3534H   LINE      CODE     ---       #268
L251 LINKER/LOCATER V4.66.93.0                                                        10/07/2023  14:21:18  PAGE 96


      00FF355BH   LINE      CODE     ---       #269
      00FF3565H   LINE      CODE     ---       #270
      00FF3568H   LINE      CODE     ---       #271
      00FF3577H   LINE      CODE     ---       #273
      00FF3595H   LINE      CODE     ---       #274
      00FF35A1H   LINE      CODE     ---       #275
      00FF35A4H   LINE      CODE     ---       #277
      00FF35DEH   LINE      CODE     ---       #278
      00FF35E6H   LINE      CODE     ---       #279
      00FF35F7H   LINE      CODE     ---       #280
      00FF3625H   LINE      CODE     ---       #281
      00FF3631H   LINE      CODE     ---       #283
      00FF364DH   LINE      CODE     ---       #284
      00FF3657H   LINE      CODE     ---       #285
      00FF365AH   LINE      CODE     ---       #286
      00FF3666H   LINE      CODE     ---       #288
      00FF368DH   LINE      CODE     ---       #289
      00FF3697H   LINE      CODE     ---       #290
      00FF369AH   LINE      CODE     ---       #291
      00FF36A9H   LINE      CODE     ---       #293
      00FF36C7H   LINE      CODE     ---       #294
      00FF36D3H   LINE      CODE     ---       #295
      00FF36D6H   LINE      CODE     ---       #296
      00FF36F3H   LINE      CODE     ---       #297
      00FF36FBH   LINE      CODE     ---       #298
      00FF370CH   LINE      CODE     ---       #299
      00FF373AH   LINE      CODE     ---       #300
      00FF3746H   LINE      CODE     ---       #302
      00FF376DH   LINE      CODE     ---       #303
      00FF3777H   LINE      CODE     ---       #304
      00FF3779H   LINE      CODE     ---       #305
      00FF3785H   LINE      CODE     ---       #307
      00FF37ACH   LINE      CODE     ---       #308
      00FF37B6H   LINE      CODE     ---       #309
      00FF37C4H   LINE      CODE     ---       #311
      00FF37E2H   LINE      CODE     ---       #312
      00FF37EEH   LINE      CODE     ---       #313
      00FF37EEH   LINE      CODE     ---       #317
      00FF381DH   LINE      CODE     ---       #318
      00FF384CH   LINE      CODE     ---       #322
      00FF3861H   LINE      CODE     ---       #323
      00FF38A7H   LINE      CODE     ---       #325
      00FF38E3H   LINE      CODE     ---       #326
      00FF3901H   LINE      CODE     ---       #330
      00FF3915H   LINE      CODE     ---       #331
      00FF3929H   LINE      CODE     ---       #333
      00FF3947H   LINE      CODE     ---       #334
      ---         BLOCKEND  ---      ---       LVL=0
      00000964H   SYMBOL    EDATA    ---       toipid_left_speed
      00000968H   SYMBOL    EDATA    INT       actual_val_left
      0000096AH   SYMBOL    EDATA    INT       error_left
      0000096CH   SYMBOL    EDATA    ---       toipid_right_speed
      00000970H   SYMBOL    EDATA    INT       actual_val_right
      00000972H   SYMBOL    EDATA    INT       error_right

      ---         MODULE    ---      ---       SEEKFREE_CONFIG
      00FF00A6H   PUBLIC    CODE     ---       dl1b_default_configuration
      00FF012DH   PUBLIC    CODE     ---       imu660ra_config_file

      ---         MODULE    ---      ---       ?C?FPADD
      00FF394EH   PUBLIC    CODE     ---       ?C?FPADD
      00FF394BH   PUBLIC    CODE     ---       ?C?FPSUB

      ---         MODULE    ---      ---       ?C?FPMUL
      00FF3A06H   PUBLIC    CODE     ---       ?C?FPMUL
L251 LINKER/LOCATER V4.66.93.0                                                        10/07/2023  14:21:18  PAGE 97



      ---         MODULE    ---      ---       ?C?FPDIV
      00FF3AA6H   PUBLIC    CODE     ---       ?C?FPDIV

      ---         MODULE    ---      ---       ?C?FPCMP
      00FF3B29H   PUBLIC    CODE     ---       ?C?FPCMP
      00FF3B27H   PUBLIC    CODE     ---       ?C?FPCMP3

      ---         MODULE    ---      ---       ?C?FCAST
      00FF3B77H   PUBLIC    CODE     NEAR LAB  ?C?FCASTC
      00FF3B72H   PUBLIC    CODE     NEAR LAB  ?C?FCASTI
      00FF3B6DH   PUBLIC    CODE     NEAR LAB  ?C?FCASTL

      ---         MODULE    ---      ---       ?C?CASTF
      00FF3BAAH   PUBLIC    CODE     NEAR LAB  ?C?CASTF

      ---         MODULE    ---      ---       PRINTF
      00FF3BE7H   PUBLIC    CODE     NEAR LAB  PRINTF

      ---         MODULE    ---      ---       ?C?FPGETOPN
      00FF3C13H   PUBLIC    CODE     ---       ?C?FPGETOPN2
      00FF3C50H   PUBLIC    CODE     ---       ?C?FPNANRESULT
      00FF3C58H   PUBLIC    CODE     ---       ?C?FPOVERFLOW
      00FF3C2CH   PUBLIC    CODE     ---       ?C?FPRESULT
      00FF3C42H   PUBLIC    CODE     ---       ?C?FPRESULT2
      00FF3C55H   PUBLIC    CODE     ---       ?C?FPUNDERFLOW

      ---         MODULE    ---      ---       ?C?PRNFMT
      00FF3C91H   PUBLIC    CODE     ---       ?C?PRNFMT

      ---         MODULE    ---      ---       ?C?FPCONVERT
      00FF40AEH   PUBLIC    CODE     ---       ?C?FPCONVERT
      00FF4166H   PUBLIC    CODE     ---       ?C?FPROUND

      ---         MODULE    ---      ---       ?C?FTNPWR
      00FF41D9H   PUBLIC    CODE     ---       ?C?FTNPWR

      ---         MODULE    ---      ---       ?C_START
      00FF0000H   PUBLIC    CODE     ---       ?C?STARTUP
      00FF0000H   PUBLIC    CODE     ---       ?C_STARTUP

      ---         MODULE    ---      ---       ?C?INITEDATA
      00FF71BAH   PUBLIC    CODE     ---       ?C?INITEDATA

      ---         MODULE    ---      ---       ?C?SIDIV
      00FF4210H   PUBLIC    CODE     ---       ?C?SIDIV

      ---         MODULE    ---      ---       ?C?LMUL
      00FF4242H   PUBLIC    CODE     ---       ?C?LMUL

      ---         MODULE    ---      ---       ?C?LIMUL
      00FF4253H   PUBLIC    CODE     ---       ?C?LIMUL

      ---         MODULE    ---      ---       ?C?ULDIV
      00FF425EH   PUBLIC    CODE     NEAR LAB  ?C?ULDIV
      00FF425CH   PUBLIC    CODE     NEAR LAB  ?C?ULIDIV

      ---         MODULE    ---      ---       ?C?SLDIV
      00FF42AFH   PUBLIC    CODE     NEAR LAB  ?C?SLDIV

      ---         MODULE    ---      ---       memcpy
      00FF743FH   PUBLIC    CODE     ---       memcpy?_

      ---         MODULE    ---      ---       memset

L251 LINKER/LOCATER V4.66.93.0                                                        10/07/2023  14:21:18  PAGE 98


      ---         MODULE    ---      ---       ?C?INITEDATA_END
      00FF787AH   PUBLIC    HCONST   WORD      ?C?INITEDATA_END

Program Size: data=8.0 edata+hdata=3133 xdata=0 const=647 code=30481
L251 RUN COMPLETE.  0 WARNING(S),  0 ERROR(S)
