L251 LINKER/LOCATER V4.66.93.0                                                          10/07/2023  15:37:24  PAGE 1


L251 LINKER/LOCATER V4.66.93.0, INVOKED BY:
C:\PROGRAM FILES\KEIL-5\C251\BIN\L251.EXE .\Out_File\board.obj, .\Out_File\common.obj, .\Out_File\zf_adc.obj, .\Out_File
>> \zf_delay.obj, .\Out_File\zf_eeprom.obj, .\Out_File\zf_exti.obj, .\Out_File\zf_gpio.obj, .\Out_File\zf_nvic.obj, .\Ou
>> t_File\zf_pwm.obj, .\Out_File\zf_spi.obj, .\Out_File\zf_tim.obj, .\Out_File\zf_uart.obj, .\Out_File\zf_fifo.obj, .\Ou
>> t_File\SEEKFREE_18TFT.obj, .\Out_File\SEEKFREE_BLUETOOTH_CH9141.obj, ..\..\Libraries\seekfree_peripheral\SEEKFREE_CON
>> FIG.LIB, .\Out_File\SEEKFREE_DL1A.obj, .\Out_File\SEEKFREE_DL1B.obj, .\Out_File\SEEKFREE_FONT.obj, .\Out_File\SEEKFRE
>> E_ICM20602.obj, .\Out_File\SEEKFREE_IMU660RA.obj, .\Out_File\SEEKFREE_IMU963RA.obj, .\Out_File\SEEKFREE_IPS114_SPI.ob
>> j, .\Out_File\SEEKFREE_MPU6050.obj, .\Out_File\SEEKFREE_OLED.obj, .\Out_File\SEEKFREE_PRINTF.obj, .\Out_File\SEEKFREE
>> _VIRSCO.obj, .\Out_File\SEEKFREE_WIRELESS.obj, .\Out_File\SEEKFREE_WIRELESS_CH573.obj, .\Out_File\isr.obj, .\Out_File
>> \main.obj, .\Out_File\allinit.obj, .\Out_File\EM.obj, .\Out_File\encoder.obj, .\Out_File\motor.obj, .\Out_File\pidcc.
>> obj, .\Out_File\steer.obj TO .\Out_File\SEEKFREE PRINT (.\Out_File\SEEKFREE.map) CASE DISABLEWARNING (15, 16, 57) REM
>> OVEUNUSED CLASSES (EDATA (0X0-0XFFF), HDATA (0X0-0XFFF))


CPU MODE:     251 SOURCE MODE
INTR FRAME:   2 BYTES SAVED ON INTERRUPT
MEMORY MODEL: XSMALL WITH FLOATING POINT ARITHMETIC


INPUT MODULES INCLUDED:
  .\Out_File\board.obj (board)
         COMMENT TYPE 0: C251 V5.60.0
  .\Out_File\common.obj (common)
         COMMENT TYPE 0: C251 V5.60.0
  .\Out_File\zf_adc.obj (zf_adc)
         COMMENT TYPE 0: C251 V5.60.0
  .\Out_File\zf_delay.obj (zf_delay)
         COMMENT TYPE 0: C251 V5.60.0
  .\Out_File\zf_eeprom.obj (zf_eeprom)
         COMMENT TYPE 0: C251 V5.60.0
  .\Out_File\zf_exti.obj (zf_exti)
         COMMENT TYPE 0: C251 V5.60.0
  .\Out_File\zf_gpio.obj (zf_gpio)
         COMMENT TYPE 0: C251 V5.60.0
  .\Out_File\zf_nvic.obj (zf_nvic)
         COMMENT TYPE 0: C251 V5.60.0
  .\Out_File\zf_pwm.obj (zf_pwm)
         COMMENT TYPE 0: C251 V5.60.0
  .\Out_File\zf_spi.obj (zf_spi)
         COMMENT TYPE 0: C251 V5.60.0
  .\Out_File\zf_tim.obj (zf_tim)
         COMMENT TYPE 0: C251 V5.60.0
  .\Out_File\zf_uart.obj (zf_uart)
         COMMENT TYPE 0: C251 V5.60.0
  .\Out_File\zf_fifo.obj (zf_fifo)
         COMMENT TYPE 0: C251 V5.60.0
  .\Out_File\SEEKFREE_18TFT.obj (SEEKFREE_18TFT)
         COMMENT TYPE 0: C251 V5.60.0
  .\Out_File\SEEKFREE_BLUETOOTH_CH9141.obj (SEEKFREE_BLUETOOTH_CH9141)
         COMMENT TYPE 0: C251 V5.60.0
  .\Out_File\SEEKFREE_DL1A.obj (SEEKFREE_DL1A)
         COMMENT TYPE 0: C251 V5.60.0
  .\Out_File\SEEKFREE_DL1B.obj (SEEKFREE_DL1B)
         COMMENT TYPE 0: C251 V5.60.0
  .\Out_File\SEEKFREE_FONT.obj (SEEKFREE_FONT)
         COMMENT TYPE 0: C251 V5.60.0
  .\Out_File\SEEKFREE_ICM20602.obj (SEEKFREE_ICM20602)
         COMMENT TYPE 0: C251 V5.60.0
  .\Out_File\SEEKFREE_IMU660RA.obj (SEEKFREE_IMU660RA)
         COMMENT TYPE 0: C251 V5.60.0
  .\Out_File\SEEKFREE_IMU963RA.obj (SEEKFREE_IMU963RA)
         COMMENT TYPE 0: C251 V5.60.0
  .\Out_File\SEEKFREE_IPS114_SPI.obj (SEEKFREE_IPS114_SPI)
         COMMENT TYPE 0: C251 V5.60.0
  .\Out_File\SEEKFREE_MPU6050.obj (SEEKFREE_MPU6050)
         COMMENT TYPE 0: C251 V5.60.0
L251 LINKER/LOCATER V4.66.93.0                                                        10/07/2023  15:37:24  PAGE 2


  .\Out_File\SEEKFREE_OLED.obj (SEEKFREE_OLED)
         COMMENT TYPE 0: C251 V5.60.0
  .\Out_File\SEEKFREE_PRINTF.obj (SEEKFREE_PRINTF)
         COMMENT TYPE 0: C251 V5.60.0
  .\Out_File\SEEKFREE_VIRSCO.obj (SEEKFREE_VIRSCO)
         COMMENT TYPE 0: C251 V5.60.0
  .\Out_File\SEEKFREE_WIRELESS.obj (SEEKFREE_WIRELESS)
         COMMENT TYPE 0: C251 V5.60.0
  .\Out_File\SEEKFREE_WIRELESS_CH573.obj (SEEKFREE_WIRELESS_CH573)
         COMMENT TYPE 0: C251 V5.60.0
  .\Out_File\isr.obj (isr)
         COMMENT TYPE 0: C251 V5.60.0
  .\Out_File\main.obj (main)
         COMMENT TYPE 0: C251 V5.60.0
  .\Out_File\allinit.obj (allinit)
         COMMENT TYPE 0: C251 V5.60.0
  .\Out_File\EM.obj (EM)
         COMMENT TYPE 0: C251 V5.60.0
  .\Out_File\encoder.obj (encoder)
         COMMENT TYPE 0: C251 V5.60.0
  .\Out_File\motor.obj (motor)
         COMMENT TYPE 0: C251 V5.60.0
  .\Out_File\pidcc.obj (pidcc)
         COMMENT TYPE 0: C251 V5.60.0
  .\Out_File\steer.obj (steer)
         COMMENT TYPE 0: C251 V5.60.0
  ..\..\Libraries\seekfree_peripheral\SEEKFREE_CONFIG.LIB (SEEKFREE_CONFIG)
         COMMENT TYPE 0: C251 V5.60.0
  C:\PROGRAM FILES\KEIL-5\C251\LIB\C2SFPXS.LIB (?C?FPADD)
         COMMENT TYPE 0: A251 V4.69.6.0
  C:\PROGRAM FILES\KEIL-5\C251\LIB\C2SFPXS.LIB (?C?FPMUL)
         COMMENT TYPE 0: A251 V4.69.6.0
  C:\PROGRAM FILES\KEIL-5\C251\LIB\C2SFPXS.LIB (?C?FPDIV)
         COMMENT TYPE 0: A251 V4.69.6.0
  C:\PROGRAM FILES\KEIL-5\C251\LIB\C2SFPXS.LIB (?C?FPCMP)
         COMMENT TYPE 0: A251 V4.69.6.0
  C:\PROGRAM FILES\KEIL-5\C251\LIB\C2SFPXS.LIB (?C?FCAST)
         COMMENT TYPE 0: A251 V4.69.6.0
  C:\PROGRAM FILES\KEIL-5\C251\LIB\C2SFPXS.LIB (?C?CASTF)
         COMMENT TYPE 0: A251 V4.69.6.0
  C:\PROGRAM FILES\KEIL-5\C251\LIB\C2SFPXS.LIB (PRINTF)
         COMMENT TYPE 0: A251 V4.69.6.0
  C:\PROGRAM FILES\KEIL-5\C251\LIB\C2SFPXS.LIB (pow)
         COMMENT TYPE 0: C251 V5.58.7
  C:\PROGRAM FILES\KEIL-5\C251\LIB\C2SFPXS.LIB (?C?FPGETOPN)
         COMMENT TYPE 0: A251 V4.69.6.0
  C:\PROGRAM FILES\KEIL-5\C251\LIB\C2SFPXS.LIB (_CHKFLOAT_?_)
         COMMENT TYPE 0: A251 V4.69.6.0
  C:\PROGRAM FILES\KEIL-5\C251\LIB\C2SFPXS.LIB (?C?FPNEG)
         COMMENT TYPE 0: A251 V4.69.6.0
  C:\PROGRAM FILES\KEIL-5\C251\LIB\C2SFPXS.LIB (?C?PRNFMT)
         COMMENT TYPE 0: A251 V4.69.6.0
  C:\PROGRAM FILES\KEIL-5\C251\LIB\C2SFPXS.LIB (EXP?_)
         COMMENT TYPE 0: A251 V4.69.6.0
  C:\PROGRAM FILES\KEIL-5\C251\LIB\C2SFPXS.LIB (LOG?_)
         COMMENT TYPE 0: A251 V4.69.6.0
  C:\PROGRAM FILES\KEIL-5\C251\LIB\C2SFPXS.LIB (?C?FPCONVERT)
         COMMENT TYPE 0: A251 V4.69.6.0
  C:\PROGRAM FILES\KEIL-5\C251\LIB\C2SFPXS.LIB (?C?FPSERIES)
         COMMENT TYPE 0: A251 V4.69.6.0
  C:\PROGRAM FILES\KEIL-5\C251\LIB\C2SFPXS.LIB (?C?FTNPWR)
         COMMENT TYPE 0: A251 V4.69.6.0
  C:\PROGRAM FILES\KEIL-5\C251\LIB\C2SXS.LIB (?C_START)
         COMMENT TYPE 0: A251 V4.69.6.0
  C:\PROGRAM FILES\KEIL-5\C251\LIB\C2SXS.LIB (?C?INITEDATA)
L251 LINKER/LOCATER V4.66.93.0                                                        10/07/2023  15:37:24  PAGE 3


         COMMENT TYPE 0: A251 V4.69.6.0
  C:\PROGRAM FILES\KEIL-5\C251\LIB\C2SXS.LIB (?C?SIDIV)
         COMMENT TYPE 0: A251 V4.69.6.0
  C:\PROGRAM FILES\KEIL-5\C251\LIB\C2SXS.LIB (?C?LMUL)
         COMMENT TYPE 0: A251 V4.69.6.0
  C:\PROGRAM FILES\KEIL-5\C251\LIB\C2SXS.LIB (?C?LIMUL)
         COMMENT TYPE 0: A251 V4.69.6.0
  C:\PROGRAM FILES\KEIL-5\C251\LIB\C2SXS.LIB (?C?ULDIV)
         COMMENT TYPE 0: A251 V4.69.6.0
  C:\PROGRAM FILES\KEIL-5\C251\LIB\C2SXS.LIB (?C?SLDIV)
         COMMENT TYPE 0: A251 V4.69.6.0
  C:\PROGRAM FILES\KEIL-5\C251\LIB\C2SXS.LIB (memcpy)
         COMMENT TYPE 0: C251 V5.58.7
  C:\PROGRAM FILES\KEIL-5\C251\LIB\C2SXS.LIB (memset)
         COMMENT TYPE 0: C251 V5.58.7
  C:\PROGRAM FILES\KEIL-5\C251\LIB\C2SXS.LIB (?C?INITEDATA_END)
         COMMENT TYPE 0: A251 V4.69.6.0


ACTIVE MEMORY CLASSES OF MODULE:  .\Out_File\SEEKFREE (board)

BASE        START       END         USED      MEMORY CLASS
==========================================================
000000H     000000H     000FFFH     000D5CH   EDATA
000000H     000000H     000FFFH               HDATA
FF0000H     FF0000H     FFFFFFH     0083C3H   CODE
000000H     FF0000H     FFFFFFH     000299H   HCONST
FF0000H     FF0000H     FFFFFFH     000004H   CONST
000000H     000000H     00007FH     000008H   DATA


MEMORY MAP OF MODULE:  .\Out_File\SEEKFREE (board)


START     STOP      LENGTH    ALIGN  RELOC    MEMORY CLASS   SEGMENT NAME
=========================================================================
000000H   000007H   000008H   ---    AT..     DATA           "REG BANK 0"
000008H   0000F7H   0000F0H   BYTE   UNIT     EDATA          ?ED?EM
0000F8H   000191H   00009AH   BYTE   UNIT     EDATA          ?ED?PIDCC
000192H   00021DH   00008CH   BYTE   UNIT     EDATA          ?ED?DL1B_INIT?SEEKFREE_DL1B
00021EH   00027CH   00005FH   BYTE   UNIT     EDATA          ?ED?ZF_SPRINTF?SEEKFREE_PRINTF
00027DH   0002D1H   000055H   BYTE   UNIT     EDATA          ?ED?SEEKFREE_BLUETOOTH_CH9141
0002D2H   000326H   000055H   BYTE   UNIT     EDATA          ?ED?SEEKFREE_WIRELESS
000327H   00037BH   000055H   BYTE   UNIT     EDATA          ?ED?SEEKFREE_WIRELESS_CH573
00037CH   0003BDH   000042H   BYTE   UNIT     EDATA          ?ED?EM_ADC?EM
0003BEH   0003EDH   000030H   BYTE   UNIT     EDATA          ?ED?LCD_SHOWFLOAT_SIMSPI?SEEKFREE_18TFT
0003EEH   00041DH   000030H   BYTE   UNIT     EDATA          ?ED?LCD_SHOWFLOAT?SEEKFREE_18TFT
00041EH   00044DH   000030H   BYTE   UNIT     EDATA          ?ED?IPS114_SHOWFLOAT_SIMSPI?SEEKFREE_IPS114_SPI
00044EH   00047DH   000030H   BYTE   UNIT     EDATA          ?ED?IPS114_SHOWFLOAT?SEEKFREE_IPS114_SPI
00047EH   0004ADH   000030H   BYTE   UNIT     EDATA          ?ED?OLED_PRINTF_FLOAT?SEEKFREE_OLED
0004AEH   0004DDH   000030H   BYTE   UNIT     EDATA          ?ED?OLED_PRINTF_FLOAT_SPI?SEEKFREE_OLED
0004DEH   00050CH   00002FH   BYTE   UNIT     EDATA          ?ED?DL1A_SET_MEASUREMENT_TIMING_BUDGET?SEEKFREE_DL1A
00050DH   000538H   00002CH   BYTE   UNIT     EDATA          ?ED?LCD_SHOWINT32_SIMSPI?SEEKFREE_18TFT
000539H   000564H   00002CH   BYTE   UNIT     EDATA          ?ED?LCD_SHOWINT32?SEEKFREE_18TFT
000565H   000590H   00002CH   BYTE   UNIT     EDATA          ?ED?IPS114_SHOWINT32_SIMSPI?SEEKFREE_IPS114_SPI
000591H   0005BCH   00002CH   BYTE   UNIT     EDATA          ?ED?IPS114_SHOWINT32?SEEKFREE_IPS114_SPI
0005BDH   0005E8H   00002CH   BYTE   UNIT     EDATA          ?ED?OLED_PRINTF_INT32?SEEKFREE_OLED
0005E9H   000614H   00002CH   BYTE   UNIT     EDATA          ?ED?OLED_PRINTF_INT32_SPI?SEEKFREE_OLED
000615H   000639H   000025H   BYTE   UNIT     EDATA          ?ED?ADC_NORMALIZATION1?EM
00063AH   000659H   000020H   BYTE   UNIT     EDATA          ?ED?FILTER?EM
00065AH   000678H   00001FH   BYTE   UNIT     EDATA          ?ED?DL1A_GET_MEASUREMENT_TIMING_BUDGET?SEEKFREE_DL1A
000679H   00068DH   000015H   BYTE   UNIT     EDATA          ?ED?DL1A_INIT?SEEKFREE_DL1A
00068EH   0006A1H   000014H   BYTE   UNIT     EDATA          ?ED?PWM_INIT?ZF_PWM
0006A2H   0006B5H   000014H   BYTE   UNIT     EDATA          ?ED?PWM_FREQ?ZF_PWM
0006B6H   0006C9H   000014H   BYTE   UNIT     EDATA          ?ED?NUMBER_CONVERSION_ASCII?SEEKFREE_PRINTF
L251 LINKER/LOCATER V4.66.93.0                                                        10/07/2023  15:37:24  PAGE 4


0006CAH   0006DDH   000014H   BYTE   UNIT     EDATA          ?ED?ENCODER
0006DEH   0006F1H   000014H   BYTE   UNIT     EDATA          ?ED?ELE_DIRECTION_CONTROL?PIDCC
0006F2H   000704H   000013H   BYTE   UNIT     EDATA          ?ED?FIFO_READ_BUFFER?ZF_FIFO
000705H   000716H   000012H   BYTE   UNIT     EDATA          ?ED?SEEKFREE_IMU963RA
000717H   000728H   000012H   BYTE   UNIT     EDATA          ?ED?OLED_DIS_BMP?SEEKFREE_OLED
000729H   00073AH   000012H   BYTE   UNIT     EDATA          ?ED?OLED_DIS_BMP_SPI?SEEKFREE_OLED
00073BH   00074AH   000010H   BYTE   UNIT     EDATA          ?ED?FIFO_WRITE_BUFFER?ZF_FIFO
00074BH   00075AH   000010H   BYTE   UNIT     EDATA          ?ED?DL1B_IIC_TRANSFER_8BIT_ARRAY?SEEKFREE_DL1B
00075BH   000768H   00000EH   BYTE   UNIT     EDATA          ?ED?PWM_DUTY?ZF_PWM
000769H   000776H   00000EH   BYTE   UNIT     EDATA          ?ED?UART_INIT?ZF_UART
000777H   000784H   00000EH   BYTE   UNIT     EDATA          ?ED?OLED_PRINT_CHINESE?SEEKFREE_OLED
000785H   000792H   00000EH   BYTE   UNIT     EDATA          ?ED?OLED_PRINT_CHINESE_SPI?SEEKFREE_OLED
000793H   0007A0H   00000EH   BYTE   UNIT     EDATA          ?ED?DATA_CONVERSION?SEEKFREE_VIRSCO
0007A1H   0007ADH   00000DH   BYTE   UNIT     EDATA          ?ED?ICM20602_SIMSPI_R_REG_BYTES?SEEKFREE_ICM20602
0007AEH   0007BAH   00000DH   BYTE   UNIT     EDATA          ?ED?PRINTF_REVERSE_ORDER?SEEKFREE_PRINTF
0007BBH   0007C6H   00000CH   BYTE   UNIT     EDATA          ?ED?FIFO_INIT?ZF_FIFO
0007C7H   0007D2H   00000CH   BYTE   UNIT     EDATA          ?ED?LCD_SHOWINT16_SIMSPI?SEEKFREE_18TFT
0007D3H   0007DEH   00000CH   BYTE   UNIT     EDATA          ?ED?LCD_SHOWUINT16_SIMSPI?SEEKFREE_18TFT
0007DFH   0007EAH   00000CH   BYTE   UNIT     EDATA          ?ED?LCD_SHOWINT16?SEEKFREE_18TFT
0007EBH   0007F6H   00000CH   BYTE   UNIT     EDATA          ?ED?LCD_SHOWUINT16?SEEKFREE_18TFT
0007F7H   000802H   00000CH   BYTE   UNIT     EDATA          ?ED?SHOWIMAGE?SEEKFREE_18TFT
000803H   00080EH   00000CH   BYTE   UNIT     EDATA          ?ED?BLUETOOTH_CH9141_READ_BUFF?SEEKFREE_BLUETOOTH_CH9141
00080FH   00081AH   00000CH   BYTE   UNIT     EDATA          ?ED?DL1A_GET_SPAD_INFO?SEEKFREE_DL1A
00081BH   000826H   00000CH   BYTE   UNIT     EDATA          ?ED?DL1A_GET_SEQUENCE_STEP_TIMEOUTS?SEEKFREE_DL1A
000827H   000832H   00000CH   BYTE   UNIT     EDATA          ?ED?SEEKFREE_ICM20602
000833H   00083EH   00000CH   BYTE   UNIT     EDATA          ?ED?SEEKFREE_IMU660RA
00083FH   00084AH   00000CH   BYTE   UNIT     EDATA          ?ED?IPS114_SHOWINT16_SIMSPI?SEEKFREE_IPS114_SPI
00084BH   000856H   00000CH   BYTE   UNIT     EDATA          ?ED?IPS114_SHOWUINT16_SIMSPI?SEEKFREE_IPS114_SPI
000857H   000862H   00000CH   BYTE   UNIT     EDATA          ?ED?IPS114_SHOWINT16?SEEKFREE_IPS114_SPI
000863H   00086EH   00000CH   BYTE   UNIT     EDATA          ?ED?IPS114_SHOWUINT16?SEEKFREE_IPS114_SPI
00086FH   00087AH   00000CH   BYTE   UNIT     EDATA          ?ED?SEEKFREE_MPU6050
00087BH   000886H   00000CH   BYTE   UNIT     EDATA          ?ED?WIRELESS_UART_READ_BUFF?SEEKFREE_WIRELESS
000887H   000892H   00000CH   BYTE   UNIT     EDATA          ?ED?WIRELESS_CH573_READ_BUFF?SEEKFREE_WIRELESS_CH573
000893H   00089EH   00000CH   BYTE   UNIT     EDATA          ?ED?JUDGE_CIRCLE_IN?PIDCC
00089FH   0008AAH   00000CH   BYTE   UNIT     EDATA          ?ED?JUDGE_CIRCLE_OUT?PIDCC
0008ABH   0008B5H   00000BH   BYTE   UNIT     EDATA          ?ED?OLED_UINT16?SEEKFREE_OLED
0008B6H   0008C0H   00000BH   BYTE   UNIT     EDATA          ?ED?OLED_INT16?SEEKFREE_OLED
0008C1H   0008CBH   00000BH   BYTE   UNIT     EDATA          ?ED?OLED_UINT16_SPI?SEEKFREE_OLED
0008CCH   0008D6H   00000BH   BYTE   UNIT     EDATA          ?ED?OLED_INT16_SPI?SEEKFREE_OLED
0008D7H   0008E0H   00000AH   BYTE   UNIT     EDATA          ?ED?IAP_READ_BYTES?ZF_EEPROM
0008E1H   0008EAH   00000AH   BYTE   UNIT     EDATA          ?ED?IAP_WRITE_BYTES?ZF_EEPROM
0008EBH   0008F4H   00000AH   BYTE   UNIT     EDATA          ?ED?LCD_SHOWSTR_SIMSPI?SEEKFREE_18TFT
0008F5H   0008FEH   00000AH   BYTE   UNIT     EDATA          ?ED?LCD_SHOWSTR?SEEKFREE_18TFT
0008FFH   000908H   00000AH   BYTE   UNIT     EDATA          ?ED?BLUETOOTH_CH9141_SEND_BUFF?SEEKFREE_BLUETOOTH_CH9141
000909H   000912H   00000AH   BYTE   UNIT     EDATA          ?ED?DL1A_SIMIIC_READ_REGS?SEEKFREE_DL1A
000913H   00091CH   00000AH   BYTE   UNIT     EDATA          ?ED?DL1A_SIMIIC_READ_REGS_1?SEEKFREE_DL1A
00091DH   000926H   00000AH   BYTE   UNIT     EDATA          ?ED?DL1A_ENCODE_TIMEOUT?SEEKFREE_DL1A
000927H   000930H   00000AH   BYTE   UNIT     EDATA          ?ED?IPS114_SHOWSTR_SIMSPI?SEEKFREE_IPS114_SPI
000931H   00093AH   00000AH   BYTE   UNIT     EDATA          ?ED?IPS114_SHOWSTR?SEEKFREE_IPS114_SPI
00093BH   000944H   00000AH   BYTE   UNIT     EDATA          ?ED?SEEKFREE_VIRSCO
000945H   00094DH   000009H   BYTE   UNIT     EDATA          ?ED?LCD_SHOWINT8_SIMSPI?SEEKFREE_18TFT
00094EH   000956H   000009H   BYTE   UNIT     EDATA          ?ED?LCD_SHOWUINT8_SIMSPI?SEEKFREE_18TFT
000957H   00095FH   000009H   BYTE   UNIT     EDATA          ?ED?LCD_SHOWINT8?SEEKFREE_18TFT
000960H   000968H   000009H   BYTE   UNIT     EDATA          ?ED?LCD_SHOWUINT8?SEEKFREE_18TFT
000969H   000971H   000009H   BYTE   UNIT     EDATA          ?ED?DL1A_SIMIIC_WRITE_DATS?SEEKFREE_DL1A
000972H   00097AH   000009H   BYTE   UNIT     EDATA          ?ED?DL1A_TIMEOUT_MICROSECONDS_TO_MCLKS?SEEKFREE_DL1A
00097BH   000983H   000009H   BYTE   UNIT     EDATA          ?ED?DL1A_SET_SIGNAL_RATE_LIMIT?SEEKFREE_DL1A
000984H   00098CH   000009H   BYTE   UNIT     EDATA          ?ED?ICM20602_READ_REGISTERS?SEEKFREE_ICM20602
00098DH   000995H   000009H   BYTE   UNIT     EDATA          ?ED?IMU660RA_SIMSPI_W_REG_BYTES?SEEKFREE_IMU660RA
000996H   00099EH   000009H   BYTE   UNIT     EDATA          ?ED?IMU660RA_SIMSPI_R_REG_BYTES?SEEKFREE_IMU660RA
00099FH   0009A7H   000009H   BYTE   UNIT     EDATA          ?ED?IMU660RA_WRITE_REGISTERS?SEEKFREE_IMU660RA
0009A8H   0009B0H   000009H   BYTE   UNIT     EDATA          ?ED?IMU660RA_READ_REGISTERS?SEEKFREE_IMU660RA
0009B1H   0009B9H   000009H   BYTE   UNIT     EDATA          ?ED?IMU963RA_SIMSPI_R_REG_BYTES?SEEKFREE_IMU963RA
0009BAH   0009C2H   000009H   BYTE   UNIT     EDATA          ?ED?IMU963RA_READ_ACC_GYRO_REGISTERS?SEEKFREE_IMU963RA
0009C3H   0009CBH   000009H   BYTE   UNIT     EDATA          ?ED?IPS114_SHOWINT8_SIMSPI?SEEKFREE_IPS114_SPI
L251 LINKER/LOCATER V4.66.93.0                                                        10/07/2023  15:37:24  PAGE 5


0009CCH   0009D4H   000009H   BYTE   UNIT     EDATA          ?ED?IPS114_SHOWUINT8_SIMSPI?SEEKFREE_IPS114_SPI
0009D5H   0009DDH   000009H   BYTE   UNIT     EDATA          ?ED?IPS114_SHOWINT8?SEEKFREE_IPS114_SPI
0009DEH   0009E6H   000009H   BYTE   UNIT     EDATA          ?ED?IPS114_SHOWUINT8?SEEKFREE_IPS114_SPI
0009E7H   0009EFH   000009H   BYTE   UNIT     EDATA          ?ED?OLED_P6X8STR?SEEKFREE_OLED
0009F0H   0009F8H   000009H   BYTE   UNIT     EDATA          ?ED?OLED_P8X16STR?SEEKFREE_OLED
0009F9H   000A01H   000009H   BYTE   UNIT     EDATA          ?ED?OLED_P6X8STR_SPI?SEEKFREE_OLED
000A02H   000A0AH   000009H   BYTE   UNIT     EDATA          ?ED?OLED_P8X16STR_SPI?SEEKFREE_OLED
000A0BH   000A13H   000009H   BYTE   UNIT     EDATA          ?ED?CRC_CHECK?SEEKFREE_VIRSCO
000A14H   000A1BH   000008H   BYTE   UNIT     EDATA          ?ED?UART_PUTBUFF?ZF_UART
000A1CH   000A23H   000008H   BYTE   UNIT     EDATA          ?ED?FIFO_HEAD_OFFSET?ZF_FIFO
000A24H   000A2BH   000008H   BYTE   UNIT     EDATA          ?ED?FIFO_END_OFFSET?ZF_FIFO
000A2CH   000A33H   000008H   BYTE   UNIT     EDATA          ?ED?LCD_SET_REGION_SIMSPI?SEEKFREE_18TFT
000A34H   000A3BH   000008H   BYTE   UNIT     EDATA          ?ED?LCD_SHOWCHAR_SIMSPI?SEEKFREE_18TFT
000A3CH   000A43H   000008H   BYTE   UNIT     EDATA          ?ED?LCD_SET_REGION?SEEKFREE_18TFT
000A44H   000A4BH   000008H   BYTE   UNIT     EDATA          ?ED?LCD_SHOWCHAR?SEEKFREE_18TFT
000A4CH   000A53H   000008H   BYTE   UNIT     EDATA          ?ED?IPS114_SET_REGION_SIMSPI?SEEKFREE_IPS114_SPI
000A54H   000A5BH   000008H   BYTE   UNIT     EDATA          ?ED?IPS114_SHOWCHAR_SIMSPI?SEEKFREE_IPS114_SPI
000A5CH   000A63H   000008H   BYTE   UNIT     EDATA          ?ED?IPS114_SET_REGION?SEEKFREE_IPS114_SPI
000A64H   000A6BH   000008H   BYTE   UNIT     EDATA          ?ED?IPS114_SHOWCHAR?SEEKFREE_IPS114_SPI
000A6CH   000A73H   000008H   BYTE   UNIT     EDATA          ?ED?OLED_HEXASCII?SEEKFREE_OLED
000A74H   000A7BH   000008H   BYTE   UNIT     EDATA          ?ED?OLED_HEXASCII_SPI?SEEKFREE_OLED
000A7CH   000A83H   000008H   BYTE   UNIT     EDATA          ?ED?SPEEDLEFT_PID_REALIZE?PIDCC
000A84H   000A8BH   000008H   BYTE   UNIT     EDATA          ?ED?SPEEDRIGHT_PID_REALIZE?PIDCC
000A8CH   000A92H   000007H   BYTE   UNIT     EDATA          ?ED?SPI_INIT?ZF_SPI
000A93H   000A99H   000007H   BYTE   UNIT     EDATA          ?ED?DL1A_TIMEOUT_MCLKS_TO_MICROSECONDS?SEEKFREE_DL1A
000A9AH   000AA0H   000007H   BYTE   UNIT     EDATA          ?ED?IMU660RA_GET_ACC?SEEKFREE_IMU660RA
000AA1H   000AA7H   000007H   BYTE   UNIT     EDATA          ?ED?IMU660RA_GET_GYRO?SEEKFREE_IMU660RA
000AA8H   000AAEH   000007H   BYTE   UNIT     EDATA          ?ED?IMU963RA_GET_MAG?SEEKFREE_IMU963RA
000AAFH   000AB5H   000007H   BYTE   UNIT     EDATA          ?ED?MPU6050_SIMIIC_READ_REGS?SEEKFREE_MPU6050
000AB6H   000ABBH   000006H   BYTE   UNIT     EDATA          ?ED?ADC_ONCE?ZF_ADC
000ABCH   000AC1H   000006H   BYTE   UNIT     EDATA          ?ED?DELAY_US?ZF_DELAY
000AC2H   000AC7H   000006H   BYTE   UNIT     EDATA          ?ED?PIT_TIMER_MS?ZF_TIM
000AC8H   000ACDH   000006H   BYTE   UNIT     EDATA          ?ED?UART_PUTSTR?ZF_UART
000ACEH   000AD3H   000006H   BYTE   UNIT     EDATA          ?ED?LCD_DRAWPOINT_SIMSPI?SEEKFREE_18TFT
000AD4H   000AD9H   000006H   BYTE   UNIT     EDATA          ?ED?LCD_DRAWPOINT?SEEKFREE_18TFT
000ADAH   000ADFH   000006H   BYTE   UNIT     EDATA          ?ED?ICM20602_GET_ACC?SEEKFREE_ICM20602
000AE0H   000AE5H   000006H   BYTE   UNIT     EDATA          ?ED?ICM20602_GET_GYRO?SEEKFREE_ICM20602
000AE6H   000AEBH   000006H   BYTE   UNIT     EDATA          ?ED?ICM20602_ACC_TRANSITION?SEEKFREE_ICM20602
000AECH   000AF1H   000006H   BYTE   UNIT     EDATA          ?ED?ICM20602_GYRO_TRANSITION?SEEKFREE_ICM20602
000AF2H   000AF7H   000006H   BYTE   UNIT     EDATA          ?ED?IMU660RA_ACC_TRANSITION?SEEKFREE_IMU660RA
000AF8H   000AFDH   000006H   BYTE   UNIT     EDATA          ?ED?IMU660RA_GYRO_TRANSITION?SEEKFREE_IMU660RA
000AFEH   000B03H   000006H   BYTE   UNIT     EDATA          ?ED?IMU963RA_WRITE_MAG_REGISTER?SEEKFREE_IMU963RA
000B04H   000B09H   000006H   BYTE   UNIT     EDATA          ?ED?IMU963RA_GET_ACC?SEEKFREE_IMU963RA
000B0AH   000B0FH   000006H   BYTE   UNIT     EDATA          ?ED?IMU963RA_GET_GYRO?SEEKFREE_IMU963RA
000B10H   000B15H   000006H   BYTE   UNIT     EDATA          ?ED?IMU963RA_ACC_TRANSITION?SEEKFREE_IMU963RA
000B16H   000B1BH   000006H   BYTE   UNIT     EDATA          ?ED?IMU963RA_GYRO_TRANSITION?SEEKFREE_IMU963RA
000B1CH   000B21H   000006H   BYTE   UNIT     EDATA          ?ED?IMU963RA_MAG_TRANSITION?SEEKFREE_IMU963RA
000B22H   000B27H   000006H   BYTE   UNIT     EDATA          ?ED?IPS114_CLEAR_SIMSPI?SEEKFREE_IPS114_SPI
000B28H   000B2DH   000006H   BYTE   UNIT     EDATA          ?ED?IPS114_DRAWPOINT_SIMSPI?SEEKFREE_IPS114_SPI
000B2EH   000B33H   000006H   BYTE   UNIT     EDATA          ?ED?IPS114_CLEAR?SEEKFREE_IPS114_SPI
000B34H   000B39H   000006H   BYTE   UNIT     EDATA          ?ED?IPS114_DRAWPOINT?SEEKFREE_IPS114_SPI
000B3AH   000B3FH   000006H   BYTE   UNIT     EDATA          ?ED?MPU6050_GET_ACCDATA?SEEKFREE_MPU6050
000B40H   000B45H   000006H   BYTE   UNIT     EDATA          ?ED?MPU6050_GET_GYRO?SEEKFREE_MPU6050
000B46H   000B4BH   000006H   BYTE   UNIT     EDATA          ?ED?WIRELESS_UART_SEND_BUFF?SEEKFREE_WIRELESS
000B4CH   000B51H   000006H   BYTE   UNIT     EDATA          ?ED?WIRELESS_CH573_SEND_BUFF?SEEKFREE_WIRELESS_CH573
000B52H   000B57H   000006H   BYTE   UNIT     EDATA          ?ED?INFRARED_DETECTION?EM
000B58H   000B5CH   000005H   BYTE   UNIT     EDATA          ?ED?ZF_UART
000B5DH   000B61H   000005H   BYTE   UNIT     EDATA          ?ED?DL1A_GET_SEQUENCE_STEP_ENABLES?SEEKFREE_DL1A
000B62H   000B66H   000005H   BYTE   UNIT     EDATA          ?ED?DL1A_PERFORM_SINGLE_REF_CALIBRATION?SEEKFREE_DL1A
000B67H   000B6BH   000005H   BYTE   UNIT     EDATA          ?ED?DL1B_GET_DISTANCE?SEEKFREE_DL1B
000B6CH   000B70H   000005H   BYTE   UNIT     EDATA          ?ED?ICM20602_SIMSPI_R_REG_BYTE?SEEKFREE_ICM20602
000B71H   000B75H   000005H   BYTE   UNIT     EDATA          ?ED?IMU963RA_SIMSPI_R_REG_BYTE?SEEKFREE_IMU963RA
000B76H   000B79H   000004H   BYTE   UNIT     EDATA          ?ED?BOARD
000B7AH   000B7DH   000004H   BYTE   UNIT     EDATA          ?ED?ADC_INIT?ZF_ADC
000B7EH   000B81H   000004H   BYTE   UNIT     EDATA          ?ED?ZF_DELAY
L251 LINKER/LOCATER V4.66.93.0                                                        10/07/2023  15:37:24  PAGE 6


000B82H   000B85H   000004H   BYTE   UNIT     EDATA          ?ED?DELAY_MS?ZF_DELAY
000B86H   000B89H   000004H   BYTE   UNIT     EDATA          ?ED?IAP_ERASE_PAGE?ZF_EEPROM
000B8AH   000B8DH   000004H   BYTE   UNIT     EDATA          ?ED?EXIT_INIT?ZF_EXTI
000B8EH   000B91H   000004H   BYTE   UNIT     EDATA          ?ED?GPIO_PULL_SET?ZF_GPIO
000B92H   000B95H   000004H   BYTE   UNIT     EDATA          ?ED?GPIO_MODE?ZF_GPIO
000B96H   000B99H   000004H   BYTE   UNIT     EDATA          ?ED?CTIMER_COUNT_READ?ZF_TIM
000B9AH   000B9DH   000004H   BYTE   UNIT     EDATA          ?ED?FIFO_CLEAR?ZF_FIFO
000B9EH   000BA1H   000004H   BYTE   UNIT     EDATA          ?ED?FIFO_USED?ZF_FIFO
000BA2H   000BA5H   000004H   BYTE   UNIT     EDATA          ?ED?LCD_CLEAR_SIMSPI?SEEKFREE_18TFT
000BA6H   000BA9H   000004H   BYTE   UNIT     EDATA          ?ED?LCD_WRITEDATA_16BIT?SEEKFREE_18TFT
000BAAH   000BADH   000004H   BYTE   UNIT     EDATA          ?ED?LCD_CLEAR?SEEKFREE_18TFT
000BAEH   000BB1H   000004H   BYTE   UNIT     EDATA          ?ED?SEEKFREE_DL1B
000BB2H   000BB5H   000004H   BYTE   UNIT     EDATA          ?ED?ICM20602_SELF_CHECK?SEEKFREE_ICM20602
000BB6H   000BB9H   000004H   BYTE   UNIT     EDATA          ?ED?ICM20602_INIT?SEEKFREE_ICM20602
000BBAH   000BBDH   000004H   BYTE   UNIT     EDATA          ?ED?IMU660RA_SELF_CHECK?SEEKFREE_IMU660RA
000BBEH   000BC1H   000004H   BYTE   UNIT     EDATA          ?ED?IMU963RA_READ_MAG_REGISTER?SEEKFREE_IMU963RA
000BC2H   000BC5H   000004H   BYTE   UNIT     EDATA          ?ED?IMU963RA_ACC_GYRO_SELF_CHECK?SEEKFREE_IMU963RA
000BC6H   000BC9H   000004H   BYTE   UNIT     EDATA          ?ED?IMU963RA_MAG_SELF_CHECK?SEEKFREE_IMU963RA
000BCAH   000BCDH   000004H   BYTE   UNIT     EDATA          ?ED?IPS114_WRITEDATA_16BIT?SEEKFREE_IPS114_SPI
000BCEH   000BD1H   000004H   BYTE   UNIT     EDATA          ?ED?PWMSETMOTOR2?MOTOR
000BD2H   000BD4H   000003H   BYTE   UNIT     EDATA          ?ED?NVIC_SETPRIORITY?ZF_NVIC
000BD5H   000BD7H   000003H   BYTE   UNIT     EDATA          ?ED?UART_PUTCHAR?ZF_UART
000BD8H   000BDAH   000003H   BYTE   UNIT     EDATA          ?ED?LCD_WRITEDATA_16BIT_SIMSPI?SEEKFREE_18TFT
000BDBH   000BDDH   000003H   BYTE   UNIT     EDATA          ?ED?SEEKFREE_DL1A
000BDEH   000BE0H   000003H   BYTE   UNIT     EDATA          ?ED?DL1A_READ_CH?SEEKFREE_DL1A
000BE1H   000BE3H   000003H   BYTE   UNIT     EDATA          ?ED?DL1A_SIMIIC_WRITE_REG?SEEKFREE_DL1A
000BE4H   000BE6H   000003H   BYTE   UNIT     EDATA          ?ED?DL1A_SIMIIC_READ_REG?SEEKFREE_DL1A
000BE7H   000BE9H   000003H   BYTE   UNIT     EDATA          ?ED?DL1A_GET_VCSEL_PULSE_PERIOD?SEEKFREE_DL1A
000BEAH   000BECH   000003H   BYTE   UNIT     EDATA          ?ED?DL1A_GET_DISTANCE?SEEKFREE_DL1A
000BEDH   000BEFH   000003H   BYTE   UNIT     EDATA          ?ED?DL1B_READ_CH?SEEKFREE_DL1B
000BF0H   000BF2H   000003H   BYTE   UNIT     EDATA          ?ED?IMU660RA_READ_REGISTER?SEEKFREE_IMU660RA
000BF3H   000BF5H   000003H   BYTE   UNIT     EDATA          ?ED?IPS114_WRITEDATAI_16BIT_SIMSPI?SEEKFREE_IPS114_SPI
000BF6H   000BF8H   000003H   BYTE   UNIT     EDATA          ?ED?MPU6050_READ_CH?SEEKFREE_MPU6050
000BF9H   000BFBH   000003H   BYTE   UNIT     EDATA          ?ED?MPU6050_SIMIIC_WRITE_REG?SEEKFREE_MPU6050
000BFCH   000BFEH   000003H   BYTE   UNIT     EDATA          ?ED?MPU6050_SIMIIC_READ_REG?SEEKFREE_MPU6050
000BFFH   000C01H   000003H   BYTE   UNIT     EDATA          ?ED?OLED_FILL?SEEKFREE_OLED
000C02H   000C04H   000003H   BYTE   UNIT     EDATA          ?ED?OLED_PUTPIXEL?SEEKFREE_OLED
000C05H   000C07H   000003H   BYTE   UNIT     EDATA          ?ED?OLED_FILL_SPI?SEEKFREE_OLED
000C08H   000C0AH   000003H   BYTE   UNIT     EDATA          ?ED?OLED_PUTPIXEL_SPI?SEEKFREE_OLED
000C0BH   000C0CH   000002H   BYTE   UNIT     EDATA          ?ED?COMMON
000C0DH   000C0EH   000002H   BYTE   UNIT     EDATA          ?ED?PWM_SET_GPIO?ZF_PWM
000C0FH   000C10H   000002H   BYTE   UNIT     EDATA          ?ED?SPI_CHANGE_PIN?ZF_SPI
000C11H   000C12H   000002H   BYTE   UNIT     EDATA          ?ED?CTIMER_COUNT_INIT?ZF_TIM
000C13H   000C14H   000002H   BYTE   UNIT     EDATA          ?ED?CTIMER_COUNT_CLEAN?ZF_TIM
000C15H   000C16H   000002H   BYTE   UNIT     EDATA          ?ED?LCD_WRITEINDEX_SIMSPI?SEEKFREE_18TFT
000C17H   000C18H   000002H   BYTE   UNIT     EDATA          ?ED?LCD_WRITEDATA_SIMSPI?SEEKFREE_18TFT
000C19H   000C1AH   000002H   BYTE   UNIT     EDATA          ?ED?DL1A_SIMIIC_DELAY?SEEKFREE_DL1A
000C1BH   000C1CH   000002H   BYTE   UNIT     EDATA          ?ED?DL1A_SEND_CH?SEEKFREE_DL1A
000C1DH   000C1EH   000002H   BYTE   UNIT     EDATA          ?ED?DL1A_DECODE_TIMEOUT?SEEKFREE_DL1A
000C1FH   000C20H   000002H   BYTE   UNIT     EDATA          ?ED?DL1B_SIMIIC_DELAY?SEEKFREE_DL1B
000C21H   000C22H   000002H   BYTE   UNIT     EDATA          ?ED?DL1B_SEND_CH?SEEKFREE_DL1B
000C23H   000C24H   000002H   BYTE   UNIT     EDATA          ?ED?ICM20602_SIMSPI_WR_BYTE?SEEKFREE_ICM20602
000C25H   000C26H   000002H   BYTE   UNIT     EDATA          ?ED?ICM20602_SIMSPI_W_REG_BYTE?SEEKFREE_ICM20602
000C27H   000C28H   000002H   BYTE   UNIT     EDATA          ?ED?ICM20602_WRITE_REGISTER?SEEKFREE_ICM20602
000C29H   000C2AH   000002H   BYTE   UNIT     EDATA          ?ED?ICM20602_READ_REGISTER?SEEKFREE_ICM20602
000C2BH   000C2CH   000002H   BYTE   UNIT     EDATA          ?ED?IMU660RA_SIMSPI_WR_BYTE?SEEKFREE_IMU660RA
000C2DH   000C2EH   000002H   BYTE   UNIT     EDATA          ?ED?IMU660RA_SIMSPI_W_REG_BYTE?SEEKFREE_IMU660RA
000C2FH   000C30H   000002H   BYTE   UNIT     EDATA          ?ED?IMU660RA_WRITE_REGISTER?SEEKFREE_IMU660RA
000C31H   000C32H   000002H   BYTE   UNIT     EDATA          ?ED?IMU963RA_SIMSPI_WR_BYTE?SEEKFREE_IMU963RA
000C33H   000C34H   000002H   BYTE   UNIT     EDATA          ?ED?IMU963RA_SIMSPI_W_REG_BYTE?SEEKFREE_IMU963RA
000C35H   000C36H   000002H   BYTE   UNIT     EDATA          ?ED?IMU963RA_WRITE_ACC_GYRO_REGISTER?SEEKFREE_IMU963RA
000C37H   000C38H   000002H   BYTE   UNIT     EDATA          ?ED?IMU963RA_READ_ACC_GYRO_REGISTER?SEEKFREE_IMU963RA
000C39H   000C3AH   000002H   BYTE   UNIT     EDATA          ?ED?IMU963RA_CONNECT_MAG?SEEKFREE_IMU963RA
000C3BH   000C3CH   000002H   BYTE   UNIT     EDATA          ?ED?IPS114_WRITEINDEX_SIMSPI?SEEKFREE_IPS114_SPI
000C3DH   000C3EH   000002H   BYTE   UNIT     EDATA          ?ED?IPS114_WRITEDATA_SIMSPI?SEEKFREE_IPS114_SPI
L251 LINKER/LOCATER V4.66.93.0                                                        10/07/2023  15:37:24  PAGE 7


000C3FH   000C40H   000002H   BYTE   UNIT     EDATA          ?ED?MPU6050_SIMIIC_DELAY?SEEKFREE_MPU6050
000C41H   000C42H   000002H   BYTE   UNIT     EDATA          ?ED?MPU6050_SEND_CH?SEEKFREE_MPU6050
000C43H   000C44H   000002H   BYTE   UNIT     EDATA          ?ED?OLED_WRDAT?SEEKFREE_OLED
000C45H   000C46H   000002H   BYTE   UNIT     EDATA          ?ED?OLED_WRCMD?SEEKFREE_OLED
000C47H   000C48H   000002H   BYTE   UNIT     EDATA          ?ED?OLED_SET_POS?SEEKFREE_OLED
000C49H   000C4AH   000002H   BYTE   UNIT     EDATA          ?ED?OLED_CLRPIXEL?SEEKFREE_OLED
000C4BH   000C4CH   000002H   BYTE   UNIT     EDATA          ?ED?OLED_SET_POS_SPI?SEEKFREE_OLED
000C4DH   000C4EH   000002H   BYTE   UNIT     EDATA          ?ED?OLED_CLRPIXEL_SPI?SEEKFREE_OLED
000C4FH   000C50H   000002H   BYTE   UNIT     EDATA          ?ED?MAIN
000C51H   000C52H   000002H   BYTE   UNIT     EDATA          ?ED?PWMSETSTEER?STEER
000C53H   000C53H   000001H   BYTE   UNIT     EDATA          ?ED?PUTCHAR?BOARD
000C54H   000C54H   000001H   BYTE   UNIT     EDATA          ?ED?IAP_SET_TPS?ZF_EEPROM
000C55H   000C55H   000001H   BYTE   UNIT     EDATA          ?ED?SPI_MOSI?ZF_SPI
000C56H   000C56H   000001H   BYTE   UNIT     EDATA          ?ED?SPI_CHANGE_MODE?ZF_SPI
000C57H   000C57H   000001H   BYTE   UNIT     EDATA          ?ED?LCD_WRITEINDEX?SEEKFREE_18TFT
000C58H   000C58H   000001H   BYTE   UNIT     EDATA          ?ED?LCD_WRITEDATA?SEEKFREE_18TFT
000C59H   000C59H   000001H   BYTE   UNIT     EDATA          ?ED?DL1A_SIMIIC_SENDACK?SEEKFREE_DL1A
000C5AH   000C5AH   000001H   BYTE   UNIT     EDATA          ?ED?DL1B_SIMIIC_SENDACK?SEEKFREE_DL1B
000C5BH   000C5BH   000001H   BYTE   UNIT     EDATA          ?ED?IMU660RA_INIT?SEEKFREE_IMU660RA
000C5CH   000C5CH   000001H   BYTE   UNIT     EDATA          ?ED?IMU963RA_INIT?SEEKFREE_IMU963RA
000C5DH   000C5DH   000001H   BYTE   UNIT     EDATA          ?ED?IPS114_WRITEINDEX?SEEKFREE_IPS114_SPI
000C5EH   000C5EH   000001H   BYTE   UNIT     EDATA          ?ED?IPS114_WRITEDATA?SEEKFREE_IPS114_SPI
000C5FH   000C5FH   000001H   BYTE   UNIT     EDATA          ?ED?MPU6050_SIMIIC_SENDACK?SEEKFREE_MPU6050
000C60H   000C60H   000001H   BYTE   UNIT     EDATA          ?ED?OLED_WRDAT_SPI?SEEKFREE_OLED
000C61H   000C61H   000001H   BYTE   UNIT     EDATA          ?ED?OLED_WRCMD_SPI?SEEKFREE_OLED
000C62H   000C62H   000001H   BYTE   UNIT     EDATA          ?ED?UART1_ISR?ISR
000C63H   000C63H   000001H   BYTE   UNIT     EDATA          ?ED?ISR
000C64H   000D63H   000100H   BYTE   UNIT     EDATA          ?STACK
000D64H   FEFFFFH   FEF29CH   ---    ---      **GAP**
FF0000H   FF0002H   000003H   ---    OFFS..   CODE           ?CO?start251?4
FF0003H   FF0005H   000003H   ---    OFFS..   CODE           ?PR?IV?0
FF0006H   FF0009H   000004H   BYTE   INSEG    CODE           ?PR?ENABLEGLOBALIRQ?BOARD
FF000AH   FF000AH   000001H   BYTE   INSEG    CODE           ?PR?INT1_ISR?ISR
FF000BH   FF000DH   000003H   ---    OFFS..   CODE           ?PR?IV?1
FF000EH   FF000EH   000001H   BYTE   INSEG    CODE           ?PR?TM0_ISR?ISR
FF000FH   FF0012H   000004H   BYTE   UNIT     CONST          ?CO?PRINTF
FF0013H   FF0015H   000003H   ---    OFFS..   CODE           ?PR?IV?2
FF0016H   FF001AH   000005H   ---    ---      **GAP**
FF001BH   FF001DH   000003H   ---    OFFS..   CODE           ?PR?IV?3
FF001EH   FF0022H   000005H   ---    ---      **GAP**
FF0023H   FF0025H   000003H   ---    OFFS..   CODE           ?PR?IV?4
FF0026H   FF0042H   00001DH   BYTE   INSEG    CODE           ?PR?DL1A_SIMIIC_DELAY?SEEKFREE_DL1A
FF0043H   FF0045H   000003H   ---    OFFS..   CODE           ?PR?IV?8
FF0046H   FF004DH   000008H   BYTE   INSEG    CODE           ?PR?INT0_ISR?ISR
FF004EH   FF0052H   000005H   ---    ---      **GAP**
FF0053H   FF0055H   000003H   ---    OFFS..   CODE           ?PR?IV?10
FF0056H   FF005AH   000005H   ---    ---      **GAP**
FF005BH   FF005DH   000003H   ---    OFFS..   CODE           ?PR?IV?11
FF005EH   FF0062H   000005H   ---    ---      **GAP**
FF0063H   FF0065H   000003H   ---    OFFS..   CODE           ?PR?IV?12
FF0066H   FF0082H   00001DH   BYTE   INSEG    CODE           ?PR?DL1B_SIMIIC_DELAY?SEEKFREE_DL1B
FF0083H   FF0085H   000003H   ---    OFFS..   CODE           ?PR?IV?16
FF0086H   FF008AH   000005H   ---    ---      **GAP**
FF008BH   FF008DH   000003H   ---    OFFS..   CODE           ?PR?IV?17
FF008EH   FF0092H   000005H   ---    ---      **GAP**
FF0093H   FF0095H   000003H   ---    OFFS..   CODE           ?PR?IV?18
FF0096H   FF009AH   000005H   ---    ---      **GAP**
FF009BH   FF009DH   000003H   ---    OFFS..   CODE           ?PR?IV?19
FF009EH   FF00A2H   000005H   ---    ---      **GAP**
FF00A3H   FF00A5H   000003H   ---    OFFS..   CODE           ?PR?IV?20
FF00A6H   FF212CH   002087H   BYTE   UNIT     CODE           ?CO?SEEKFREE_CONFIG
FF212DH   FF2F34H   000E08H   BYTE   UNIT     CODE           ?CO?SEEKFREE_FONT
FF2F35H   FF3AB4H   000B80H   BYTE   UNIT     CODE           ?C?LIB_CODE
FF3AB5H   FF445FH   0009ABH   BYTE   INSEG    CODE           ?PR?ELE_DIRECTION_CONTROL?PIDCC
FF4460H   FF4D6CH   00090DH   BYTE   INSEG    CODE           ?PR?GPIO_MODE?ZF_GPIO
L251 LINKER/LOCATER V4.66.93.0                                                        10/07/2023  15:37:24  PAGE 8


FF4D6DH   FF5146H   0003DAH   BYTE   INSEG    CODE           ?PR?PWM_INIT?ZF_PWM
FF5147H   FF54FEH   0003B8H   BYTE   INSEG    CODE           ?PR?PWM_SET_GPIO?ZF_PWM
FF54FFH   FF5830H   000332H   BYTE   INSEG    CODE           ?PR?EM_ADC?EM
FF5831H   FF5AE2H   0002B2H   BYTE   INSEG    CODE           ?PR?UART_INIT?ZF_UART
FF5AE3H   FF5D37H   000255H   BYTE   INSEG    CODE           ?PR?SPEEDRIGHT_PID_REALIZE?PIDCC
FF5D38H   FF5F8CH   000255H   BYTE   INSEG    CODE           ?PR?SPEEDLEFT_PID_REALIZE?PIDCC
FF5F8DH   FF6192H   000206H   BYTE   INSEG    CODE           ?PR?SET_CLK?BOARD
FF6193H   FF635DH   0001CBH   BYTE   INSEG    CODE           ?PR?ADC_NORMALIZATION1?EM
FF635EH   FF64D1H   000174H   BYTE   INSEG    CODE           ?PR?IPS114_INIT?SEEKFREE_IPS114_SPI
FF64D2H   FF663AH   000169H   BYTE   INSEG    CODE           ?PR?DL1A_GET_SEQUENCE_STEP_TIMEOUTS?SEEKFREE_DL1A
FF663BH   FF6772H   000138H   BYTE   INSEG    CODE           ?PR?FIFO_WRITE_BUFFER?ZF_FIFO
FF6773H   FF6891H   00011FH   BYTE   INSEG    CODE           ?PR?PID_PARAM_INIT?PIDCC
FF6892H   FF69A9H   000118H   BYTE   INSEG    CODE           ?PR?PWM_DUTY?ZF_PWM
FF69AAH   FF6A9EH   0000F5H   BYTE   INSEG    CODE           ?PR?SPI_INIT?ZF_SPI
FF6A9FH   FF6B8FH   0000F1H   BYTE   INSEG    CODE           ?PR?PWMSETMOTOR2?MOTOR
FF6B90H   FF6C74H   0000E5H   BYTE   INSEG    CODE           ?PR?PIT_TIMER_MS?ZF_TIM
FF6C75H   FF6D41H   0000CDH   BYTE   INSEG    CODE           ?PR?IPS114_SHOWUINT16?SEEKFREE_IPS114_SPI
FF6D42H   FF6E00H   0000BFH   BYTE   INSEG    CODE           ?PR?IPS114_SHOWCHAR?SEEKFREE_IPS114_SPI
FF6E01H   FF6EB5H   0000B5H   BYTE   INSEG    CODE           ?PR?ADC_INIT?ZF_ADC
FF6EB6H   FF6F69H   0000B4H   BYTE   INSEG    CODE           ?PR?CTIMER_COUNT_READ?ZF_TIM
FF6F6AH   FF7000H   000097H   BYTE   INSEG    CODE           ?PR?BOARD_INIT?BOARD
FF7001H   FF708EH   00008EH   BYTE   INSEG    CODE           ?PR?DL1A_GET_SEQUENCE_STEP_ENABLES?SEEKFREE_DL1A
FF708FH   FF710DH   00007FH   BYTE   INSEG    CODE           ?PR?DL1A_ENCODE_TIMEOUT?SEEKFREE_DL1A
FF710EH   FF7187H   00007AH   BYTE   INSEG    CODE           ?PR?DL1A_GET_VCSEL_PULSE_PERIOD?SEEKFREE_DL1A
FF7188H   FF71FEH   000077H   BYTE   INSEG    CODE           ?PR?ENCODERCOUNT?ENCODER
FF71FFH   FF7273H   000075H   BYTE   INSEG    CODE           ?PR?UART_PUTCHAR?ZF_UART
FF7274H   FF72E6H   000073H   BYTE   INSEG    CODE           ?PR?UART4_ISR?ISR
FF72E7H   FF7352H   00006CH   BYTE   INSEG    CODE           ?PR?IMU963RA_READ_MAG_REGISTER?SEEKFREE_IMU963RA
FF7353H   FF73BCH   00006AH   BYTE   INSEG    CODE           ?PR?FIFO_HEAD_OFFSET?ZF_FIFO
FF73BDH   FF7426H   00006AH   BYTE   INSEG    CODE           ?PR?DL1A_READ_CH?SEEKFREE_DL1A
FF7427H   FF7490H   00006AH   BYTE   INSEG    CODE           ?PR?DL1B_READ_CH?SEEKFREE_DL1B
FF7491H   FF74F8H   000068H   BYTE   INSEG    CODE           ?PR?DL1A_SIMIIC_READ_REGS?SEEKFREE_DL1A
FF74F9H   FF755CH   000064H   BYTE   INSEG    CODE           ?PR?LCD_SET_REGION_SIMSPI?SEEKFREE_18TFT
FF755DH   FF75C0H   000064H   BYTE   INSEG    CODE           ?PR?LCD_SET_REGION?SEEKFREE_18TFT
FF75C1H   FF761FH   00005FH   BYTE   INSEG    CODE           ?PR?IPS114_CLEAR?SEEKFREE_IPS114_SPI
FF7620H   FF767CH   00005DH   BYTE   INSEG    CODE           ?PR?CTIMER_COUNT_CLEAN?ZF_TIM
FF767DH   FF76D5H   000059H   BYTE   INSEG    CODE           ?PR?ICM20602_SIMSPI_WR_BYTE?SEEKFREE_ICM20602
FF76D6H   FF772EH   000059H   BYTE   INSEG    CODE           ?PR?IMU660RA_SIMSPI_WR_BYTE?SEEKFREE_IMU660RA
FF772FH   FF7787H   000059H   BYTE   INSEG    CODE           ?PR?IMU963RA_SIMSPI_WR_BYTE?SEEKFREE_IMU963RA
FF7788H   FF77DEH   000057H   BYTE   INSEG    CODE           ?PR?MAIN?MAIN
FF77DFH   FF7834H   000056H   BYTE   INSEG    CODE           ?PR?ADC_ONCE?ZF_ADC
FF7835H   FF7889H   000055H   BYTE   INSEG    CODE           ?PR?LCD_WRITEDATA_16BIT_SIMSPI?SEEKFREE_18TFT
FF788AH   FF78DEH   000055H   BYTE   INSEG    CODE           ?PR?IPS114_WRITEDATAI_16BIT_SIMSPI?SEEKFREE_IPS114_SPI
FF78DFH   FF7932H   000054H   BYTE   INSEG    CODE           ?PR?CTIMER_COUNT_INIT?ZF_TIM
FF7933H   FF7986H   000054H   BYTE   INSEG    CODE           ?PR?IPS114_SET_REGION?SEEKFREE_IPS114_SPI
FF7987H   FF79D9H   000053H   BYTE   INSEG    CODE           ?PR?DL1A_TIMEOUT_MCLKS_TO_MICROSECONDS?SEEKFREE_DL1A
FF79DAH   FF7A2AH   000051H   BYTE   INSEG    CODE           ?PR?DL1A_TIMEOUT_MICROSECONDS_TO_MCLKS?SEEKFREE_DL1A
FF7A2BH   FF7A7BH   000051H   BYTE   INSEG    CODE           ?PR?ICM20602_SIMSPI_R_REG_BYTES?SEEKFREE_ICM20602
FF7A7CH   FF7AC7H   00004CH   BYTE   INSEG    CODE           ?PR?LCD_WRITEINDEX_SIMSPI?SEEKFREE_18TFT
FF7AC8H   FF7B13H   00004CH   BYTE   INSEG    CODE           ?PR?LCD_WRITEDATA_SIMSPI?SEEKFREE_18TFT
FF7B14H   FF7B5FH   00004CH   BYTE   INSEG    CODE           ?PR?IPS114_WRITEINDEX_SIMSPI?SEEKFREE_IPS114_SPI
FF7B60H   FF7BABH   00004CH   BYTE   INSEG    CODE           ?PR?OLED_WRCMD?SEEKFREE_OLED
FF7BACH   FF7BF7H   00004CH   BYTE   INSEG    CODE           ?PR?OLED_WRDAT?SEEKFREE_OLED
FF7BF8H   FF7C42H   00004BH   BYTE   INSEG    CODE           ?PR?IMU660RA_SIMSPI_R_REG_BYTES?SEEKFREE_IMU660RA
FF7C43H   FF7C8BH   000049H   BYTE   INSEG    CODE           ?PR?DL1A_SEND_CH?SEEKFREE_DL1A
FF7C8CH   FF7CD4H   000049H   BYTE   INSEG    CODE           ?PR?DL1B_SEND_CH?SEEKFREE_DL1B
FF7CD5H   FF7D1AH   000046H   BYTE   INSEG    CODE           ?PR?UART1_ISR?ISR
FF7D1BH   FF7D5FH   000045H   BYTE   INSEG    CODE           ?PR?MOTOR_INIT?MOTOR
FF7D60H   FF7DA1H   000042H   BYTE   INSEG    CODE           ?PR?DL1A_SIMIIC_WRITE_DATS?SEEKFREE_DL1A
FF7DA2H   FF7DE2H   000041H   BYTE   INSEG    CODE           ?PR?DELAY_INIT?ZF_DELAY
FF7DE3H   FF7E22H   000040H   BYTE   INSEG    CODE           ?PR?TM1_ISR?ISR
FF7E23H   FF7E35H   000013H   BYTE   UNIT     CODE           ?C_C51STARTUP
FF7E36H   FF7E5EH   000029H   BYTE   UNIT     CODE           ?C_C51STARTUP?2
FF7E5FH   FF7E61H   000003H   BYTE   UNIT     CODE           ?C_C51STARTUP?3
FF7E62H   FF7E9DH   00003CH   BYTE   INSEG    CODE           ?PR?PWMSETSTEER?STEER
L251 LINKER/LOCATER V4.66.93.0                                                        10/07/2023  15:37:24  PAGE 9


FF7E9EH   FF7ED3H   000036H   BYTE   INSEG    CODE           ?PR?OLED_SET_POS_SPI?SEEKFREE_OLED
FF7ED4H   FF7F08H   000035H   BYTE   INSEG    CODE           ?PR?DELAY_MS?ZF_DELAY
FF7F09H   FF7F3DH   000035H   BYTE   INSEG    CODE           ?PR?OLED_SET_POS?SEEKFREE_OLED
FF7F3EH   FF7F6BH   00002EH   BYTE   INSEG    CODE           ?PR?PID_STEERS?PIDCC
FF7F6CH   FF7F98H   00002DH   BYTE   INSEG    CODE           ?PR?IMU963RA_SIMSPI_R_REG_BYTE?SEEKFREE_IMU963RA
FF7F99H   FF7FC2H   00002AH   BYTE   INSEG    CODE           ?PR?LCD_WRITEDATA_16BIT?SEEKFREE_18TFT
FF7FC3H   FF7FECH   00002AH   BYTE   INSEG    CODE           ?PR?DL1A_DECODE_TIMEOUT?SEEKFREE_DL1A
FF7FEDH   FF8016H   00002AH   BYTE   INSEG    CODE           ?PR?IPS114_WRITEDATA_16BIT?SEEKFREE_IPS114_SPI
FF8017H   FF803EH   000028H   BYTE   INSEG    CODE           ?PR?DL1A_SIMIIC_SENDACK?SEEKFREE_DL1A
FF803FH   FF8066H   000028H   BYTE   INSEG    CODE           ?PR?DL1B_SIMIIC_SENDACK?SEEKFREE_DL1B
FF8067H   FF808EH   000028H   BYTE   INSEG    CODE           ?PR?MPU6050_SIMIIC_SENDACK?SEEKFREE_MPU6050
FF808FH   FF80B5H   000027H   BYTE   INSEG    CODE           ?PR?ICM20602_SIMSPI_R_REG_BYTE?SEEKFREE_ICM20602
FF80B6H   FF80DAH   000025H   BYTE   INSEG    CODE           ?PR?MEMCPY?_?MEMCPY
FF80DBH   FF80FDH   000023H   BYTE   INSEG    CODE           ?PR?IMU963RA_READ_ACC_GYRO_REGISTER?SEEKFREE_IMU963RA
FF80FEH   FF811FH   000022H   BYTE   INSEG    CODE           ?PR?IMU660RA_READ_REGISTER?SEEKFREE_IMU660RA
FF8120H   FF8141H   000022H   BYTE   INSEG    CODE           ?PR?ALL_INIT?ALLINIT
FF8142H   FF8162H   000021H   BYTE   INSEG    CODE           ?PR?DL1A_SCCB_WAITACK?SEEKFREE_DL1A
FF8163H   FF8183H   000021H   BYTE   INSEG    CODE           ?PR?DL1B_SCCB_WAITACK?SEEKFREE_DL1B
FF8184H   FF81A4H   000021H   BYTE   INSEG    CODE           ?PR?IMU963RA_SIMSPI_W_REG_BYTE?SEEKFREE_IMU963RA
FF81A5H   FF81C4H   000020H   BYTE   INSEG    CODE           ?PR?SPEED_PID?PIDCC
FF81C5H   FF81E2H   00001EH   BYTE   INSEG    CODE           ?PR?ICM20602_READ_REGISTER?SEEKFREE_ICM20602
FF81E3H   FF8200H   00001EH   BYTE   INSEG    CODE           ?PR?UART2_ISR?ISR
FF8201H   FF821EH   00001EH   BYTE   INSEG    CODE           ?PR?UART3_ISR?ISR
FF821FH   FF823BH   00001DH   BYTE   INSEG    CODE           ?PR?MPU6050_SIMIIC_DELAY?SEEKFREE_MPU6050
FF823CH   FF8255H   00001AH   BYTE   INSEG    CODE           ?PR?BLUETOOTH_CH9141_UART_CALLBACK?SEEKFREE_BLUETOOTH_CH91
                                                             -41
FF8256H   FF826FH   00001AH   BYTE   INSEG    CODE           ?PR?IMU963RA_WRITE_ACC_GYRO_REGISTER?SEEKFREE_IMU963RA
FF8270H   FF8289H   00001AH   BYTE   INSEG    CODE           ?PR?WIRELESS_UART_CALLBACK?SEEKFREE_WIRELESS
FF828AH   FF82A3H   00001AH   BYTE   INSEG    CODE           ?PR?WIRELESS_CH573_CALLBACK?SEEKFREE_WIRELESS_CH573
FF82A4H   FF82BBH   000018H   BYTE   INSEG    CODE           ?PR?TIMER_INIT?ALLINIT
FF82BCH   FF82D1H   000016H   BYTE   INSEG    CODE           ?PR?DL1A_SIMIIC_STOP?SEEKFREE_DL1A
FF82D2H   FF82E7H   000016H   BYTE   INSEG    CODE           ?PR?MPU6050_SIMIIC_STOP?SEEKFREE_MPU6050
FF82E8H   FF82FCH   000015H   BYTE   INSEG    CODE           ?PR?LCD_WRITEINDEX?SEEKFREE_18TFT
FF82FDH   FF8311H   000015H   BYTE   INSEG    CODE           ?PR?LCD_WRITEDATA?SEEKFREE_18TFT
FF8312H   FF8326H   000015H   BYTE   INSEG    CODE           ?PR?IPS114_WRITEINDEX?SEEKFREE_IPS114_SPI
FF8327H   FF833BH   000015H   BYTE   INSEG    CODE           ?PR?IPS114_WRITEDATA?SEEKFREE_IPS114_SPI
FF833CH   FF8350H   000015H   BYTE   INSEG    CODE           ?PR?OLED_WRCMD_SPI?SEEKFREE_OLED
FF8351H   FF8365H   000015H   BYTE   INSEG    CODE           ?PR?OLED_WRDAT_SPI?SEEKFREE_OLED
FF8366H   FF8379H   000014H   BYTE   INSEG    CODE           ?PR?STEER_INIT?STEER
FF837AH   FF838CH   000013H   BYTE   INSEG    CODE           ?PR?DL1A_SIMIIC_START?SEEKFREE_DL1A
FF838DH   FF839FH   000013H   BYTE   INSEG    CODE           ?PR?MPU6050_SIMIIC_START?SEEKFREE_MPU6050
FF83A0H   FF83B1H   000012H   BYTE   INSEG    CODE           ?PR?PUTCHAR?BOARD
FF83B2H   FF83C3H   000012H   BYTE   INSEG    CODE           ?PR?SPI_MOSI?ZF_SPI
FF83C4H   FF83CBH   000008H   BYTE   INSEG    CODE           ?PR?INT2_ISR?ISR
FF83CCH   FF83D3H   000008H   BYTE   INSEG    CODE           ?PR?INT3_ISR?ISR
FF83D4H   FF83DBH   000008H   BYTE   INSEG    CODE           ?PR?INT4_ISR?ISR
FF83DCH   FF83E3H   000008H   BYTE   INSEG    CODE           ?PR?TM2_ISR?ISR
FF83E4H   FF83EBH   000008H   BYTE   INSEG    CODE           ?PR?TM3_ISR?ISR
FF83ECH   FF83F3H   000008H   BYTE   INSEG    CODE           ?PR?TM4_ISR?ISR
FF83F4H   FF8543H   000150H   BYTE   UNIT     HCONST         ?C_INITEDATA
FF8544H   FF859BH   000058H   BYTE   UNIT     HCONST         ?HC?ZF_PWM
FF859CH   FF85E6H   00004BH   BYTE   UNIT     HCONST         ?HC?SEEKFREE_IMU963RA
FF85E7H   FF861AH   000034H   BYTE   UNIT     HCONST         ?HC?SEEKFREE_IMU660RA
FF861BH   FF864DH   000033H   BYTE   UNIT     HCONST         ?HC?SEEKFREE_ICM20602
FF864EH   FF8663H   000016H   BYTE   UNIT     HCONST         ?HC?SEEKFREE_MPU6050
FF8664H   FF8676H   000013H   BYTE   UNIT     HCONST         ?HC?SEEKFREE_DL1A
FF8677H   FF8680H   00000AH   BYTE   UNIT     HCONST         ?HC?SEEKFREE_OLED
FF8681H   FF8686H   000006H   BYTE   UNIT     HCONST         ?HC?SEEKFREE_18TFT
FF8687H   FF868CH   000006H   BYTE   UNIT     HCONST         ?HC?SEEKFREE_IPS114_SPI

* * * * * * * * *   R E M O V E D     S E G M E N T S   * * * * * * * *
   *DEL*:           000004H   BYTE   INSEG    CODE           ?PR?DISABLEGLOBALIRQ?BOARD
   *DEL*:           000033H   BYTE   INSEG    CODE           ?PR?DELAY_US?ZF_DELAY
   *DEL*:           00001AH   BYTE   INSEG    CODE           ?PR?IAP_SET_TPS?ZF_EEPROM
   *DEL*:           000015H   BYTE   INSEG    CODE           ?PR?EEPROM_TRIG?ZF_EEPROM
L251 LINKER/LOCATER V4.66.93.0                                                        10/07/2023  15:37:24  PAGE 10


   *DEL*:           000029H   BYTE   INSEG    CODE           ?PR?IAP_ERASE_PAGE?ZF_EEPROM
   *DEL*:           000004H   BYTE   INSEG    CODE           ?PR?IAP_IDLE?ZF_EEPROM
   *DEL*:           000062H   BYTE   INSEG    CODE           ?PR?IAP_READ_BYTES?ZF_EEPROM
   *DEL*:           000008H   BYTE   INSEG    CODE           ?PR?IAP_INIT?ZF_EEPROM
   *DEL*:           00005EH   BYTE   INSEG    CODE           ?PR?IAP_WRITE_BYTES?ZF_EEPROM
   *DEL*:           000012H   BYTE   INSEG    CODE           ?PR?IAP_GET_CMD_STATE?ZF_EEPROM
   *DEL*:           000066H   BYTE   INSEG    CODE           ?PR?EXIT_INIT?ZF_EXTI
   *DEL*:           000095H   BYTE   INSEG    CODE           ?PR?GPIO_PULL_SET?ZF_GPIO
   *DEL*:           0000B9H   BYTE   INSEG    CODE           ?PR?NVIC_SETPRIORITY?ZF_NVIC
   *DEL*:           0001ABH   BYTE   INSEG    CODE           ?PR?PWM_FREQ?ZF_PWM
   *DEL*:           000026H   BYTE   INSEG    CODE           ?PR?SPI_CHANGE_MODE?ZF_SPI
   *DEL*:           0000CCH   BYTE   INSEG    CODE           ?PR?SPI_CHANGE_PIN?ZF_SPI
   *DEL*:           000039H   BYTE   INSEG    CODE           ?PR?UART_PUTBUFF?ZF_UART
   *DEL*:           00002BH   BYTE   INSEG    CODE           ?PR?UART_PUTSTR?ZF_UART
   *DEL*:           000183H   BYTE   INSEG    CODE           ?PR?FIFO_READ_BUFFER?ZF_FIFO
   *DEL*:           000043H   BYTE   INSEG    CODE           ?PR?FIFO_CLEAR?ZF_FIFO
   *DEL*:           000070H   BYTE   INSEG    CODE           ?PR?FIFO_END_OFFSET?ZF_FIFO
   *DEL*:           000025H   BYTE   INSEG    CODE           ?PR?FIFO_USED?ZF_FIFO
   *DEL*:           00006EH   BYTE   INSEG    CODE           ?PR?FIFO_INIT?ZF_FIFO
   *DEL*:           0000CDH   BYTE   INSEG    CODE           ?PR?LCD_SHOWUINT16?SEEKFREE_18TFT
   *DEL*:           0000CEH   BYTE   INSEG    CODE           ?PR?LCD_SHOWINT32_SIMSPI?SEEKFREE_18TFT
   *DEL*:           000119H   BYTE   INSEG    CODE           ?PR?LCD_SHOWINT16_SIMSPI?SEEKFREE_18TFT
   *DEL*:           0000CEH   BYTE   INSEG    CODE           ?PR?LCD_SHOWINT32?SEEKFREE_18TFT
   *DEL*:           000119H   BYTE   INSEG    CODE           ?PR?LCD_SHOWINT16?SEEKFREE_18TFT
   *DEL*:           000057H   BYTE   INSEG    CODE           ?PR?LCD_CLEAR_SIMSPI?SEEKFREE_18TFT
   *DEL*:           000057H   BYTE   INSEG    CODE           ?PR?LCD_CLEAR?SEEKFREE_18TFT
   *DEL*:           00005DH   BYTE   INSEG    CODE           ?PR?LCD_SHOWSTR_SIMSPI?SEEKFREE_18TFT
   *DEL*:           00005DH   BYTE   INSEG    CODE           ?PR?LCD_SHOWSTR?SEEKFREE_18TFT
   *DEL*:           0001FDH   BYTE   INSEG    CODE           ?PR?LCD_INIT_SIMSPI?SEEKFREE_18TFT
   *DEL*:           0000ECH   BYTE   INSEG    CODE           ?PR?SHOWIMAGE?SEEKFREE_18TFT
   *DEL*:           0001F3H   BYTE   INSEG    CODE           ?PR?LCD_INIT?SEEKFREE_18TFT
   *DEL*:           0000A9H   BYTE   INSEG    CODE           ?PR?LCD_SHOWUINT8_SIMSPI?SEEKFREE_18TFT
   *DEL*:           0000A9H   BYTE   INSEG    CODE           ?PR?LCD_SHOWUINT8?SEEKFREE_18TFT
   *DEL*:           0000EBH   BYTE   INSEG    CODE           ?PR?LCD_SHOWINT8_SIMSPI?SEEKFREE_18TFT
   *DEL*:           0000EBH   BYTE   INSEG    CODE           ?PR?LCD_SHOWINT8?SEEKFREE_18TFT
   *DEL*:           000145H   BYTE   INSEG    CODE           ?PR?LCD_SHOWFLOAT_SIMSPI?SEEKFREE_18TFT
   *DEL*:           000023H   BYTE   INSEG    CODE           ?PR?LCD_DRAWPOINT_SIMSPI?SEEKFREE_18TFT
   *DEL*:           000145H   BYTE   INSEG    CODE           ?PR?LCD_SHOWFLOAT?SEEKFREE_18TFT
   *DEL*:           000023H   BYTE   INSEG    CODE           ?PR?LCD_DRAWPOINT?SEEKFREE_18TFT
   *DEL*:           0000BFH   BYTE   INSEG    CODE           ?PR?LCD_SHOWCHAR_SIMSPI?SEEKFREE_18TFT
   *DEL*:           0000BFH   BYTE   INSEG    CODE           ?PR?LCD_SHOWCHAR?SEEKFREE_18TFT
   *DEL*:           0000CDH   BYTE   INSEG    CODE           ?PR?LCD_SHOWUINT16_SIMSPI?SEEKFREE_18TFT
   *DEL*:           00002EH   BYTE   INSEG    CODE           ?PR?BLUETOOTH_CH9141_READ_BUFF?SEEKFREE_BLUETOOTH_CH9141
   *DEL*:           0000CCH   BYTE   INSEG    CODE           ?PR?BLUETOOTH_CH9141_SEND_BUFF?SEEKFREE_BLUETOOTH_CH9141
   *DEL*:           00003CH   BYTE   INSEG    CODE           ?PR?BLUETOOTH_CH9141_INIT?SEEKFREE_BLUETOOTH_CH9141
   *DEL*:           00003EH   BYTE   INSEG    CODE           ?PR?DL1A_SET_SIGNAL_RATE_LIMIT?SEEKFREE_DL1A
   *DEL*:           000195H   BYTE   INSEG    CODE           ?PR?DL1A_GET_SPAD_INFO?SEEKFREE_DL1A
   *DEL*:           00006CH   BYTE   INSEG    CODE           ?PR?DL1A_GET_DISTANCE?SEEKFREE_DL1A
   *DEL*:           0000ABH   BYTE   INSEG    CODE           ?PR?DL1A_PERFORM_SINGLE_REF_CALIBRATION?SEEKFREE_DL1A
   *DEL*:           0000B6H   BYTE   INSEG    CODE           ?PR?DL1A_GET_MEASUREMENT_TIMING_BUDGET?SEEKFREE_DL1A
   *DEL*:           00003BH   BYTE   INSEG    CODE           ?PR?DL1A_SIMIIC_READ_REG?SEEKFREE_DL1A
   *DEL*:           000068H   BYTE   INSEG    CODE           ?PR?DL1A_SIMIIC_READ_REGS_1?SEEKFREE_DL1A
   *DEL*:           000149H   BYTE   INSEG    CODE           ?PR?DL1A_SET_MEASUREMENT_TIMING_BUDGET?SEEKFREE_DL1A
   *DEL*:           00002AH   BYTE   INSEG    CODE           ?PR?DL1A_SIMIIC_WRITE_REG?SEEKFREE_DL1A
   *DEL*:           0006AEH   BYTE   INSEG    CODE           ?PR?DL1A_INIT?SEEKFREE_DL1A
   *DEL*:           000079H   BYTE   INSEG    CODE           ?PR?DL1B_IIC_TRANSFER_8BIT_ARRAY?SEEKFREE_DL1B
   *DEL*:           000133H   BYTE   INSEG    CODE           ?PR?DL1B_GET_DISTANCE?SEEKFREE_DL1B
   *DEL*:           000013H   BYTE   INSEG    CODE           ?PR?DL1B_SIMIIC_START?SEEKFREE_DL1B
   *DEL*:           000016H   BYTE   INSEG    CODE           ?PR?DL1B_SIMIIC_STOP?SEEKFREE_DL1B
   *DEL*:           000112H   BYTE   INSEG    CODE           ?PR?DL1B_INIT?SEEKFREE_DL1B
   *DEL*:           00008DH   BYTE   INSEG    CODE           ?PR?ICM20602_GYRO_TRANSITION?SEEKFREE_ICM20602
   *DEL*:           00001AH   BYTE   INSEG    CODE           ?PR?ICM20602_WRITE_REGISTER?SEEKFREE_ICM20602
   *DEL*:           00004EH   BYTE   INSEG    CODE           ?PR?ICM20602_SELF_CHECK?SEEKFREE_ICM20602
   *DEL*:           00001BH   BYTE   INSEG    CODE           ?PR?ICM20602_SIMSPI_W_REG_BYTE?SEEKFREE_ICM20602
   *DEL*:           0000C2H   BYTE   INSEG    CODE           ?PR?ICM20602_INIT?SEEKFREE_ICM20602
L251 LINKER/LOCATER V4.66.93.0                                                        10/07/2023  15:37:24  PAGE 11


   *DEL*:           000050H   BYTE   INSEG    CODE           ?PR?ICM20602_GET_ACC?SEEKFREE_ICM20602
   *DEL*:           000089H   BYTE   INSEG    CODE           ?PR?ICM20602_ACC_TRANSITION?SEEKFREE_ICM20602
   *DEL*:           000026H   BYTE   INSEG    CODE           ?PR?ICM20602_READ_REGISTERS?SEEKFREE_ICM20602
   *DEL*:           000050H   BYTE   INSEG    CODE           ?PR?ICM20602_GET_GYRO?SEEKFREE_ICM20602
   *DEL*:           000050H   BYTE   INSEG    CODE           ?PR?IMU660RA_GET_GYRO?SEEKFREE_IMU660RA
   *DEL*:           000022H   BYTE   INSEG    CODE           ?PR?IMU660RA_WRITE_REGISTERS?SEEKFREE_IMU660RA
   *DEL*:           0000A8H   BYTE   INSEG    CODE           ?PR?IMU660RA_GYRO_TRANSITION?SEEKFREE_IMU660RA
   *DEL*:           00001AH   BYTE   INSEG    CODE           ?PR?IMU660RA_WRITE_REGISTER?SEEKFREE_IMU660RA
   *DEL*:           00004BH   BYTE   INSEG    CODE           ?PR?IMU660RA_SELF_CHECK?SEEKFREE_IMU660RA
   *DEL*:           00003EH   BYTE   INSEG    CODE           ?PR?IMU660RA_SIMSPI_W_REG_BYTES?SEEKFREE_IMU660RA
   *DEL*:           00001BH   BYTE   INSEG    CODE           ?PR?IMU660RA_SIMSPI_W_REG_BYTE?SEEKFREE_IMU660RA
   *DEL*:           0000AEH   BYTE   INSEG    CODE           ?PR?IMU660RA_INIT?SEEKFREE_IMU660RA
   *DEL*:           000050H   BYTE   INSEG    CODE           ?PR?IMU660RA_GET_ACC?SEEKFREE_IMU660RA
   *DEL*:           00007CH   BYTE   INSEG    CODE           ?PR?IMU660RA_ACC_TRANSITION?SEEKFREE_IMU660RA
   *DEL*:           000026H   BYTE   INSEG    CODE           ?PR?IMU660RA_READ_REGISTERS?SEEKFREE_IMU660RA
   *DEL*:           00008DH   BYTE   INSEG    CODE           ?PR?IMU963RA_ACC_TRANSITION?SEEKFREE_IMU963RA
   *DEL*:           000050H   BYTE   INSEG    CODE           ?PR?IMU963RA_GET_GYRO?SEEKFREE_IMU963RA
   *DEL*:           000051H   BYTE   INSEG    CODE           ?PR?IMU963RA_MAG_TRANSITION?SEEKFREE_IMU963RA
   *DEL*:           0000D2H   BYTE   INSEG    CODE           ?PR?IMU963RA_GYRO_TRANSITION?SEEKFREE_IMU963RA
   *DEL*:           00003AH   BYTE   INSEG    CODE           ?PR?IMU963RA_CONNECT_MAG?SEEKFREE_IMU963RA
   *DEL*:           000026H   BYTE   INSEG    CODE           ?PR?IMU963RA_READ_ACC_GYRO_REGISTERS?SEEKFREE_IMU963RA
   *DEL*:           00007FH   BYTE   INSEG    CODE           ?PR?IMU963RA_WRITE_MAG_REGISTER?SEEKFREE_IMU963RA
   *DEL*:           00004BH   BYTE   INSEG    CODE           ?PR?IMU963RA_SIMSPI_R_REG_BYTES?SEEKFREE_IMU963RA
   *DEL*:           000051H   BYTE   INSEG    CODE           ?PR?IMU963RA_MAG_SELF_CHECK?SEEKFREE_IMU963RA
   *DEL*:           00011DH   BYTE   INSEG    CODE           ?PR?IMU963RA_INIT?SEEKFREE_IMU963RA
   *DEL*:           00004EH   BYTE   INSEG    CODE           ?PR?IMU963RA_ACC_GYRO_SELF_CHECK?SEEKFREE_IMU963RA
   *DEL*:           000050H   BYTE   INSEG    CODE           ?PR?IMU963RA_GET_ACC?SEEKFREE_IMU963RA
   *DEL*:           00006BH   BYTE   INSEG    CODE           ?PR?IMU963RA_GET_MAG?SEEKFREE_IMU963RA
   *DEL*:           0000A9H   BYTE   INSEG    CODE           ?PR?IPS114_SHOWUINT8_SIMSPI?SEEKFREE_IPS114_SPI
   *DEL*:           0000A5H   BYTE   INSEG    CODE           ?PR?IPS114_SHOWUINT8?SEEKFREE_IPS114_SPI
   *DEL*:           0000EBH   BYTE   INSEG    CODE           ?PR?IPS114_SHOWINT8_SIMSPI?SEEKFREE_IPS114_SPI
   *DEL*:           0000E7H   BYTE   INSEG    CODE           ?PR?IPS114_SHOWINT8?SEEKFREE_IPS114_SPI
   *DEL*:           000145H   BYTE   INSEG    CODE           ?PR?IPS114_SHOWFLOAT_SIMSPI?SEEKFREE_IPS114_SPI
   *DEL*:           000023H   BYTE   INSEG    CODE           ?PR?IPS114_DRAWPOINT_SIMSPI?SEEKFREE_IPS114_SPI
   *DEL*:           000145H   BYTE   INSEG    CODE           ?PR?IPS114_SHOWFLOAT?SEEKFREE_IPS114_SPI
   *DEL*:           000023H   BYTE   INSEG    CODE           ?PR?IPS114_DRAWPOINT?SEEKFREE_IPS114_SPI
   *DEL*:           0000BFH   BYTE   INSEG    CODE           ?PR?IPS114_SHOWCHAR_SIMSPI?SEEKFREE_IPS114_SPI
   *DEL*:           0000CDH   BYTE   INSEG    CODE           ?PR?IPS114_SHOWUINT16_SIMSPI?SEEKFREE_IPS114_SPI
   *DEL*:           0000CEH   BYTE   INSEG    CODE           ?PR?IPS114_SHOWINT32_SIMSPI?SEEKFREE_IPS114_SPI
   *DEL*:           000119H   BYTE   INSEG    CODE           ?PR?IPS114_SHOWINT16_SIMSPI?SEEKFREE_IPS114_SPI
   *DEL*:           0000CEH   BYTE   INSEG    CODE           ?PR?IPS114_SHOWINT32?SEEKFREE_IPS114_SPI
   *DEL*:           000115H   BYTE   INSEG    CODE           ?PR?IPS114_SHOWINT16?SEEKFREE_IPS114_SPI
   *DEL*:           00005FH   BYTE   INSEG    CODE           ?PR?IPS114_CLEAR_SIMSPI?SEEKFREE_IPS114_SPI
   *DEL*:           00005DH   BYTE   INSEG    CODE           ?PR?IPS114_SHOWSTR_SIMSPI?SEEKFREE_IPS114_SPI
   *DEL*:           00005DH   BYTE   INSEG    CODE           ?PR?IPS114_SHOWSTR?SEEKFREE_IPS114_SPI
   *DEL*:           00004CH   BYTE   INSEG    CODE           ?PR?IPS114_WRITEDATA_SIMSPI?SEEKFREE_IPS114_SPI
   *DEL*:           000054H   BYTE   INSEG    CODE           ?PR?IPS114_SET_REGION_SIMSPI?SEEKFREE_IPS114_SPI
   *DEL*:           000154H   BYTE   INSEG    CODE           ?PR?IPS114_INIT_SIMSPI?SEEKFREE_IPS114_SPI
   *DEL*:           00006CH   BYTE   INSEG    CODE           ?PR?MPU6050_SIMIIC_READ_REGS?SEEKFREE_MPU6050
   *DEL*:           00003BH   BYTE   INSEG    CODE           ?PR?MPU6050_SIMIIC_READ_REG?SEEKFREE_MPU6050
   *DEL*:           00002AH   BYTE   INSEG    CODE           ?PR?MPU6050_SIMIIC_WRITE_REG?SEEKFREE_MPU6050
   *DEL*:           000060H   BYTE   INSEG    CODE           ?PR?MPU6050_INIT?SEEKFREE_MPU6050
   *DEL*:           000033H   BYTE   INSEG    CODE           ?PR?MPU6050_SELF1_CHECK?SEEKFREE_MPU6050
   *DEL*:           00006AH   BYTE   INSEG    CODE           ?PR?MPU6050_READ_CH?SEEKFREE_MPU6050
   *DEL*:           000049H   BYTE   INSEG    CODE           ?PR?MPU6050_SEND_CH?SEEKFREE_MPU6050
   *DEL*:           000052H   BYTE   INSEG    CODE           ?PR?MPU6050_GET_GYRO?SEEKFREE_MPU6050
   *DEL*:           000021H   BYTE   INSEG    CODE           ?PR?MPU6050_SCCB_WAITACK?SEEKFREE_MPU6050
   *DEL*:           000052H   BYTE   INSEG    CODE           ?PR?MPU6050_GET_ACCDATA?SEEKFREE_MPU6050
   *DEL*:           000047H   BYTE   INSEG    CODE           ?PR?OLED_PUTPIXEL?SEEKFREE_OLED
   *DEL*:           00006FH   BYTE   INSEG    CODE           ?PR?OLED_HEXASCII_SPI?SEEKFREE_OLED
   *DEL*:           00044DH   BYTE   INSEG    CODE           ?PR?OLED_DIS_BMP_SPI?SEEKFREE_OLED
   *DEL*:           000145H   BYTE   INSEG    CODE           ?PR?OLED_PRINTF_FLOAT?SEEKFREE_OLED
   *DEL*:           000121H   BYTE   INSEG    CODE           ?PR?OLED_P8X16STR_SPI?SEEKFREE_OLED
   *DEL*:           000041H   BYTE   INSEG    CODE           ?PR?OLED_CLRPIXEL_SPI?SEEKFREE_OLED
   *DEL*:           0000C0H   BYTE   INSEG    CODE           ?PR?OLED_PRINT_CHINESE_SPI?SEEKFREE_OLED
L251 LINKER/LOCATER V4.66.93.0                                                        10/07/2023  15:37:24  PAGE 12


   *DEL*:           00005DH   BYTE   INSEG    CODE           ?PR?OLED_FILL?SEEKFREE_OLED
   *DEL*:           0000CEH   BYTE   INSEG    CODE           ?PR?OLED_PRINTF_INT32?SEEKFREE_OLED
   *DEL*:           000027H   BYTE   INSEG    CODE           ?PR?OLED_UINT16?SEEKFREE_OLED
   *DEL*:           000048H   BYTE   INSEG    CODE           ?PR?OLED_PUTPIXEL_SPI?SEEKFREE_OLED
   *DEL*:           0000D1H   BYTE   INSEG    CODE           ?PR?OLED_P6X8STR?SEEKFREE_OLED
   *DEL*:           000073H   BYTE   INSEG    CODE           ?PR?OLED_INT16?SEEKFREE_OLED
   *DEL*:           0000A8H   BYTE   INSEG    CODE           ?PR?OLED_INIT?SEEKFREE_OLED
   *DEL*:           000145H   BYTE   INSEG    CODE           ?PR?OLED_PRINTF_FLOAT_SPI?SEEKFREE_OLED
   *DEL*:           00006FH   BYTE   INSEG    CODE           ?PR?OLED_HEXASCII?SEEKFREE_OLED
   *DEL*:           00005DH   BYTE   INSEG    CODE           ?PR?OLED_FILL_SPI?SEEKFREE_OLED
   *DEL*:           0000CEH   BYTE   INSEG    CODE           ?PR?OLED_PRINTF_INT32_SPI?SEEKFREE_OLED
   *DEL*:           000027H   BYTE   INSEG    CODE           ?PR?OLED_UINT16_SPI?SEEKFREE_OLED
   *DEL*:           0000D1H   BYTE   INSEG    CODE           ?PR?OLED_P6X8STR_SPI?SEEKFREE_OLED
   *DEL*:           000073H   BYTE   INSEG    CODE           ?PR?OLED_INT16_SPI?SEEKFREE_OLED
   *DEL*:           00046AH   BYTE   INSEG    CODE           ?PR?OLED_DIS_BMP?SEEKFREE_OLED
   *DEL*:           0000C5H   BYTE   INSEG    CODE           ?PR?OLED_INIT_SPI?SEEKFREE_OLED
   *DEL*:           000121H   BYTE   INSEG    CODE           ?PR?OLED_P8X16STR?SEEKFREE_OLED
   *DEL*:           000040H   BYTE   INSEG    CODE           ?PR?OLED_CLRPIXEL?SEEKFREE_OLED
   *DEL*:           0000C0H   BYTE   INSEG    CODE           ?PR?OLED_PRINT_CHINESE?SEEKFREE_OLED
   *DEL*:           000117H   BYTE   INSEG    CODE           ?PR?NUMBER_CONVERSION_ASCII?SEEKFREE_PRINTF
   *DEL*:           000661H   BYTE   INSEG    CODE           ?PR?ZF_SPRINTF?SEEKFREE_PRINTF
   *DEL*:           000095H   BYTE   INSEG    CODE           ?PR?PRINTF_REVERSE_ORDER?SEEKFREE_PRINTF
   *DEL*:           00009AH   BYTE   INSEG    CODE           ?PR?CRC_CHECK?SEEKFREE_VIRSCO
   *DEL*:           0000DCH   BYTE   INSEG    CODE           ?PR?DATA_CONVERSION?SEEKFREE_VIRSCO
   *DEL*:           00002EH   BYTE   INSEG    CODE           ?PR?WIRELESS_UART_READ_BUFF?SEEKFREE_WIRELESS
   *DEL*:           000073H   BYTE   INSEG    CODE           ?PR?WIRELESS_UART_SEND_BUFF?SEEKFREE_WIRELESS
   *DEL*:           00003EH   BYTE   INSEG    CODE           ?PR?WIRELESS_UART_INIT?SEEKFREE_WIRELESS
   *DEL*:           00002EH   BYTE   INSEG    CODE           ?PR?WIRELESS_CH573_READ_BUFF?SEEKFREE_WIRELESS_CH573
   *DEL*:           000073H   BYTE   INSEG    CODE           ?PR?WIRELESS_CH573_SEND_BUFF?SEEKFREE_WIRELESS_CH573
   *DEL*:           00003EH   BYTE   INSEG    CODE           ?PR?WIRELESS_CH573_INIT?SEEKFREE_WIRELESS_CH573
   *DEL*:           000153H   BYTE   INSEG    CODE           ?PR?FILTER?EM
   *DEL*:           0001B5H   BYTE   INSEG    CODE           ?PR?INFRARED_DETECTION?EM
   *DEL*:           00001FH   BYTE   INSEG    CODE           ?PR?PROTECT?MOTOR
   *DEL*:           000001H   BYTE   INSEG    CODE           ?PR?MOTORCTRL?MOTOR
   *DEL*:           000036H   BYTE   INSEG    CODE           ?PR?JUDGE_CIRCLE_IN?PIDCC
   *DEL*:           000036H   BYTE   INSEG    CODE           ?PR?JUDGE_CIRCLE_OUT?PIDCC
   *DEL*:           0000ABH   BYTE   INSEG    CODE           ?PR?JUDGE_CIRCLE?PIDCC
   *DEL*:           000001H   BYTE   INSEG    CODE           ?PR?STEERCTRL?STEER
   *DEL*:           000028H   BYTE   UNIT     EDATA          ?ED?PRINTF
   *DEL*:           0000F2H   BYTE   INSEG    CODE           ?PR?POW?_?POW
   *DEL*:           00001AH   BYTE   INSEG    CODE           ?PR?MEMSET?_?MEMSET



OVERLAY MAP OF MODULE:   .\Out_File\SEEKFREE (board)


FUNCTION/MODULE                                BIT_GROUP   DATA_GROUP 
--> CALLED FUNCTION/MODULE                    START  STOP  START  STOP
======================================================================
UART1_Isr/isr                                 ----- -----  ----- -----

*** NEW ROOT ********************************

UART2_Isr/isr                                 ----- -----  ----- -----

*** NEW ROOT ********************************

UART3_Isr/isr                                 ----- -----  ----- -----

*** NEW ROOT ********************************

UART4_Isr/isr                                 ----- -----  ----- -----
  +--> wireless_uart_callback/SEEKFREE_WIRELESS
  +--> bluetooth_ch9141_uart_callback/SEEKFREE_BLUETOOTH_CH9141
L251 LINKER/LOCATER V4.66.93.0                                                        10/07/2023  15:37:24  PAGE 13


  +--> wireless_ch573_callback/SEEKFREE_WIRELESS_CH573

wireless_uart_callback/SEEKFREE_WIRELESS      ----- -----  ----- -----
  +--> fifo_write_buffer/zf_fifo

fifo_write_buffer/zf_fifo                     ----- -----  ----- -----
  +--> memcpy?_/memcpy
  +--> fifo_head_offset/zf_fifo

memcpy?_/memcpy                               ----- -----  ----- -----

fifo_head_offset/zf_fifo                      ----- -----  ----- -----

bluetooth_ch9141_uart_callback/SEEKFREE_+     ----- -----  ----- -----
... BLUETOOTH_CH9141
  +--> fifo_write_buffer/zf_fifo

wireless_ch573_callback/SEEKFREE_WIRELES+     ----- -----  ----- -----
... S_CH573
  +--> fifo_write_buffer/zf_fifo

*** NEW ROOT ********************************

INT0_Isr/isr                                  ----- -----  ----- -----

*** NEW ROOT ********************************

INT1_Isr/isr                                  ----- -----  ----- -----

*** NEW ROOT ********************************

INT2_Isr/isr                                  ----- -----  ----- -----

*** NEW ROOT ********************************

INT3_Isr/isr                                  ----- -----  ----- -----

*** NEW ROOT ********************************

INT4_Isr/isr                                  ----- -----  ----- -----

*** NEW ROOT ********************************

TM0_Isr/isr                                   ----- -----  ----- -----

*** NEW ROOT ********************************

TM1_Isr/isr                                   ----- -----  ----- -----
  +--> EM_adc/EM
  +--> ADC_Normalization1/EM
  +--> EncoderCount/encoder
  +--> pid_steers/pidcc
  +--> speed_pid/pidcc

EM_adc/EM                                     ----- -----  ----- -----
  +--> adc_once/zf_adc

adc_once/zf_adc                               ----- -----  ----- -----

ADC_Normalization1/EM                         ----- -----  ----- -----

EncoderCount/encoder                          ----- -----  ----- -----
  +--> ctimer_count_read/zf_tim
  +--> ctimer_count_clean/zf_tim

L251 LINKER/LOCATER V4.66.93.0                                                        10/07/2023  15:37:24  PAGE 14


ctimer_count_read/zf_tim                      ----- -----  ----- -----

ctimer_count_clean/zf_tim                     ----- -----  ----- -----

pid_steers/pidcc                              ----- -----  ----- -----
  +--> ele_direction_control/pidcc

ele_direction_control/pidcc                   ----- -----  ----- -----
  +--> PWMSetSteer/steer

PWMSetSteer/steer                             ----- -----  ----- -----
  +--> pwm_duty/zf_pwm

pwm_duty/zf_pwm                               ----- -----  ----- -----

speed_pid/pidcc                               ----- -----  ----- -----
  +--> speedleft_pid_realize/pidcc
  +--> speedright_pid_realize/pidcc
  +--> PWMSetMotor2/motor

speedleft_pid_realize/pidcc                   ----- -----  ----- -----

speedright_pid_realize/pidcc                  ----- -----  ----- -----

PWMSetMotor2/motor                            ----- -----  ----- -----
  +--> pwm_duty/zf_pwm

*** NEW ROOT ********************************

TM2_Isr/isr                                   ----- -----  ----- -----

*** NEW ROOT ********************************

TM3_Isr/isr                                   ----- -----  ----- -----

*** NEW ROOT ********************************

TM4_Isr/isr                                   ----- -----  ----- -----

*** NEW ROOT ********************************

?C_C51STARTUP                                 ----- -----  ----- -----

*** NEW ROOT ********************************

?C_C51STARTUP?3                               ----- -----  ----- -----
  +--> main/main

main/main                                     ----- -----  ----- -----
  +--> board_init/board
  +--> Timer_Init/allinit
  +--> all_init/allinit
  +--> ips114_clear/SEEKFREE_IPS114_SPI
  +--> ips114_showuint16/SEEKFREE_IPS114_SPI
  +--> PWMSetMotor2/motor

board_init/board                              ----- -----  ----- -----
  +--> set_clk/board
  +--> delay_init/zf_delay
  +--> uart_init/zf_uart
  +--> EnableGlobalIRQ/board

set_clk/board                                 ----- -----  ----- -----

delay_init/zf_delay                           ----- -----  ----- -----
L251 LINKER/LOCATER V4.66.93.0                                                        10/07/2023  15:37:24  PAGE 15


  +--> ?C?SLDIV/?C?SLDIV

?C?SLDIV/?C?SLDIV                             ----- -----  ----- -----
  +--> ?C?ULIDIV/?C?ULDIV

?C?ULIDIV/?C?ULDIV                            ----- -----  ----- -----

uart_init/zf_uart                             ----- -----  ----- -----
  +--> ?C?ULIDIV/?C?ULDIV

EnableGlobalIRQ/board                         ----- -----  ----- -----

Timer_Init/allinit                            ----- -----  ----- -----
  +--> ctimer_count_init/zf_tim
  +--> pit_timer_ms/zf_tim

ctimer_count_init/zf_tim                      ----- -----  ----- -----

pit_timer_ms/zf_tim                           ----- -----  ----- -----
  +--> ?C?SLDIV/?C?SLDIV

all_init/allinit                              ----- -----  ----- -----
  +--> PID_param_init/pidcc
  +--> Timer_Init/allinit
  +--> ips114_init/SEEKFREE_IPS114_SPI
  +--> motor_init/motor
  +--> steer_init/steer
  +--> adc_init/zf_adc

PID_param_init/pidcc                          ----- -----  ----- -----

ips114_init/SEEKFREE_IPS114_SPI               ----- -----  ----- -----
  +--> spi_init/zf_spi
  +--> delay_ms/zf_delay
  +--> ips114_writeIndex/SEEKFREE_IPS114_SPI
  +--> ips114_writeData/SEEKFREE_IPS114_SPI
  +--> ips114_clear/SEEKFREE_IPS114_SPI

spi_init/zf_spi                               ----- -----  ----- -----
  +--> gpio_mode/zf_gpio

gpio_mode/zf_gpio                             ----- -----  ----- -----

delay_ms/zf_delay                             ----- -----  ----- -----

ips114_writeIndex/SEEKFREE_IPS114_SPI         ----- -----  ----- -----
  +--> spi_mosi/zf_spi

spi_mosi/zf_spi                               ----- -----  ----- -----

ips114_writeData/SEEKFREE_IPS114_SPI          ----- -----  ----- -----
  +--> spi_mosi/zf_spi

ips114_clear/SEEKFREE_IPS114_SPI              ----- -----  ----- -----
  +--> ips114_set_region/SEEKFREE_IPS114_SPI
  +--> ips114_writedata_16bit/SEEKFREE_IPS114_SPI

ips114_set_region/SEEKFREE_IPS114_SPI         ----- -----  ----- -----
  +--> ips114_writeIndex/SEEKFREE_IPS114_SPI
  +--> ips114_writedata_16bit/SEEKFREE_IPS114_SPI

ips114_writedata_16bit/SEEKFREE_IPS114_S+     ----- -----  ----- -----
... PI
  +--> spi_mosi/zf_spi

L251 LINKER/LOCATER V4.66.93.0                                                        10/07/2023  15:37:24  PAGE 16


motor_init/motor                              ----- -----  ----- -----
  +--> pwm_init/zf_pwm

pwm_init/zf_pwm                               ----- -----  ----- -----
  +--> pwm_set_gpio/zf_pwm
  +--> ?C?ULIDIV/?C?ULDIV

pwm_set_gpio/zf_pwm                           ----- -----  ----- -----
  +--> gpio_mode/zf_gpio

steer_init/steer                              ----- -----  ----- -----
  +--> pwm_init/zf_pwm

adc_init/zf_adc                               ----- -----  ----- -----

ips114_showuint16/SEEKFREE_IPS114_SPI         ----- -----  ----- -----
  +--> ips114_showchar/SEEKFREE_IPS114_SPI

ips114_showchar/SEEKFREE_IPS114_SPI           ----- -----  ----- -----
  +--> ips114_set_region/SEEKFREE_IPS114_SPI
  +--> ips114_writedata_16bit/SEEKFREE_IPS114_SPI

*** NEW ROOT ********************************

?C_C51STARTUP?2                               ----- -----  ----- -----



PUBLIC SYMBOLS OF MODULE:  .\Out_File\SEEKFREE (board)


      VALUE       CLASS    TYPE      PUBLIC SYMBOL NAME
      =================================================
      00FF3197H   CODE     NEAR LAB  ?C?CASTF
      000000FFH   NUMBER   ---       ?C?CODESEG
      00FF3164H   CODE     NEAR LAB  ?C?FCASTC
      00FF315FH   CODE     NEAR LAB  ?C?FCASTI
      00FF315AH   CODE     NEAR LAB  ?C?FCASTL
      00FF394EH   CODE     ---       ?C?FP2SERIES
      00FF2F3BH   CODE     ---       ?C?FPADD
      00FF3116H   CODE     ---       ?C?FPCMP
      00FF3114H   CODE     ---       ?C?FPCMP3
      00FF3853H   CODE     ---       ?C?FPCONVERT
      00FF3093H   CODE     ---       ?C?FPDIV
      00FF3200H   CODE     ---       ?C?FPGETOPN2
      00FF2FF3H   CODE     ---       ?C?FPMUL
      00FF323DH   CODE     ---       ?C?FPNANRESULT
      00FF326EH   CODE     ---       ?C?FPNEG
      00FF3245H   CODE     ---       ?C?FPOVERFLOW
      00FF3219H   CODE     ---       ?C?FPRESULT
      00FF322FH   CODE     ---       ?C?FPRESULT2
      00FF390BH   CODE     ---       ?C?FPROUND
      00FF3957H   CODE     ---       ?C?FPSERIES
      00FF2F38H   CODE     ---       ?C?FPSUB
      00FF3242H   CODE     ---       ?C?FPUNDERFLOW
      00FF39ABH   CODE     ---       ?C?FTNPWR
      00FF7E36H   CODE     ---       ?C?INITEDATA
      00FF8542H   HCONST   WORD      ?C?INITEDATA_END
      00FF3A25H   CODE     ---       ?C?LIMUL
      00FF3A14H   CODE     ---       ?C?LMUL
      00FF32A9H   CODE     ---       ?C?PRNFMT
      00FF39E2H   CODE     ---       ?C?SIDIV
      00FF3A81H   CODE     NEAR LAB  ?C?SLDIV
      00FF0000H   CODE     ---       ?C?STARTUP
      00FF3A30H   CODE     NEAR LAB  ?C?ULDIV
L251 LINKER/LOCATER V4.66.93.0                                                        10/07/2023  15:37:24  PAGE 17


      00FF3A2EH   CODE     NEAR LAB  ?C?ULIDIV
      00000001H   NUMBER   ---       ?C?XDATASEG
      00FF0000H   CODE     ---       ?C_STARTUP
      00000793H   EDATA    BYTE      ?data_conversion?BYTE
      0000074BH   EDATA    BYTE      ?dl1b_iic_transfer_8bit_array?BYTE
      000006DEH   EDATA    BYTE      ?ele_direction_control?BYTE
      000007BBH   EDATA    BYTE      ?fifo_init?BYTE
      000006F2H   EDATA    BYTE      ?fifo_read_buffer?BYTE
      0000073BH   EDATA    BYTE      ?fifo_write_buffer?BYTE
      000008D7H   EDATA    BYTE      ?iap_read_bytes?BYTE
      000008E1H   EDATA    BYTE      ?iap_write_bytes?BYTE
      0000044EH   EDATA    BYTE      ?ips114_showfloat?BYTE
      0000041EH   EDATA    BYTE      ?ips114_showfloat_simspi?BYTE
      00000893H   EDATA    BYTE      ?judge_circle_in?BYTE
      0000089FH   EDATA    BYTE      ?judge_circle_out?BYTE
      000003EEH   EDATA    BYTE      ?lcd_showfloat?BYTE
      000003BEH   EDATA    BYTE      ?lcd_showfloat_simspi?BYTE
      000006B6H   EDATA    BYTE      ?number_conversion_ascii?BYTE
      0000047EH   EDATA    BYTE      ?oled_printf_float?BYTE
      000004AEH   EDATA    BYTE      ?oled_printf_float_spi?BYTE
*DEL*:00000028H   EDATA    ---       ?printf?BYTE
      000006A2H   EDATA    BYTE      ?pwm_freq?BYTE
      0000068EH   EDATA    BYTE      ?pwm_init?BYTE
      00000A86H   EDATA    BYTE      ?spi_init?BYTE
      00000769H   EDATA    BYTE      ?uart_init?BYTE
      00000246H   EDATA    BYTE      ?zf_sprintf?BYTE
      00FF3251H   CODE     ---       _chkfloat_?_
      00000054H   EDATA    FLOAT     AD_M_Lift
      00000030H   EDATA    FLOAT     AD_M_Right
      00000020H   EDATA    ---       AD_MaxValue
      00000010H   EDATA    ---       AD_MinValue
      00000058H   EDATA    ---       adc
      0000000CH   EDATA    FLOAT     ADC_ALL
*SFR* 000000BCH   DATA     BYTE      ADC_CONTR
      00000034H   EDATA    ---       ADC_Final
      00FF6E01H   CODE     ---       adc_init
      000000D8H   EDATA    FLOAT     ADC_L
      00000068H   EDATA    FLOAT     ADC_LD
      0000014CH   EDATA    INT       adc_left_edge
      0000018CH   EDATA    INT       adc_left_mid
      00000078H   EDATA    FLOAT     ADC_LM
      000000DCH   EDATA    FLOAT     ADC_M
      0000006CH   EDATA    FLOAT     ADC_MD
      00000150H   EDATA    INT       adc_mid
      00FF6193H   CODE     ---       ADC_Normalization1
      00FF77DFH   CODE     ---       adc_once
      000000E0H   EDATA    FLOAT     ADC_R
      00000070H   EDATA    FLOAT     ADC_RD
*SFR* 000000BDH   DATA     BYTE      ADC_RES
*SFR* 000000BEH   DATA     BYTE      ADC_RESL
      00000126H   EDATA    INT       adc_right_edge
      0000018AH   EDATA    INT       adc_right_mid
      0000007CH   EDATA    FLOAT     ADC_RM
*SFR* 000000DEH   DATA     BYTE      ADCCFG
      00FF8120H   CODE     ---       all_init
*SFR* 000000EFH   DATA     BYTE      AUXINTIF
*SFR* 0000008EH   DATA     BYTE      AUXR
*SFR* 00000097H   DATA     BYTE      AUXR2
*DEL*:00000000H   CODE     ---       bluetooth_ch9141_init
*DEL*:00000000H   CODE     ---       bluetooth_ch9141_read_buff
*DEL*:00000000H   CODE     ---       bluetooth_ch9141_send_buff
      00FF823CH   CODE     ---       bluetooth_ch9141_uart_callback
      00FF6F6AH   CODE     ---       board_init
      00000B58H   EDATA    ---       busy
*SFR* 000000F1H   DATA     BYTE      CANICR
L251 LINKER/LOCATER V4.66.93.0                                                        10/07/2023  15:37:24  PAGE 18


*SFR* 000000EAH   DATA     BYTE      CKCON
*SFR* 000000E6H   DATA     BYTE      CMPCR1
*SFR* 000000E7H   DATA     BYTE      CMPCR2
*DEL*:00000000H   CODE     ---       CRC_CHECK
      00FF7620H   CODE     ---       ctimer_count_clean
      00FF78DFH   CODE     ---       ctimer_count_init
      00FF6EB6H   CODE     ---       ctimer_count_read
*DEL*:00000000H   CODE     ---       data_conversion
      00FF7DA2H   CODE     ---       delay_init
      00FF7ED4H   CODE     ---       delay_ms
*DEL*:00000000H   CODE     ---       delay_us
*DEL*:00000000H   CODE     ---       DisableGlobalIRQ
      000000ACH   EDATA    FLOAT     distance
      000000E4H   EDATA    FLOAT     distance_L
      00000008H   EDATA    FLOAT     distance_R
      00000BDBH   EDATA    WORD      dl1a_distance_mm
      00000BDDH   EDATA    BYTE      dl1a_finsh_flag
*DEL*:00000000H   CODE     ---       dl1a_get_distance
*DEL*:00000000H   CODE     ---       dl1a_init
      00FF00A6H   CODE     ---       dl1b_default_configuration
      00000BAEH   EDATA    WORD      dl1b_distance_mm
      00000BB0H   EDATA    BYTE      dl1b_finsh_flag
*DEL*:00000000H   CODE     ---       dl1b_get_distance
*DEL*:00000000H   CODE     ---       dl1b_iic_transfer_8bit_array
*DEL*:00000000H   CODE     ---       dl1b_init
      00000BB1H   EDATA    BYTE      dl1b_init_flag
*SFR* 000000A8H.7 DATA     BIT       EA
*SFR* 000000BAH.7 DATA     BIT       EAXFR
*DEL*:00000000H   CODE     ---       eeprom_trig
      00FF3AB5H   CODE     ---       ele_direction_control
      00FF54FFH   CODE     ---       EM_adc
      00FF0006H   CODE     ---       EnableGlobalIRQ
      000006DAH   EDATA    FLOAT     encoder
      000006CAH   EDATA    FLOAT     encoder_integral
      000006D0H   EDATA    FLOAT     encoder_integral1
      000006D4H   EDATA    FLOAT     encoder_integral2
      00FF7188H   CODE     ---       EncoderCount
*SFR* 000000A8H.4 DATA     BIT       ES
*SFR* 000000A8H.1 DATA     BIT       ET0
*SFR* 000000A8H.3 DATA     BIT       ET1
*SFR* 000000A8H.0 DATA     BIT       EX0
*SFR* 000000A8H.2 DATA     BIT       EX1
*DEL*:00000000H   CODE     ---       exit_init
      00FF36F1H   CODE     ---       exp?_
*SFR* 000000D0H.5 DATA     BIT       F0
*DEL*:00000000H   CODE     ---       fifo_clear
*DEL*:00000000H   CODE     ---       fifo_end_offset
      00FF7353H   CODE     ---       fifo_head_offset
*DEL*:00000000H   CODE     ---       fifo_init
*DEL*:00000000H   CODE     ---       fifo_read_buffer
*DEL*:00000000H   CODE     ---       fifo_used
      00FF663BH   CODE     ---       fifo_write_buffer
*DEL*:00000000H   CODE     ---       Filter
      00FF4460H   CODE     ---       gpio_mode
*DEL*:00000000H   CODE     ---       gpio_pull_set
*SFR* 000000F6H   DATA     BYTE      IAP_ADDRE
*SFR* 000000C3H   DATA     BYTE      IAP_ADDRH
*SFR* 000000C4H   DATA     BYTE      IAP_ADDRL
*SFR* 000000C5H   DATA     BYTE      IAP_CMD
*SFR* 000000C7H   DATA     BYTE      IAP_CONTR
*SFR* 000000C2H   DATA     BYTE      IAP_DATA
*DEL*:00000000H   CODE     ---       iap_erase_page
*DEL*:00000000H   CODE     ---       iap_get_cmd_state
*DEL*:00000000H   CODE     ---       iap_idle
*DEL*:00000000H   CODE     ---       iap_init
L251 LINKER/LOCATER V4.66.93.0                                                        10/07/2023  15:37:24  PAGE 19


*DEL*:00000000H   CODE     ---       iap_read_bytes
*DEL*:00000000H   CODE     ---       iap_set_tps
*SFR* 000000F5H   DATA     BYTE      IAP_TPS
*SFR* 000000C6H   DATA     BYTE      IAP_TRIG
*DEL*:00000000H   CODE     ---       iap_write_bytes
*DEL*:00000000H   CODE     ---       icm20602_acc_transition
      00000827H   EDATA    INT       icm20602_acc_x
      00000829H   EDATA    INT       icm20602_acc_y
      0000082BH   EDATA    INT       icm20602_acc_z
*DEL*:00000000H   CODE     ---       icm20602_get_acc
*DEL*:00000000H   CODE     ---       icm20602_get_gyro
*DEL*:00000000H   CODE     ---       icm20602_gyro_transition
      0000082DH   EDATA    INT       icm20602_gyro_x
      0000082FH   EDATA    INT       icm20602_gyro_y
      00000831H   EDATA    INT       icm20602_gyro_z
*DEL*:00000000H   CODE     ---       icm20602_init
*SFR* 000000A8H   DATA     BYTE      IE
*SFR* 000000AFH   DATA     BYTE      IE2
*DEL*:00000000H   CODE     ---       imu660ra_acc_transition
      00000833H   EDATA    INT       imu660ra_acc_x
      00000835H   EDATA    INT       imu660ra_acc_y
      00000837H   EDATA    INT       imu660ra_acc_z
      00FF012DH   CODE     ---       imu660ra_config_file
*DEL*:00000000H   CODE     ---       imu660ra_get_acc
*DEL*:00000000H   CODE     ---       imu660ra_get_gyro
*DEL*:00000000H   CODE     ---       imu660ra_gyro_transition
      00000839H   EDATA    INT       imu660ra_gyro_x
      0000083BH   EDATA    INT       imu660ra_gyro_y
      0000083DH   EDATA    INT       imu660ra_gyro_z
*DEL*:00000000H   CODE     ---       imu660ra_init
*DEL*:00000000H   CODE     ---       imu963ra_acc_transition
      00000705H   EDATA    INT       imu963ra_acc_x
      00000707H   EDATA    INT       imu963ra_acc_y
      00000709H   EDATA    INT       imu963ra_acc_z
*DEL*:00000000H   CODE     ---       imu963ra_get_acc
*DEL*:00000000H   CODE     ---       imu963ra_get_gyro
*DEL*:00000000H   CODE     ---       imu963ra_get_mag
*DEL*:00000000H   CODE     ---       imu963ra_gyro_transition
      00000711H   EDATA    INT       imu963ra_gyro_x
      00000713H   EDATA    INT       imu963ra_gyro_y
      00000715H   EDATA    INT       imu963ra_gyro_z
*DEL*:00000000H   CODE     ---       imu963ra_init
*DEL*:00000000H   CODE     ---       imu963ra_mag_transition
      0000070BH   EDATA    INT       imu963ra_mag_x
      0000070DH   EDATA    INT       imu963ra_mag_y
      0000070FH   EDATA    INT       imu963ra_mag_z
*DEL*:00000000H   CODE     ---       infrared_detection
      00FF0046H   CODE     ---       INT0_Isr
      00FF000AH   CODE     ---       INT1_Isr
      00FF83C4H   CODE     ---       INT2_Isr
      00FF83CCH   CODE     ---       INT3_Isr
      00FF83D4H   CODE     ---       INT4_Isr
*SFR* 0000008FH   DATA     BYTE      INTCLKO
*SFR* 000000B8H   DATA     BYTE      IP
*SFR* 000000B5H   DATA     BYTE      IP2
*SFR* 000000B6H   DATA     BYTE      IP2H
*SFR* 000000DFH   DATA     BYTE      IP3
*SFR* 000000EEH   DATA     BYTE      IP3H
*SFR* 000000B7H   DATA     BYTE      IPH
      0000012AH   EDATA    ---       ipid_speed_left
      00000104H   EDATA    ---       ipid_speed_right
      00FF75C1H   CODE     ---       ips114_clear
*DEL*:00000000H   CODE     ---       ips114_clear_simspi
*DEL*:00000000H   CODE     ---       ips114_drawpoint
*DEL*:00000000H   CODE     ---       ips114_drawpoint_simspi
L251 LINKER/LOCATER V4.66.93.0                                                        10/07/2023  15:37:24  PAGE 20


      00FF635EH   CODE     ---       ips114_init
*DEL*:00000000H   CODE     ---       ips114_init_simspi
      00FF7933H   CODE     ---       ips114_set_region
*DEL*:00000000H   CODE     ---       ips114_set_region_simspi
      00FF6D42H   CODE     ---       ips114_showchar
*DEL*:00000000H   CODE     ---       ips114_showchar_simspi
*DEL*:00000000H   CODE     ---       ips114_showfloat
*DEL*:00000000H   CODE     ---       ips114_showfloat_simspi
*DEL*:00000000H   CODE     ---       ips114_showint16
*DEL*:00000000H   CODE     ---       ips114_showint16_simspi
*DEL*:00000000H   CODE     ---       ips114_showint32
*DEL*:00000000H   CODE     ---       ips114_showint32_simspi
*DEL*:00000000H   CODE     ---       ips114_showint8
*DEL*:00000000H   CODE     ---       ips114_showint8_simspi
*DEL*:00000000H   CODE     ---       ips114_showstr
*DEL*:00000000H   CODE     ---       ips114_showstr_simspi
      00FF6C75H   CODE     ---       ips114_showuint16
*DEL*:00000000H   CODE     ---       ips114_showuint16_simspi
*DEL*:00000000H   CODE     ---       ips114_showuint8
*DEL*:00000000H   CODE     ---       ips114_showuint8_simspi
      00FF8327H   CODE     ---       ips114_writeData
      00FF7FEDH   CODE     ---       ips114_writedata_16bit
*DEL*:00000000H   CODE     ---       ips114_writeData_simspi
      00FF788AH   CODE     ---       ips114_writeDatai_16bit_simspi
      00FF8312H   CODE     ---       ips114_writeIndex
      00FF7B14H   CODE     ---       ips114_writeIndex_simspi
*SFR* 0000009DH   DATA     BYTE      IRCBAND
*SFR* 0000009FH   DATA     BYTE      IRTRIM
*SFR* 00000088H.0 DATA     BIT       IT0
*SFR* 00000088H.2 DATA     BIT       IT1
*DEL*:00000000H   CODE     ---       judge_circle
*DEL*:00000000H   CODE     ---       judge_circle_in
*DEL*:00000000H   CODE     ---       judge_circle_out
*DEL*:00000000H   CODE     ---       lcd_clear
*DEL*:00000000H   CODE     ---       lcd_clear_simspi
*DEL*:00000000H   CODE     ---       lcd_drawpoint
*DEL*:00000000H   CODE     ---       lcd_drawpoint_simspi
*DEL*:00000000H   CODE     ---       lcd_init
*DEL*:00000000H   CODE     ---       lcd_init_simspi
      00FF755DH   CODE     ---       lcd_set_region
      00FF74F9H   CODE     ---       lcd_set_region_simspi
*DEL*:00000000H   CODE     ---       lcd_showchar
*DEL*:00000000H   CODE     ---       lcd_showchar_simspi
*DEL*:00000000H   CODE     ---       lcd_showfloat
*DEL*:00000000H   CODE     ---       lcd_showfloat_simspi
*DEL*:00000000H   CODE     ---       lcd_showint16
*DEL*:00000000H   CODE     ---       lcd_showint16_simspi
*DEL*:00000000H   CODE     ---       lcd_showint32
*DEL*:00000000H   CODE     ---       lcd_showint32_simspi
*DEL*:00000000H   CODE     ---       lcd_showint8
*DEL*:00000000H   CODE     ---       lcd_showint8_simspi
*DEL*:00000000H   CODE     ---       lcd_showstr
*DEL*:00000000H   CODE     ---       lcd_showstr_simspi
*DEL*:00000000H   CODE     ---       lcd_showuint16
*DEL*:00000000H   CODE     ---       lcd_showuint16_simspi
*DEL*:00000000H   CODE     ---       lcd_showuint8
*DEL*:00000000H   CODE     ---       lcd_showuint8_simspi
      00FF82FDH   CODE     ---       lcd_writeData
      00FF7F99H   CODE     ---       lcd_writedata_16bit
      00FF7835H   CODE     ---       lcd_writeData_16bit_simspi
      00FF7AC8H   CODE     ---       lcd_writeData_simspi
      00FF82E8H   CODE     ---       lcd_writeIndex
      00FF7A7CH   CODE     ---       lcd_writeIndex_simspi
      000006D8H   EDATA    INT       left_speed_in
      000000B0H   EDATA    ---       LeftADC
L251 LINKER/LOCATER V4.66.93.0                                                        10/07/2023  15:37:24  PAGE 21


      000000A8H   EDATA    FLOAT     LeftAverage
*SFR* 000000F9H   DATA     BYTE      LINICR
      00FF3780H   CODE     NEAR LAB  log?_
      00FF7788H   CODE     ---       main
      00FF80B6H   CODE     ---       memcpy?_
*DEL*:00000000H   CODE     ---       memset?_
      00FF7D1BH   CODE     ---       motor_init
*DEL*:00000000H   CODE     ---       motorCtrl
      0000086FH   EDATA    INT       mpu6050_acc_x
      00000871H   EDATA    INT       mpu6050_acc_y
      00000873H   EDATA    INT       mpu6050_acc_z
*DEL*:00000000H   CODE     ---       mpu6050_get_accdata
*DEL*:00000000H   CODE     ---       mpu6050_get_gyro
      00000875H   EDATA    INT       mpu6050_gyro_x
      00000877H   EDATA    INT       mpu6050_gyro_y
      00000879H   EDATA    INT       mpu6050_gyro_z
*DEL*:00000000H   CODE     ---       mpu6050_init
*DEL*:00000000H   CODE     ---       mpu6050_simiic_read_reg
*DEL*:00000000H   CODE     ---       mpu6050_simiic_read_regs
*DEL*:00000000H   CODE     ---       number_conversion_ascii
*DEL*:00000000H   CODE     ---       NVIC_SetPriority
      00FF2D0DH   CODE     ---       oled_6x8
      00FF212DH   CODE     ---       oled_8x16
*DEL*:00000000H   CODE     ---       oled_clrpixel
*DEL*:00000000H   CODE     ---       oled_clrpixel_spi
*DEL*:00000000H   CODE     ---       oled_dis_bmp
*DEL*:00000000H   CODE     ---       oled_dis_bmp_spi
*DEL*:00000000H   CODE     ---       oled_fill
*DEL*:00000000H   CODE     ---       oled_fill_spi
*DEL*:00000000H   CODE     ---       oled_hexascii
*DEL*:00000000H   CODE     ---       oled_hexascii_spi
*DEL*:00000000H   CODE     ---       oled_init
*DEL*:00000000H   CODE     ---       oled_init_spi
*DEL*:00000000H   CODE     ---       oled_int16
*DEL*:00000000H   CODE     ---       oled_int16_spi
*DEL*:00000000H   CODE     ---       oled_p6x8str
*DEL*:00000000H   CODE     ---       oled_p6x8str_spi
*DEL*:00000000H   CODE     ---       oled_p8x16str
*DEL*:00000000H   CODE     ---       oled_p8x16str_spi
*DEL*:00000000H   CODE     ---       oled_print_chinese
*DEL*:00000000H   CODE     ---       oled_print_chinese_spi
*DEL*:00000000H   CODE     ---       oled_printf_float
*DEL*:00000000H   CODE     ---       oled_printf_float_spi
*DEL*:00000000H   CODE     ---       oled_printf_int32
*DEL*:00000000H   CODE     ---       oled_printf_int32_spi
*DEL*:00000000H   CODE     ---       oled_putpixel
*DEL*:00000000H   CODE     ---       oled_putpixel_spi
      00FF7F09H   CODE     ---       oled_set_pos
      00FF7E9EH   CODE     ---       oled_set_pos_spi
*DEL*:00000000H   CODE     ---       oled_uint16
*DEL*:00000000H   CODE     ---       oled_uint16_spi
      00FF7B60H   CODE     ---       oled_wrcmd
      00FF833CH   CODE     ---       oled_wrcmd_spi
      00FF7BACH   CODE     ---       oled_wrdat
      00FF8351H   CODE     ---       oled_wrdat_spi
*SFR* 00000080H   DATA     BYTE      P0
*SFR* 00000080H.7 DATA     BIT       P07
*SFR* 00000094H   DATA     BYTE      P0M0
*SFR* 00000093H   DATA     BYTE      P0M1
*SFR* 00000090H   DATA     BYTE      P1
*SFR* 00000092H   DATA     BYTE      P1M0
*SFR* 00000091H   DATA     BYTE      P1M1
*SFR* 000000A0H   DATA     BYTE      P2
*SFR* 000000A0H.0 DATA     BIT       P20
*SFR* 000000A0H.1 DATA     BIT       P21
L251 LINKER/LOCATER V4.66.93.0                                                        10/07/2023  15:37:24  PAGE 22


*SFR* 000000A0H.2 DATA     BIT       P22
*SFR* 000000A0H.3 DATA     BIT       P23
*SFR* 000000A0H.5 DATA     BIT       P25
*SFR* 000000A0H.7 DATA     BIT       P27
*SFR* 00000096H   DATA     BYTE      P2M0
*SFR* 00000095H   DATA     BYTE      P2M1
*SFR* 000000B0H   DATA     BYTE      P3
*SFR* 000000B2H   DATA     BYTE      P3M0
*SFR* 000000B1H   DATA     BYTE      P3M1
*SFR* 000000C0H   DATA     BYTE      P4
*SFR* 000000C0H.0 DATA     BIT       P40
*SFR* 000000C0H.1 DATA     BIT       P41
*SFR* 000000C0H.2 DATA     BIT       P42
*SFR* 000000C0H.3 DATA     BIT       P43
*SFR* 000000C0H.7 DATA     BIT       P47
*SFR* 000000B4H   DATA     BYTE      P4M0
*SFR* 000000B3H   DATA     BYTE      P4M1
*SFR* 000000C8H   DATA     BYTE      P5
*SFR* 000000C8H.2 DATA     BIT       P52
*SFR* 000000CAH   DATA     BYTE      P5M0
*SFR* 000000C9H   DATA     BYTE      P5M1
*SFR* 000000E8H   DATA     BYTE      P6
*SFR* 000000E8H.3 DATA     BIT       P63
*SFR* 000000E8H.5 DATA     BIT       P65
*SFR* 000000CCH   DATA     BYTE      P6M0
*SFR* 000000CBH   DATA     BYTE      P6M1
*SFR* 000000F8H   DATA     BYTE      P7
*SFR* 000000E2H   DATA     BYTE      P7M0
*SFR* 000000E1H   DATA     BYTE      P7M1
*SFR* 000000A2H   DATA     BYTE      P_SW1
*SFR* 000000BAH   DATA     BYTE      P_SW2
*SFR* 000000BBH   DATA     BYTE      P_SW3
*SFR* 00000087H   DATA     BYTE      PCON
      00FF6773H   CODE     ---       PID_param_init
      00000152H   EDATA    ---       pid_steer
      00FF7F3EH   CODE     ---       pid_steers
      00FF6B90H   CODE     ---       pit_timer_ms
*DEL*:00000000H   CODE     ---       pow?_
      00FF31D4H   CODE     NEAR LAB  printf
*DEL*:00000000H   CODE     ---       printf_reverse_order
*DEL*:00000000H   CODE     ---       protect
      00000C4FH   EDATA    INT       protect_motor
*SFR* 000000D0H   DATA     BYTE      PSW
      00FF83A0H   CODE     ---       putchar
      00FF8564H   HCONST   ---       PWM_ARR_ADDR
      00FF856CH   HCONST   ---       PWM_CCER_ADDR
      00FF857CH   HCONST   ---       PWM_CCMR_ADDR
      00FF8544H   HCONST   ---       PWM_CCR_ADDR
      00FF6892H   CODE     ---       pwm_duty
*DEL*:00000000H   CODE     ---       pwm_freq
      00FF4D6DH   CODE     ---       pwm_init
      00FF5147H   CODE     ---       pwm_set_gpio
      00FF6A9FH   CODE     ---       PWMSetMotor2
      00FF7E62H   CODE     ---       PWMSetSteer
      000006CEH   EDATA    INT       right_speed_in
      00000080H   EDATA    ---       RightADC
      00000074H   EDATA    FLOAT     RightAverage
*SFR* 000000FFH   DATA     BYTE      RSTCFG
*SFR* 0000009BH   DATA     BYTE      S2BUF
*SFR* 0000009AH   DATA     BYTE      S2CON
*SFR* 000000ADH   DATA     BYTE      S3BUF
*SFR* 000000ACH   DATA     BYTE      S3CON
*SFR* 000000FEH   DATA     BYTE      S4BUF
*SFR* 000000FDH   DATA     BYTE      S4CON
*SFR* 00000099H   DATA     BYTE      SBUF
L251 LINKER/LOCATER V4.66.93.0                                                        10/07/2023  15:37:24  PAGE 23


*SFR* 00000098H   DATA     BYTE      SCON
      00FF5F8DH   CODE     ---       set_clk
      000000FCH   EDATA    FLOAT     setpoint_left
      0000018EH   EDATA    FLOAT     setpoint_right
*DEL*:00000000H   CODE     ---       showimage
*SFR* 000000CEH   DATA     BYTE      SPCTL
*SFR* 000000CFH   DATA     BYTE      SPDAT
      00FF81A5H   CODE     ---       speed_pid
      0000014EH   EDATA    INT       speedflag
      00FF5D38H   CODE     ---       speedleft_pid_realize
      00FF5AE3H   CODE     ---       speedright_pid_realize
*DEL*:00000000H   CODE     ---       spi_change_mode
*DEL*:00000000H   CODE     ---       spi_change_pin
      00FF69AAH   CODE     ---       spi_init
      00FF83B2H   CODE     ---       spi_mosi
*SFR* 000000CDH   DATA     BYTE      SPSTAT
      00000128H   EDATA    INT       status
      00FF8366H   CODE     ---       steer_init
*DEL*:00000000H   CODE     ---       steerCtrl
      00000B76H   EDATA    LONG      sys_clk
*SFR* 000000D6H   DATA     BYTE      T2H
*SFR* 000000D7H   DATA     BYTE      T2L
*SFR* 000000D4H   DATA     BYTE      T3H
*SFR* 000000D5H   DATA     BYTE      T3L
*SFR* 000000D2H   DATA     BYTE      T4H
*SFR* 000000D3H   DATA     BYTE      T4L
*SFR* 000000DDH   DATA     BYTE      T4T3M
*SFR* 00000088H   DATA     BYTE      TCON
      00FF271DH   CODE     ---       tft_ascii
*SFR* 0000008CH   DATA     BYTE      TH0
*SFR* 0000008DH   DATA     BYTE      TH1
      00FF82A4H   CODE     ---       Timer_Init
*SFR* 0000008AH   DATA     BYTE      TL0
*SFR* 0000008BH   DATA     BYTE      TL1
      00FF000EH   CODE     ---       TM0_Isr
      00FF7DE3H   CODE     ---       TM1_Isr
      00FF83DCH   CODE     ---       TM2_Isr
      00FF83E4H   CODE     ---       TM3_Isr
      00FF83ECH   CODE     ---       TM4_Isr
*SFR* 00000089H   DATA     BYTE      TMOD
      00000100H   EDATA    ---       toipid_speed_left
      000000F8H   EDATA    ---       toipid_speed_right
*SFR* 00000088H.4 DATA     BIT       TR0
*SFR* 00000088H.6 DATA     BIT       TR1
      00FF7CD5H   CODE     ---       UART1_Isr
      00FF81E3H   CODE     ---       UART2_Isr
      00FF8201H   CODE     ---       UART3_Isr
      00FF7274H   CODE     ---       UART4_Isr
      00FF5831H   CODE     ---       uart_init
*DEL*:00000000H   CODE     ---       uart_putbuff
      00FF71FFH   CODE     ---       uart_putchar
*DEL*:00000000H   CODE     ---       uart_putstr
*SFR* 000000F4H   DATA     BYTE      USBCON
      0000093BH   EDATA    ---       virtual_scope_data
*SFR* 000000A6H   DATA     BYTE      VRTRIM
*SFR* 000000C1H   DATA     BYTE      WDT_CONTR
      00FF828AH   CODE     ---       wireless_ch573_callback
*DEL*:00000000H   CODE     ---       wireless_ch573_init
*DEL*:00000000H   CODE     ---       wireless_ch573_read_buff
*DEL*:00000000H   CODE     ---       wireless_ch573_send_buff
      00000C0BH   EDATA    INT       wireless_type
      00FF8270H   CODE     ---       wireless_uart_callback
*DEL*:00000000H   CODE     ---       wireless_uart_init
*DEL*:00000000H   CODE     ---       wireless_uart_read_buff
*DEL*:00000000H   CODE     ---       wireless_uart_send_buff
L251 LINKER/LOCATER V4.66.93.0                                                        10/07/2023  15:37:24  PAGE 24


*SFR* 000000E9H   DATA     BYTE      WTST
      00000B7EH   EDATA    WORD      zf_delay_ms
      00000B80H   EDATA    WORD      zf_delay_us
*DEL*:00000000H   CODE     ---       zf_sprintf



SYMBOL TABLE OF MODULE:  .\Out_File\SEEKFREE (board)

      VALUE       REP       CLASS    TYPE      SYMBOL NAME
      ====================================================
      ---         MODULE    ---      ---       board
      00FF0006H   PUBLIC    CODE     ---       EnableGlobalIRQ
      00FF6F6AH   PUBLIC    CODE     ---       board_init
      00FF5F8DH   PUBLIC    CODE     ---       set_clk
      00FF83A0H   PUBLIC    CODE     ---       putchar
      00000B76H   PUBLIC    EDATA    LONG      sys_clk
      00000094H   SFRSYM    DATA     BYTE      P0M0
      000000D0H   SFRSYM    DATA     BYTE      PSW
      000000BAH.7 SFRSYM    DATA     BIT       EAXFR
      0000009DH   SFRSYM    DATA     BYTE      IRCBAND
      00000097H   SFRSYM    DATA     BYTE      AUXR2
      000000EAH   SFRSYM    DATA     BYTE      CKCON
      000000EFH   SFRSYM    DATA     BYTE      AUXINTIF
      000000FDH   SFRSYM    DATA     BYTE      S4CON
      000000ACH   SFRSYM    DATA     BYTE      S3CON
      0000009AH   SFRSYM    DATA     BYTE      S2CON
      000000A6H   SFRSYM    DATA     BYTE      VRTRIM
      000000B7H   SFRSYM    DATA     BYTE      IPH
      000000CDH   SFRSYM    DATA     BYTE      SPSTAT
      000000DDH   SFRSYM    DATA     BYTE      T4T3M
      0000009FH   SFRSYM    DATA     BYTE      IRTRIM
      000000C1H   SFRSYM    DATA     BYTE      WDT_CONTR
      000000E9H   SFRSYM    DATA     BYTE      WTST
      000000DFH   SFRSYM    DATA     BYTE      IP3
      000000F4H   SFRSYM    DATA     BYTE      USBCON
      000000B5H   SFRSYM    DATA     BYTE      IP2
      000000FFH   SFRSYM    DATA     BYTE      RSTCFG
      000000F9H   SFRSYM    DATA     BYTE      LINICR
      0000008EH   SFRSYM    DATA     BYTE      AUXR
      000000AFH   SFRSYM    DATA     BYTE      IE2
      00000088H   SFRSYM    DATA     BYTE      TCON
      00000089H   SFRSYM    DATA     BYTE      TMOD
      00000098H   SFRSYM    DATA     BYTE      SCON
      000000F1H   SFRSYM    DATA     BYTE      CANICR
      00000087H   SFRSYM    DATA     BYTE      PCON
      000000BCH   SFRSYM    DATA     BYTE      ADC_CONTR
      000000E7H   SFRSYM    DATA     BYTE      CMPCR2
      000000E6H   SFRSYM    DATA     BYTE      CMPCR1
      000000DEH   SFRSYM    DATA     BYTE      ADCCFG
      000000B8H   SFRSYM    DATA     BYTE      IP
      0000008FH   SFRSYM    DATA     BYTE      INTCLKO
      000000EEH   SFRSYM    DATA     BYTE      IP3H
      000000B6H   SFRSYM    DATA     BYTE      IP2H
      000000A8H   SFRSYM    DATA     BYTE      IE
      000000BBH   SFRSYM    DATA     BYTE      P_SW3
      000000BAH   SFRSYM    DATA     BYTE      P_SW2
      000000A2H   SFRSYM    DATA     BYTE      P_SW1
      000000CEH   SFRSYM    DATA     BYTE      SPCTL
      000000F8H   SFRSYM    DATA     BYTE      P7
      000000A8H.7 SFRSYM    DATA     BIT       EA
      000000E1H   SFRSYM    DATA     BYTE      P7M1
      000000E8H   SFRSYM    DATA     BYTE      P6
      000000C8H   SFRSYM    DATA     BYTE      P5
      000000CBH   SFRSYM    DATA     BYTE      P6M1
L251 LINKER/LOCATER V4.66.93.0                                                        10/07/2023  15:37:24  PAGE 25


      000000E2H   SFRSYM    DATA     BYTE      P7M0
      000000C0H   SFRSYM    DATA     BYTE      P4
      000000C9H   SFRSYM    DATA     BYTE      P5M1
      000000CCH   SFRSYM    DATA     BYTE      P6M0
      000000B0H   SFRSYM    DATA     BYTE      P3
      000000B3H   SFRSYM    DATA     BYTE      P4M1
      000000CAH   SFRSYM    DATA     BYTE      P5M0
      000000A0H   SFRSYM    DATA     BYTE      P2
      000000B1H   SFRSYM    DATA     BYTE      P3M1
      000000B4H   SFRSYM    DATA     BYTE      P4M0
      00000090H   SFRSYM    DATA     BYTE      P1
      00000095H   SFRSYM    DATA     BYTE      P2M1
      000000B2H   SFRSYM    DATA     BYTE      P3M0
      00000080H   SFRSYM    DATA     BYTE      P0
      00000091H   SFRSYM    DATA     BYTE      P1M1
      00000096H   SFRSYM    DATA     BYTE      P2M0
      00000092H   SFRSYM    DATA     BYTE      P1M0
      00000093H   SFRSYM    DATA     BYTE      P0M1

      00FF5F8DH   BLOCK     CODE     ---       LVL=0
      00FF5F8DH   LINE      CODE     ---       #43
      00FF5F8DH   LINE      CODE     ---       #46
      00FF5F90H   LINE      CODE     ---       #48
      00FF5FA0H   LINE      CODE     ---       #51
      00FF5FADH   LINE      CODE     ---       #52
      00FF5FBAH   LINE      CODE     ---       #53
      00FF5FC7H   LINE      CODE     ---       #54
      00FF5FCBH   LINE      CODE     ---       #55
      00FF5FD7H   LINE      CODE     ---       #56
      00FF5FDAH   LINE      CODE     ---       #57
      00FF5FEAH   LINE      CODE     ---       #60
      00FF5FF7H   LINE      CODE     ---       #61
      00FF6004H   LINE      CODE     ---       #62
      00FF6011H   LINE      CODE     ---       #63
      00FF6015H   LINE      CODE     ---       #64
      00FF6021H   LINE      CODE     ---       #65
      00FF6024H   LINE      CODE     ---       #66
      00FF6034H   LINE      CODE     ---       #69
      00FF6041H   LINE      CODE     ---       #70
      00FF604EH   LINE      CODE     ---       #71
      00FF605BH   LINE      CODE     ---       #72
      00FF605FH   LINE      CODE     ---       #73
      00FF606BH   LINE      CODE     ---       #74
      00FF606EH   LINE      CODE     ---       #75
      00FF607EH   LINE      CODE     ---       #79
      00FF608BH   LINE      CODE     ---       #80
      00FF6098H   LINE      CODE     ---       #81
      00FF60A5H   LINE      CODE     ---       #82
      00FF60A9H   LINE      CODE     ---       #83
      00FF60B5H   LINE      CODE     ---       #84
      00FF60B8H   LINE      CODE     ---       #85
      00FF60C8H   LINE      CODE     ---       #88
      00FF60D5H   LINE      CODE     ---       #89
      00FF60E2H   LINE      CODE     ---       #90
      00FF60EFH   LINE      CODE     ---       #91
      00FF60F3H   LINE      CODE     ---       #92
      00FF60FFH   LINE      CODE     ---       #93
      00FF6102H   LINE      CODE     ---       #94
      00FF6112H   LINE      CODE     ---       #97
      00FF611FH   LINE      CODE     ---       #98
      00FF612CH   LINE      CODE     ---       #99
      00FF6139H   LINE      CODE     ---       #100
      00FF613DH   LINE      CODE     ---       #101
      00FF6149H   LINE      CODE     ---       #102
      00FF614BH   LINE      CODE     ---       #105
L251 LINKER/LOCATER V4.66.93.0                                                        10/07/2023  15:37:24  PAGE 26


      00FF6157H   LINE      CODE     ---       #107
      00FF6164H   LINE      CODE     ---       #108
      00FF6171H   LINE      CODE     ---       #109
      00FF617EH   LINE      CODE     ---       #110
      00FF6182H   LINE      CODE     ---       #111
      00FF618EH   LINE      CODE     ---       #112
      00FF618EH   LINE      CODE     ---       #114
      00FF6192H   LINE      CODE     ---       #115
      ---         BLOCKEND  ---      ---       LVL=0

      00FF6F6AH   BLOCK     CODE     ---       LVL=0
      00FF6F6AH   LINE      CODE     ---       #121
      00FF6F6AH   LINE      CODE     ---       #123
      00FF6F6EH   LINE      CODE     ---       #124
      00FF6F71H   LINE      CODE     ---       #125
      00FF6F74H   LINE      CODE     ---       #126
      00FF6F77H   LINE      CODE     ---       #127
      00FF6F7BH   LINE      CODE     ---       #137
      00FF6F82H   LINE      CODE     ---       #143
      00FF6F85H   LINE      CODE     ---       #145
      00FF6F88H   LINE      CODE     ---       #146
      00FF6F8BH   LINE      CODE     ---       #147
      00FF6F97H   LINE      CODE     ---       #149
      00FF6F9AH   LINE      CODE     ---       #150
      00FF6F9DH   LINE      CODE     ---       #151
      00FF6FA0H   LINE      CODE     ---       #152
      00FF6FA3H   LINE      CODE     ---       #153
      00FF6FA6H   LINE      CODE     ---       #154
      00FF6FA9H   LINE      CODE     ---       #155
      00FF6FACH   LINE      CODE     ---       #156
      00FF6FAFH   LINE      CODE     ---       #157
      00FF6FB2H   LINE      CODE     ---       #158
      00FF6FB5H   LINE      CODE     ---       #159
      00FF6FB8H   LINE      CODE     ---       #160
      00FF6FBBH   LINE      CODE     ---       #161
      00FF6FBEH   LINE      CODE     ---       #162
      00FF6FC1H   LINE      CODE     ---       #163
      00FF6FC4H   LINE      CODE     ---       #164
      00FF6FC7H   LINE      CODE     ---       #166
      00FF6FCAH   LINE      CODE     ---       #167
      00FF6FCDH   LINE      CODE     ---       #168
      00FF6FD0H   LINE      CODE     ---       #169
      00FF6FD3H   LINE      CODE     ---       #170
      00FF6FD6H   LINE      CODE     ---       #171
      00FF6FD9H   LINE      CODE     ---       #172
      00FF6FDCH   LINE      CODE     ---       #173
      00FF6FDFH   LINE      CODE     ---       #174
      00FF6FE2H   LINE      CODE     ---       #176
      00FF6FFDH   LINE      CODE     ---       #177
      00FF7000H   LINE      CODE     ---       #178
      ---         BLOCKEND  ---      ---       LVL=0

      00FF83A0H   BLOCK     CODE     ---       LVL=0
      00000C53H   SYMBOL    EDATA    CHAR      c
      00FF83A0H   LINE      CODE     ---       #183
      00FF83A4H   LINE      CODE     ---       #185
      00FF83ADH   LINE      CODE     ---       #187
      00FF83B1H   LINE      CODE     ---       #188
      ---         BLOCKEND  ---      ---       LVL=0

      00FF0006H   BLOCK     CODE     ---       LVL=0
      00FF0006H   LINE      CODE     ---       #197
      00FF0006H   LINE      CODE     ---       #199
      00FF0009H   LINE      CODE     ---       #200
      ---         BLOCKEND  ---      ---       LVL=0
L251 LINKER/LOCATER V4.66.93.0                                                        10/07/2023  15:37:24  PAGE 27



      ---         MODULE    ---      ---       common
      00000C0BH   PUBLIC    EDATA    INT       wireless_type
      000000D0H   SFRSYM    DATA     BYTE      PSW
      0000009DH   SFRSYM    DATA     BYTE      IRCBAND
      00000097H   SFRSYM    DATA     BYTE      AUXR2
      000000EFH   SFRSYM    DATA     BYTE      AUXINTIF
      000000FDH   SFRSYM    DATA     BYTE      S4CON
      000000ACH   SFRSYM    DATA     BYTE      S3CON
      0000009AH   SFRSYM    DATA     BYTE      S2CON
      000000B7H   SFRSYM    DATA     BYTE      IPH
      000000CDH   SFRSYM    DATA     BYTE      SPSTAT
      000000DDH   SFRSYM    DATA     BYTE      T4T3M
      000000C1H   SFRSYM    DATA     BYTE      WDT_CONTR
      000000DFH   SFRSYM    DATA     BYTE      IP3
      000000F4H   SFRSYM    DATA     BYTE      USBCON
      000000B5H   SFRSYM    DATA     BYTE      IP2
      000000FFH   SFRSYM    DATA     BYTE      RSTCFG
      000000F9H   SFRSYM    DATA     BYTE      LINICR
      0000008EH   SFRSYM    DATA     BYTE      AUXR
      000000AFH   SFRSYM    DATA     BYTE      IE2
      00000088H   SFRSYM    DATA     BYTE      TCON
      00000098H   SFRSYM    DATA     BYTE      SCON
      000000F1H   SFRSYM    DATA     BYTE      CANICR
      00000087H   SFRSYM    DATA     BYTE      PCON
      000000BCH   SFRSYM    DATA     BYTE      ADC_CONTR
      000000E7H   SFRSYM    DATA     BYTE      CMPCR2
      000000E6H   SFRSYM    DATA     BYTE      CMPCR1
      000000B8H   SFRSYM    DATA     BYTE      IP
      0000008FH   SFRSYM    DATA     BYTE      INTCLKO
      000000EEH   SFRSYM    DATA     BYTE      IP3H
      000000B6H   SFRSYM    DATA     BYTE      IP2H
      000000A8H   SFRSYM    DATA     BYTE      IE
      000000BBH   SFRSYM    DATA     BYTE      P_SW3
      000000BAH   SFRSYM    DATA     BYTE      P_SW2
      000000A2H   SFRSYM    DATA     BYTE      P_SW1
      000000CEH   SFRSYM    DATA     BYTE      SPCTL
      000000F8H   SFRSYM    DATA     BYTE      P7
      000000E8H   SFRSYM    DATA     BYTE      P6
      000000C8H   SFRSYM    DATA     BYTE      P5
      000000C0H   SFRSYM    DATA     BYTE      P4
      000000B0H   SFRSYM    DATA     BYTE      P3
      000000A0H   SFRSYM    DATA     BYTE      P2
      00000090H   SFRSYM    DATA     BYTE      P1
      00000080H   SFRSYM    DATA     BYTE      P0

      ---         MODULE    ---      ---       zf_adc
      00FF77DFH   PUBLIC    CODE     ---       adc_once
      00FF6E01H   PUBLIC    CODE     ---       adc_init
      00000094H   SFRSYM    DATA     BYTE      P0M0
      000000D0H   SFRSYM    DATA     BYTE      PSW
      0000009DH   SFRSYM    DATA     BYTE      IRCBAND
      00000097H   SFRSYM    DATA     BYTE      AUXR2
      000000EFH   SFRSYM    DATA     BYTE      AUXINTIF
      000000FDH   SFRSYM    DATA     BYTE      S4CON
      000000ACH   SFRSYM    DATA     BYTE      S3CON
      0000009AH   SFRSYM    DATA     BYTE      S2CON
      000000B7H   SFRSYM    DATA     BYTE      IPH
      000000CDH   SFRSYM    DATA     BYTE      SPSTAT
      000000BEH   SFRSYM    DATA     BYTE      ADC_RESL
      000000DDH   SFRSYM    DATA     BYTE      T4T3M
      000000C1H   SFRSYM    DATA     BYTE      WDT_CONTR
      000000DFH   SFRSYM    DATA     BYTE      IP3
      000000F4H   SFRSYM    DATA     BYTE      USBCON
      000000B5H   SFRSYM    DATA     BYTE      IP2
L251 LINKER/LOCATER V4.66.93.0                                                        10/07/2023  15:37:24  PAGE 28


      000000FFH   SFRSYM    DATA     BYTE      RSTCFG
      000000F9H   SFRSYM    DATA     BYTE      LINICR
      0000008EH   SFRSYM    DATA     BYTE      AUXR
      000000AFH   SFRSYM    DATA     BYTE      IE2
      00000088H   SFRSYM    DATA     BYTE      TCON
      00000098H   SFRSYM    DATA     BYTE      SCON
      000000F1H   SFRSYM    DATA     BYTE      CANICR
      00000087H   SFRSYM    DATA     BYTE      PCON
      000000BCH   SFRSYM    DATA     BYTE      ADC_CONTR
      000000E7H   SFRSYM    DATA     BYTE      CMPCR2
      000000E6H   SFRSYM    DATA     BYTE      CMPCR1
      000000DEH   SFRSYM    DATA     BYTE      ADCCFG
      000000B8H   SFRSYM    DATA     BYTE      IP
      0000008FH   SFRSYM    DATA     BYTE      INTCLKO
      000000EEH   SFRSYM    DATA     BYTE      IP3H
      000000B6H   SFRSYM    DATA     BYTE      IP2H
      000000BDH   SFRSYM    DATA     BYTE      ADC_RES
      000000A8H   SFRSYM    DATA     BYTE      IE
      000000BBH   SFRSYM    DATA     BYTE      P_SW3
      000000BAH   SFRSYM    DATA     BYTE      P_SW2
      000000A2H   SFRSYM    DATA     BYTE      P_SW1
      000000CEH   SFRSYM    DATA     BYTE      SPCTL
      000000F8H   SFRSYM    DATA     BYTE      P7
      000000E8H   SFRSYM    DATA     BYTE      P6
      000000C8H   SFRSYM    DATA     BYTE      P5
      000000C0H   SFRSYM    DATA     BYTE      P4
      000000B0H   SFRSYM    DATA     BYTE      P3
      000000A0H   SFRSYM    DATA     BYTE      P2
      00000090H   SFRSYM    DATA     BYTE      P1
      00000080H   SFRSYM    DATA     BYTE      P0
      00000091H   SFRSYM    DATA     BYTE      P1M1
      00000092H   SFRSYM    DATA     BYTE      P1M0
      00000093H   SFRSYM    DATA     BYTE      P0M1

      00FF6E01H   BLOCK     CODE     ---       LVL=0
      00000B7AH   SYMBOL    EDATA    INT       adcn
      00000B7CH   SYMBOL    EDATA    INT       speed
      00FF6E01H   LINE      CODE     ---       #32
      00FF6E09H   LINE      CODE     ---       #34
      00FF6E0CH   LINE      CODE     ---       #36
      00FF6E0FH   LINE      CODE     ---       #37
      00FF6E17H   LINE      CODE     ---       #39
      00FF6E29H   LINE      CODE     ---       #42
      00FF6E44H   LINE      CODE     ---       #43
      00FF6E5DH   LINE      CODE     ---       #44
      00FF6E5FH   LINE      CODE     ---       #45
      00FF6E6FH   LINE      CODE     ---       #48
      00FF6E8AH   LINE      CODE     ---       #49
      00FF6EA3H   LINE      CODE     ---       #50
      00FF6EA3H   LINE      CODE     ---       #51
      00FF6EB2H   LINE      CODE     ---       #53
      00FF6EB5H   LINE      CODE     ---       #54
      ---         BLOCKEND  ---      ---       LVL=0

      00FF77DFH   BLOCK     CODE     ---       LVL=0
      00000AB6H   SYMBOL    EDATA    INT       adcn
      00000AB8H   SYMBOL    EDATA    INT       resolution
      00FF77E7H   BLOCK     CODE     NEAR LAB  LVL=1
      00000ABAH   SYMBOL    EDATA    WORD      adc_value
      ---         BLOCKEND  ---      ---       LVL=1
      00FF77DFH   LINE      CODE     ---       #65
      00FF77E7H   LINE      CODE     ---       #66
      00FF77E7H   LINE      CODE     ---       #69
      00FF77EAH   LINE      CODE     ---       #70
      00FF77F2H   LINE      CODE     ---       #72
L251 LINKER/LOCATER V4.66.93.0                                                        10/07/2023  15:37:24  PAGE 29


      00FF77F5H   LINE      CODE     ---       #73
      00FF77FAH   LINE      CODE     ---       #74
      00FF77FDH   LINE      CODE     ---       #76
      00FF7805H   LINE      CODE     ---       #77
      00FF780DH   LINE      CODE     ---       #78
      00FF781BH   LINE      CODE     ---       #80
      00FF781EH   LINE      CODE     ---       #81
      00FF7821H   LINE      CODE     ---       #83
      00FF7834H   LINE      CODE     ---       #86
      00FF7834H   LINE      CODE     ---       #87
      ---         BLOCKEND  ---      ---       LVL=0

      ---         MODULE    ---      ---       zf_delay
      00FF7DA2H   PUBLIC    CODE     ---       delay_init
      00FF7ED4H   PUBLIC    CODE     ---       delay_ms
      00000B7EH   PUBLIC    EDATA    WORD      zf_delay_ms
      00000B80H   PUBLIC    EDATA    WORD      zf_delay_us
      000000D0H   SFRSYM    DATA     BYTE      PSW
      0000009DH   SFRSYM    DATA     BYTE      IRCBAND
      00000097H   SFRSYM    DATA     BYTE      AUXR2
      000000EFH   SFRSYM    DATA     BYTE      AUXINTIF
      000000FDH   SFRSYM    DATA     BYTE      S4CON
      000000ACH   SFRSYM    DATA     BYTE      S3CON
      0000009AH   SFRSYM    DATA     BYTE      S2CON
      000000B7H   SFRSYM    DATA     BYTE      IPH
      000000CDH   SFRSYM    DATA     BYTE      SPSTAT
      000000DDH   SFRSYM    DATA     BYTE      T4T3M
      000000C1H   SFRSYM    DATA     BYTE      WDT_CONTR
      000000DFH   SFRSYM    DATA     BYTE      IP3
      000000F4H   SFRSYM    DATA     BYTE      USBCON
      000000B5H   SFRSYM    DATA     BYTE      IP2
      000000FFH   SFRSYM    DATA     BYTE      RSTCFG
      000000F9H   SFRSYM    DATA     BYTE      LINICR
      0000008EH   SFRSYM    DATA     BYTE      AUXR
      000000AFH   SFRSYM    DATA     BYTE      IE2
      00000088H   SFRSYM    DATA     BYTE      TCON
      00000098H   SFRSYM    DATA     BYTE      SCON
      000000F1H   SFRSYM    DATA     BYTE      CANICR
      00000087H   SFRSYM    DATA     BYTE      PCON
      000000BCH   SFRSYM    DATA     BYTE      ADC_CONTR
      000000E7H   SFRSYM    DATA     BYTE      CMPCR2
      000000E6H   SFRSYM    DATA     BYTE      CMPCR1
      000000B8H   SFRSYM    DATA     BYTE      IP
      0000008FH   SFRSYM    DATA     BYTE      INTCLKO
      000000EEH   SFRSYM    DATA     BYTE      IP3H
      000000B6H   SFRSYM    DATA     BYTE      IP2H
      000000A8H   SFRSYM    DATA     BYTE      IE
      000000BBH   SFRSYM    DATA     BYTE      P_SW3
      000000BAH   SFRSYM    DATA     BYTE      P_SW2
      000000A2H   SFRSYM    DATA     BYTE      P_SW1
      000000CEH   SFRSYM    DATA     BYTE      SPCTL
      000000F8H   SFRSYM    DATA     BYTE      P7
      000000E8H   SFRSYM    DATA     BYTE      P6
      000000C8H   SFRSYM    DATA     BYTE      P5
      000000C0H   SFRSYM    DATA     BYTE      P4
      000000B0H   SFRSYM    DATA     BYTE      P3
      000000A0H   SFRSYM    DATA     BYTE      P2
      00000090H   SFRSYM    DATA     BYTE      P1
      00000080H   SFRSYM    DATA     BYTE      P0

      00FF7DA2H   BLOCK     CODE     ---       LVL=0
      00FF7DA2H   LINE      CODE     ---       #34
      00FF7DA2H   LINE      CODE     ---       #36
      00FF7DB1H   LINE      CODE     ---       #37
      00FF7DC4H   LINE      CODE     ---       #38
L251 LINKER/LOCATER V4.66.93.0                                                        10/07/2023  15:37:24  PAGE 30


      00FF7DE2H   LINE      CODE     ---       #40
      ---         BLOCKEND  ---      ---       LVL=0

      00FF7ED4H   BLOCK     CODE     ---       LVL=0
      00000B82H   SYMBOL    EDATA    WORD      ms
      00FF7ED8H   BLOCK     CODE     NEAR LAB  LVL=1
      00000B84H   SYMBOL    EDATA    WORD      i
      ---         BLOCKEND  ---      ---       LVL=1
      00FF7ED4H   LINE      CODE     ---       #48
      00FF7ED8H   LINE      CODE     ---       #49
      00FF7ED8H   LINE      CODE     ---       #51
      00FF7ED8H   LINE      CODE     ---       #52
      00FF7EE0H   LINE      CODE     ---       #54
      00FF7EF4H   LINE      CODE     ---       #55
      00FF7F08H   LINE      CODE     ---       #56
      ---         BLOCKEND  ---      ---       LVL=0
      00000ABCH   SYMBOL    EDATA    DWORD     us
      00000AC0H   SYMBOL    EDATA    WORD      i

      ---         MODULE    ---      ---       zf_eeprom
      000008D7H   PUBLIC    EDATA    BYTE      ?iap_read_bytes?BYTE
      000008E1H   PUBLIC    EDATA    BYTE      ?iap_write_bytes?BYTE
      000000D0H   SFRSYM    DATA     BYTE      PSW
      0000009DH   SFRSYM    DATA     BYTE      IRCBAND
      000000D0H.5 SFRSYM    DATA     BIT       F0
      00000097H   SFRSYM    DATA     BYTE      AUXR2
      000000C6H   SFRSYM    DATA     BYTE      IAP_TRIG
      000000EFH   SFRSYM    DATA     BYTE      AUXINTIF
      000000FDH   SFRSYM    DATA     BYTE      S4CON
      000000ACH   SFRSYM    DATA     BYTE      S3CON
      0000009AH   SFRSYM    DATA     BYTE      S2CON
      000000B7H   SFRSYM    DATA     BYTE      IPH
      000000CDH   SFRSYM    DATA     BYTE      SPSTAT
      000000DDH   SFRSYM    DATA     BYTE      T4T3M
      000000C1H   SFRSYM    DATA     BYTE      WDT_CONTR
      000000C2H   SFRSYM    DATA     BYTE      IAP_DATA
      000000DFH   SFRSYM    DATA     BYTE      IP3
      000000F4H   SFRSYM    DATA     BYTE      USBCON
      000000B5H   SFRSYM    DATA     BYTE      IP2
      000000FFH   SFRSYM    DATA     BYTE      RSTCFG
      000000C7H   SFRSYM    DATA     BYTE      IAP_CONTR
      000000F9H   SFRSYM    DATA     BYTE      LINICR
      0000008EH   SFRSYM    DATA     BYTE      AUXR
      000000AFH   SFRSYM    DATA     BYTE      IE2
      00000088H   SFRSYM    DATA     BYTE      TCON
      00000098H   SFRSYM    DATA     BYTE      SCON
      000000F5H   SFRSYM    DATA     BYTE      IAP_TPS
      000000F1H   SFRSYM    DATA     BYTE      CANICR
      00000087H   SFRSYM    DATA     BYTE      PCON
      000000BCH   SFRSYM    DATA     BYTE      ADC_CONTR
      000000E7H   SFRSYM    DATA     BYTE      CMPCR2
      000000E6H   SFRSYM    DATA     BYTE      CMPCR1
      000000C4H   SFRSYM    DATA     BYTE      IAP_ADDRL
      000000C3H   SFRSYM    DATA     BYTE      IAP_ADDRH
      000000F6H   SFRSYM    DATA     BYTE      IAP_ADDRE
      000000B8H   SFRSYM    DATA     BYTE      IP
      0000008FH   SFRSYM    DATA     BYTE      INTCLKO
      000000EEH   SFRSYM    DATA     BYTE      IP3H
      000000B6H   SFRSYM    DATA     BYTE      IP2H
      000000C5H   SFRSYM    DATA     BYTE      IAP_CMD
      000000A8H   SFRSYM    DATA     BYTE      IE
      000000BBH   SFRSYM    DATA     BYTE      P_SW3
      000000BAH   SFRSYM    DATA     BYTE      P_SW2
      000000A2H   SFRSYM    DATA     BYTE      P_SW1
      000000CEH   SFRSYM    DATA     BYTE      SPCTL
L251 LINKER/LOCATER V4.66.93.0                                                        10/07/2023  15:37:24  PAGE 31


      000000F8H   SFRSYM    DATA     BYTE      P7
      000000A8H.7 SFRSYM    DATA     BIT       EA
      000000E8H   SFRSYM    DATA     BYTE      P6
      000000C8H   SFRSYM    DATA     BYTE      P5
      000000C0H   SFRSYM    DATA     BYTE      P4
      000000B0H   SFRSYM    DATA     BYTE      P3
      000000A0H   SFRSYM    DATA     BYTE      P2
      00000090H   SFRSYM    DATA     BYTE      P1
      00000080H   SFRSYM    DATA     BYTE      P0
      00000C54H   SYMBOL    EDATA    BYTE      write_time
      000008D7H   SYMBOL    EDATA    DWORD     addr
      000008DBH   SYMBOL    EDATA    ---       buf
      000008DFH   SYMBOL    EDATA    WORD      len
      000008E1H   SYMBOL    EDATA    DWORD     addr
      000008E5H   SYMBOL    EDATA    ---       buf
      000008E9H   SYMBOL    EDATA    WORD      len
      00000B86H   SYMBOL    EDATA    DWORD     addr

      ---         MODULE    ---      ---       zf_exti
      000000D0H   SFRSYM    DATA     BYTE      PSW
      0000009DH   SFRSYM    DATA     BYTE      IRCBAND
      00000097H   SFRSYM    DATA     BYTE      AUXR2
      000000EFH   SFRSYM    DATA     BYTE      AUXINTIF
      000000FDH   SFRSYM    DATA     BYTE      S4CON
      000000ACH   SFRSYM    DATA     BYTE      S3CON
      0000009AH   SFRSYM    DATA     BYTE      S2CON
      000000B7H   SFRSYM    DATA     BYTE      IPH
      000000CDH   SFRSYM    DATA     BYTE      SPSTAT
      000000DDH   SFRSYM    DATA     BYTE      T4T3M
      000000C1H   SFRSYM    DATA     BYTE      WDT_CONTR
      00000088H.2 SFRSYM    DATA     BIT       IT1
      000000A8H.2 SFRSYM    DATA     BIT       EX1
      00000088H.0 SFRSYM    DATA     BIT       IT0
      000000A8H.0 SFRSYM    DATA     BIT       EX0
      000000DFH   SFRSYM    DATA     BYTE      IP3
      000000F4H   SFRSYM    DATA     BYTE      USBCON
      000000B5H   SFRSYM    DATA     BYTE      IP2
      000000FFH   SFRSYM    DATA     BYTE      RSTCFG
      000000F9H   SFRSYM    DATA     BYTE      LINICR
      0000008EH   SFRSYM    DATA     BYTE      AUXR
      000000AFH   SFRSYM    DATA     BYTE      IE2
      00000088H   SFRSYM    DATA     BYTE      TCON
      00000098H   SFRSYM    DATA     BYTE      SCON
      000000F1H   SFRSYM    DATA     BYTE      CANICR
      00000087H   SFRSYM    DATA     BYTE      PCON
      000000BCH   SFRSYM    DATA     BYTE      ADC_CONTR
      000000E7H   SFRSYM    DATA     BYTE      CMPCR2
      000000E6H   SFRSYM    DATA     BYTE      CMPCR1
      000000B8H   SFRSYM    DATA     BYTE      IP
      0000008FH   SFRSYM    DATA     BYTE      INTCLKO
      000000EEH   SFRSYM    DATA     BYTE      IP3H
      000000B6H   SFRSYM    DATA     BYTE      IP2H
      000000A8H   SFRSYM    DATA     BYTE      IE
      000000BBH   SFRSYM    DATA     BYTE      P_SW3
      000000BAH   SFRSYM    DATA     BYTE      P_SW2
      000000A2H   SFRSYM    DATA     BYTE      P_SW1
      000000CEH   SFRSYM    DATA     BYTE      SPCTL
      000000F8H   SFRSYM    DATA     BYTE      P7
      000000E8H   SFRSYM    DATA     BYTE      P6
      000000C8H   SFRSYM    DATA     BYTE      P5
      000000C0H   SFRSYM    DATA     BYTE      P4
      000000B0H   SFRSYM    DATA     BYTE      P3
      000000A0H   SFRSYM    DATA     BYTE      P2
      00000090H   SFRSYM    DATA     BYTE      P1
      00000080H   SFRSYM    DATA     BYTE      P0
L251 LINKER/LOCATER V4.66.93.0                                                        10/07/2023  15:37:24  PAGE 32


      00000B8AH   SYMBOL    EDATA    INT       int_n
      00000B8CH   SYMBOL    EDATA    INT       mode

      ---         MODULE    ---      ---       zf_gpio
      00FF4460H   PUBLIC    CODE     ---       gpio_mode
      00000094H   SFRSYM    DATA     BYTE      P0M0
      000000D0H   SFRSYM    DATA     BYTE      PSW
      0000009DH   SFRSYM    DATA     BYTE      IRCBAND
      00000097H   SFRSYM    DATA     BYTE      AUXR2
      000000EFH   SFRSYM    DATA     BYTE      AUXINTIF
      000000FDH   SFRSYM    DATA     BYTE      S4CON
      000000ACH   SFRSYM    DATA     BYTE      S3CON
      0000009AH   SFRSYM    DATA     BYTE      S2CON
      000000B7H   SFRSYM    DATA     BYTE      IPH
      000000CDH   SFRSYM    DATA     BYTE      SPSTAT
      000000DDH   SFRSYM    DATA     BYTE      T4T3M
      000000C1H   SFRSYM    DATA     BYTE      WDT_CONTR
      000000DFH   SFRSYM    DATA     BYTE      IP3
      000000F4H   SFRSYM    DATA     BYTE      USBCON
      000000B5H   SFRSYM    DATA     BYTE      IP2
      000000FFH   SFRSYM    DATA     BYTE      RSTCFG
      000000F9H   SFRSYM    DATA     BYTE      LINICR
      0000008EH   SFRSYM    DATA     BYTE      AUXR
      000000AFH   SFRSYM    DATA     BYTE      IE2
      00000088H   SFRSYM    DATA     BYTE      TCON
      00000098H   SFRSYM    DATA     BYTE      SCON
      000000F1H   SFRSYM    DATA     BYTE      CANICR
      00000087H   SFRSYM    DATA     BYTE      PCON
      000000BCH   SFRSYM    DATA     BYTE      ADC_CONTR
      000000E7H   SFRSYM    DATA     BYTE      CMPCR2
      000000E6H   SFRSYM    DATA     BYTE      CMPCR1
      000000B8H   SFRSYM    DATA     BYTE      IP
      0000008FH   SFRSYM    DATA     BYTE      INTCLKO
      000000EEH   SFRSYM    DATA     BYTE      IP3H
      000000B6H   SFRSYM    DATA     BYTE      IP2H
      000000A8H   SFRSYM    DATA     BYTE      IE
      000000BBH   SFRSYM    DATA     BYTE      P_SW3
      000000BAH   SFRSYM    DATA     BYTE      P_SW2
      000000A2H   SFRSYM    DATA     BYTE      P_SW1
      000000CEH   SFRSYM    DATA     BYTE      SPCTL
      000000F8H   SFRSYM    DATA     BYTE      P7
      000000E1H   SFRSYM    DATA     BYTE      P7M1
      000000E8H   SFRSYM    DATA     BYTE      P6
      000000C8H   SFRSYM    DATA     BYTE      P5
      000000CBH   SFRSYM    DATA     BYTE      P6M1
      000000E2H   SFRSYM    DATA     BYTE      P7M0
      000000C0H   SFRSYM    DATA     BYTE      P4
      000000C9H   SFRSYM    DATA     BYTE      P5M1
      000000CCH   SFRSYM    DATA     BYTE      P6M0
      000000B0H   SFRSYM    DATA     BYTE      P3
      000000B3H   SFRSYM    DATA     BYTE      P4M1
      000000CAH   SFRSYM    DATA     BYTE      P5M0
      000000A0H   SFRSYM    DATA     BYTE      P2
      000000B1H   SFRSYM    DATA     BYTE      P3M1
      000000B4H   SFRSYM    DATA     BYTE      P4M0
      00000090H   SFRSYM    DATA     BYTE      P1
      00000095H   SFRSYM    DATA     BYTE      P2M1
      000000B2H   SFRSYM    DATA     BYTE      P3M0
      00000080H   SFRSYM    DATA     BYTE      P0
      00000091H   SFRSYM    DATA     BYTE      P1M1
      00000096H   SFRSYM    DATA     BYTE      P2M0
      00000092H   SFRSYM    DATA     BYTE      P1M0
      00000093H   SFRSYM    DATA     BYTE      P0M1
      00000B8EH   SYMBOL    EDATA    INT       pin
      00000B90H   SYMBOL    EDATA    INT       pull
L251 LINKER/LOCATER V4.66.93.0                                                        10/07/2023  15:37:24  PAGE 33



      00FF4460H   BLOCK     CODE     ---       LVL=0
      00000B92H   SYMBOL    EDATA    INT       pin
      00000B94H   SYMBOL    EDATA    INT       mode
      00FF4460H   LINE      CODE     ---       #54
      00FF4468H   LINE      CODE     ---       #56
      00FF4475H   LINE      CODE     ---       #58
      00FF4485H   LINE      CODE     ---       #60
      00FF44A0H   LINE      CODE     ---       #61
      00FF44BBH   LINE      CODE     ---       #62
      00FF44BBH   LINE      CODE     ---       #63
      00FF44CDH   LINE      CODE     ---       #65
      00FF44E8H   LINE      CODE     ---       #66
      00FF4503H   LINE      CODE     ---       #67
      00FF4503H   LINE      CODE     ---       #68
      00FF4515H   LINE      CODE     ---       #70
      00FF4530H   LINE      CODE     ---       #71
      00FF454BH   LINE      CODE     ---       #72
      00FF454BH   LINE      CODE     ---       #74
      00FF455DH   LINE      CODE     ---       #76
      00FF4578H   LINE      CODE     ---       #77
      00FF4593H   LINE      CODE     ---       #78
      00FF4593H   LINE      CODE     ---       #79
      00FF45A5H   LINE      CODE     ---       #81
      00FF45C0H   LINE      CODE     ---       #82
      00FF45DBH   LINE      CODE     ---       #83
      00FF45DBH   LINE      CODE     ---       #84
      00FF45EDH   LINE      CODE     ---       #86
      00FF4608H   LINE      CODE     ---       #87
      00FF4623H   LINE      CODE     ---       #88
      00FF4623H   LINE      CODE     ---       #89
      00FF4635H   LINE      CODE     ---       #91
      00FF4650H   LINE      CODE     ---       #92
      00FF466BH   LINE      CODE     ---       #93
      00FF466BH   LINE      CODE     ---       #94
      00FF4680H   LINE      CODE     ---       #96
      00FF469BH   LINE      CODE     ---       #97
      00FF46B6H   LINE      CODE     ---       #98
      00FF46B9H   LINE      CODE     ---       #100
      00FF46C8H   LINE      CODE     ---       #102
      00FF46D8H   LINE      CODE     ---       #104
      00FF46F3H   LINE      CODE     ---       #105
      00FF470CH   LINE      CODE     ---       #106
      00FF470CH   LINE      CODE     ---       #107
      00FF471EH   LINE      CODE     ---       #109
      00FF4739H   LINE      CODE     ---       #110
      00FF4752H   LINE      CODE     ---       #111
      00FF4752H   LINE      CODE     ---       #112
      00FF4764H   LINE      CODE     ---       #114
      00FF477FH   LINE      CODE     ---       #115
      00FF4798H   LINE      CODE     ---       #116
      00FF4798H   LINE      CODE     ---       #118
      00FF47AAH   LINE      CODE     ---       #120
      00FF47C5H   LINE      CODE     ---       #121
      00FF47DEH   LINE      CODE     ---       #122
      00FF47DEH   LINE      CODE     ---       #123
      00FF47F0H   LINE      CODE     ---       #125
      00FF480BH   LINE      CODE     ---       #126
      00FF4824H   LINE      CODE     ---       #127
      00FF4824H   LINE      CODE     ---       #128
      00FF4836H   LINE      CODE     ---       #130
      00FF4851H   LINE      CODE     ---       #131
      00FF486AH   LINE      CODE     ---       #132
      00FF486AH   LINE      CODE     ---       #133
      00FF487CH   LINE      CODE     ---       #135
L251 LINKER/LOCATER V4.66.93.0                                                        10/07/2023  15:37:24  PAGE 34


      00FF4897H   LINE      CODE     ---       #136
      00FF48B0H   LINE      CODE     ---       #137
      00FF48B0H   LINE      CODE     ---       #138
      00FF48C5H   LINE      CODE     ---       #140
      00FF48E0H   LINE      CODE     ---       #141
      00FF48F9H   LINE      CODE     ---       #142
      00FF48FCH   LINE      CODE     ---       #145
      00FF490BH   LINE      CODE     ---       #147
      00FF491BH   LINE      CODE     ---       #149
      00FF4934H   LINE      CODE     ---       #150
      00FF494FH   LINE      CODE     ---       #151
      00FF494FH   LINE      CODE     ---       #152
      00FF4961H   LINE      CODE     ---       #154
      00FF497AH   LINE      CODE     ---       #155
      00FF4995H   LINE      CODE     ---       #156
      00FF4995H   LINE      CODE     ---       #157
      00FF49A7H   LINE      CODE     ---       #159
      00FF49C0H   LINE      CODE     ---       #160
      00FF49DBH   LINE      CODE     ---       #161
      00FF49DBH   LINE      CODE     ---       #163
      00FF49EDH   LINE      CODE     ---       #165
      00FF4A06H   LINE      CODE     ---       #166
      00FF4A21H   LINE      CODE     ---       #167
      00FF4A21H   LINE      CODE     ---       #168
      00FF4A33H   LINE      CODE     ---       #170
      00FF4A4CH   LINE      CODE     ---       #171
      00FF4A67H   LINE      CODE     ---       #172
      00FF4A67H   LINE      CODE     ---       #173
      00FF4A79H   LINE      CODE     ---       #175
      00FF4A92H   LINE      CODE     ---       #176
      00FF4AADH   LINE      CODE     ---       #177
      00FF4AADH   LINE      CODE     ---       #178
      00FF4ABFH   LINE      CODE     ---       #180
      00FF4AD8H   LINE      CODE     ---       #181
      00FF4AF3H   LINE      CODE     ---       #182
      00FF4AF3H   LINE      CODE     ---       #183
      00FF4B08H   LINE      CODE     ---       #185
      00FF4B21H   LINE      CODE     ---       #186
      00FF4B3CH   LINE      CODE     ---       #187
      00FF4B3FH   LINE      CODE     ---       #189
      00FF4B4EH   LINE      CODE     ---       #191
      00FF4B5EH   LINE      CODE     ---       #193
      00FF4B77H   LINE      CODE     ---       #194
      00FF4B90H   LINE      CODE     ---       #195
      00FF4B90H   LINE      CODE     ---       #196
      00FF4BA2H   LINE      CODE     ---       #198
      00FF4BBBH   LINE      CODE     ---       #199
      00FF4BD4H   LINE      CODE     ---       #200
      00FF4BD4H   LINE      CODE     ---       #201
      00FF4BE6H   LINE      CODE     ---       #203
      00FF4BFFH   LINE      CODE     ---       #204
      00FF4C18H   LINE      CODE     ---       #205
      00FF4C18H   LINE      CODE     ---       #207
      00FF4C2AH   LINE      CODE     ---       #209
      00FF4C43H   LINE      CODE     ---       #210
      00FF4C5CH   LINE      CODE     ---       #211
      00FF4C5CH   LINE      CODE     ---       #212
      00FF4C6EH   LINE      CODE     ---       #214
      00FF4C87H   LINE      CODE     ---       #215
      00FF4CA0H   LINE      CODE     ---       #216
      00FF4CA0H   LINE      CODE     ---       #217
      00FF4CB2H   LINE      CODE     ---       #219
      00FF4CCBH   LINE      CODE     ---       #220
      00FF4CE4H   LINE      CODE     ---       #221
      00FF4CE4H   LINE      CODE     ---       #222
L251 LINKER/LOCATER V4.66.93.0                                                        10/07/2023  15:37:24  PAGE 35


      00FF4CF6H   LINE      CODE     ---       #224
      00FF4D0FH   LINE      CODE     ---       #225
      00FF4D28H   LINE      CODE     ---       #226
      00FF4D28H   LINE      CODE     ---       #227
      00FF4D3AH   LINE      CODE     ---       #229
      00FF4D53H   LINE      CODE     ---       #230
      00FF4D6CH   LINE      CODE     ---       #231
      00FF4D6CH   LINE      CODE     ---       #233
      ---         BLOCKEND  ---      ---       LVL=0

      ---         MODULE    ---      ---       zf_nvic
      000000D0H   SFRSYM    DATA     BYTE      PSW
      0000009DH   SFRSYM    DATA     BYTE      IRCBAND
      00000097H   SFRSYM    DATA     BYTE      AUXR2
      000000EFH   SFRSYM    DATA     BYTE      AUXINTIF
      000000FDH   SFRSYM    DATA     BYTE      S4CON
      000000ACH   SFRSYM    DATA     BYTE      S3CON
      0000009AH   SFRSYM    DATA     BYTE      S2CON
      000000B7H   SFRSYM    DATA     BYTE      IPH
      000000CDH   SFRSYM    DATA     BYTE      SPSTAT
      000000DDH   SFRSYM    DATA     BYTE      T4T3M
      000000C1H   SFRSYM    DATA     BYTE      WDT_CONTR
      000000DFH   SFRSYM    DATA     BYTE      IP3
      000000F4H   SFRSYM    DATA     BYTE      USBCON
      000000B5H   SFRSYM    DATA     BYTE      IP2
      000000FFH   SFRSYM    DATA     BYTE      RSTCFG
      000000F9H   SFRSYM    DATA     BYTE      LINICR
      0000008EH   SFRSYM    DATA     BYTE      AUXR
      000000AFH   SFRSYM    DATA     BYTE      IE2
      00000088H   SFRSYM    DATA     BYTE      TCON
      00000098H   SFRSYM    DATA     BYTE      SCON
      000000F1H   SFRSYM    DATA     BYTE      CANICR
      00000087H   SFRSYM    DATA     BYTE      PCON
      000000BCH   SFRSYM    DATA     BYTE      ADC_CONTR
      000000E7H   SFRSYM    DATA     BYTE      CMPCR2
      000000E6H   SFRSYM    DATA     BYTE      CMPCR1
      000000B8H   SFRSYM    DATA     BYTE      IP
      0000008FH   SFRSYM    DATA     BYTE      INTCLKO
      000000EEH   SFRSYM    DATA     BYTE      IP3H
      000000B6H   SFRSYM    DATA     BYTE      IP2H
      000000A8H   SFRSYM    DATA     BYTE      IE
      000000BBH   SFRSYM    DATA     BYTE      P_SW3
      000000BAH   SFRSYM    DATA     BYTE      P_SW2
      000000A2H   SFRSYM    DATA     BYTE      P_SW1
      000000CEH   SFRSYM    DATA     BYTE      SPCTL
      000000F8H   SFRSYM    DATA     BYTE      P7
      000000E8H   SFRSYM    DATA     BYTE      P6
      000000C8H   SFRSYM    DATA     BYTE      P5
      000000C0H   SFRSYM    DATA     BYTE      P4
      000000B0H   SFRSYM    DATA     BYTE      P3
      000000A0H   SFRSYM    DATA     BYTE      P2
      00000090H   SFRSYM    DATA     BYTE      P1
      00000080H   SFRSYM    DATA     BYTE      P0
      00000BD2H   SYMBOL    EDATA    INT       irqn
      00000BD4H   SYMBOL    EDATA    BYTE      priority

      ---         MODULE    ---      ---       zf_pwm
      00FF6892H   PUBLIC    CODE     ---       pwm_duty
      00FF5147H   PUBLIC    CODE     ---       pwm_set_gpio
      00FF4D6DH   PUBLIC    CODE     ---       pwm_init
      00FF8544H   PUBLIC    HCONST   ---       PWM_CCR_ADDR
      00FF8564H   PUBLIC    HCONST   ---       PWM_ARR_ADDR
      00FF856CH   PUBLIC    HCONST   ---       PWM_CCER_ADDR
      00FF857CH   PUBLIC    HCONST   ---       PWM_CCMR_ADDR
      0000068EH   PUBLIC    EDATA    BYTE      ?pwm_init?BYTE
L251 LINKER/LOCATER V4.66.93.0                                                        10/07/2023  15:37:24  PAGE 36


      000006A2H   PUBLIC    EDATA    BYTE      ?pwm_freq?BYTE
      000000D0H   SFRSYM    DATA     BYTE      PSW
      0000009DH   SFRSYM    DATA     BYTE      IRCBAND
      00000097H   SFRSYM    DATA     BYTE      AUXR2
      000000EFH   SFRSYM    DATA     BYTE      AUXINTIF
      000000FDH   SFRSYM    DATA     BYTE      S4CON
      000000ACH   SFRSYM    DATA     BYTE      S3CON
      0000009AH   SFRSYM    DATA     BYTE      S2CON
      000000B7H   SFRSYM    DATA     BYTE      IPH
      000000CDH   SFRSYM    DATA     BYTE      SPSTAT
      000000DDH   SFRSYM    DATA     BYTE      T4T3M
      000000C1H   SFRSYM    DATA     BYTE      WDT_CONTR
      000000DFH   SFRSYM    DATA     BYTE      IP3
      000000F4H   SFRSYM    DATA     BYTE      USBCON
      000000B5H   SFRSYM    DATA     BYTE      IP2
      000000FFH   SFRSYM    DATA     BYTE      RSTCFG
      000000F9H   SFRSYM    DATA     BYTE      LINICR
      0000008EH   SFRSYM    DATA     BYTE      AUXR
      000000AFH   SFRSYM    DATA     BYTE      IE2
      00000088H   SFRSYM    DATA     BYTE      TCON
      00000098H   SFRSYM    DATA     BYTE      SCON
      000000F1H   SFRSYM    DATA     BYTE      CANICR
      00000087H   SFRSYM    DATA     BYTE      PCON
      000000BCH   SFRSYM    DATA     BYTE      ADC_CONTR
      000000E7H   SFRSYM    DATA     BYTE      CMPCR2
      000000E6H   SFRSYM    DATA     BYTE      CMPCR1
      000000B8H   SFRSYM    DATA     BYTE      IP
      0000008FH   SFRSYM    DATA     BYTE      INTCLKO
      000000EEH   SFRSYM    DATA     BYTE      IP3H
      000000B6H   SFRSYM    DATA     BYTE      IP2H
      000000A8H   SFRSYM    DATA     BYTE      IE
      000000BBH   SFRSYM    DATA     BYTE      P_SW3
      000000BAH   SFRSYM    DATA     BYTE      P_SW2
      000000A2H   SFRSYM    DATA     BYTE      P_SW1
      000000CEH   SFRSYM    DATA     BYTE      SPCTL
      000000F8H   SFRSYM    DATA     BYTE      P7
      000000E8H   SFRSYM    DATA     BYTE      P6
      000000C8H   SFRSYM    DATA     BYTE      P5
      000000C0H   SFRSYM    DATA     BYTE      P4
      000000B0H   SFRSYM    DATA     BYTE      P3
      000000A0H   SFRSYM    DATA     BYTE      P2
      00000090H   SFRSYM    DATA     BYTE      P1
      00000080H   SFRSYM    DATA     BYTE      P0

      00FF5147H   BLOCK     CODE     ---       LVL=0
      00000C0DH   SYMBOL    EDATA    INT       pwmch
      00FF5147H   LINE      CODE     ---       #49
      00FF514BH   LINE      CODE     ---       #51
      00FF52C0H   LINE      CODE     ---       #53
      00FF52C0H   LINE      CODE     ---       #55
      00FF52CBH   LINE      CODE     ---       #56
      00FF52CEH   LINE      CODE     ---       #58
      00FF52CEH   LINE      CODE     ---       #60
      00FF52D9H   LINE      CODE     ---       #61
      00FF52DCH   LINE      CODE     ---       #63
      00FF52DCH   LINE      CODE     ---       #65
      00FF52E7H   LINE      CODE     ---       #66
      00FF52EAH   LINE      CODE     ---       #68
      00FF52EAH   LINE      CODE     ---       #70
      00FF52F5H   LINE      CODE     ---       #71
      00FF52F8H   LINE      CODE     ---       #73
      00FF52F8H   LINE      CODE     ---       #75
      00FF5303H   LINE      CODE     ---       #76
      00FF5306H   LINE      CODE     ---       #78
      00FF5306H   LINE      CODE     ---       #80
L251 LINKER/LOCATER V4.66.93.0                                                        10/07/2023  15:37:24  PAGE 37


      00FF5311H   LINE      CODE     ---       #81
      00FF5314H   LINE      CODE     ---       #84
      00FF5314H   LINE      CODE     ---       #86
      00FF531FH   LINE      CODE     ---       #87
      00FF5322H   LINE      CODE     ---       #89
      00FF5322H   LINE      CODE     ---       #91
      00FF532DH   LINE      CODE     ---       #92
      00FF5330H   LINE      CODE     ---       #94
      00FF5330H   LINE      CODE     ---       #96
      00FF533BH   LINE      CODE     ---       #97
      00FF533EH   LINE      CODE     ---       #99
      00FF533EH   LINE      CODE     ---       #101
      00FF5349H   LINE      CODE     ---       #102
      00FF534CH   LINE      CODE     ---       #104
      00FF534CH   LINE      CODE     ---       #106
      00FF5357H   LINE      CODE     ---       #107
      00FF535AH   LINE      CODE     ---       #109
      00FF535AH   LINE      CODE     ---       #111
      00FF5365H   LINE      CODE     ---       #112
      00FF5368H   LINE      CODE     ---       #115
      00FF5368H   LINE      CODE     ---       #117
      00FF5373H   LINE      CODE     ---       #118
      00FF5376H   LINE      CODE     ---       #120
      00FF5376H   LINE      CODE     ---       #122
      00FF5381H   LINE      CODE     ---       #123
      00FF5384H   LINE      CODE     ---       #125
      00FF5384H   LINE      CODE     ---       #127
      00FF538FH   LINE      CODE     ---       #128
      00FF5392H   LINE      CODE     ---       #130
      00FF5392H   LINE      CODE     ---       #132
      00FF539DH   LINE      CODE     ---       #133
      00FF53A0H   LINE      CODE     ---       #135
      00FF53A0H   LINE      CODE     ---       #137
      00FF53ABH   LINE      CODE     ---       #138
      00FF53AEH   LINE      CODE     ---       #140
      00FF53AEH   LINE      CODE     ---       #142
      00FF53B9H   LINE      CODE     ---       #143
      00FF53BCH   LINE      CODE     ---       #147
      00FF53BCH   LINE      CODE     ---       #149
      00FF53C7H   LINE      CODE     ---       #150
      00FF53CAH   LINE      CODE     ---       #152
      00FF53CAH   LINE      CODE     ---       #154
      00FF53D5H   LINE      CODE     ---       #155
      00FF53D8H   LINE      CODE     ---       #157
      00FF53D8H   LINE      CODE     ---       #159
      00FF53E3H   LINE      CODE     ---       #160
      00FF53E6H   LINE      CODE     ---       #162
      00FF53E6H   LINE      CODE     ---       #164
      00FF53F1H   LINE      CODE     ---       #165
      00FF53F4H   LINE      CODE     ---       #167
      00FF53F4H   LINE      CODE     ---       #169
      00FF53FFH   LINE      CODE     ---       #170
      00FF5402H   LINE      CODE     ---       #172
      00FF5402H   LINE      CODE     ---       #174
      00FF540DH   LINE      CODE     ---       #175
      00FF5410H   LINE      CODE     ---       #177
      00FF5410H   LINE      CODE     ---       #179
      00FF541BH   LINE      CODE     ---       #180
      00FF541EH   LINE      CODE     ---       #182
      00FF541EH   LINE      CODE     ---       #184
      00FF5429H   LINE      CODE     ---       #185
      00FF542CH   LINE      CODE     ---       #189
      00FF542CH   LINE      CODE     ---       #191
      00FF5437H   LINE      CODE     ---       #192
      00FF543AH   LINE      CODE     ---       #194
L251 LINKER/LOCATER V4.66.93.0                                                        10/07/2023  15:37:24  PAGE 38


      00FF543AH   LINE      CODE     ---       #196
      00FF5445H   LINE      CODE     ---       #197
      00FF5448H   LINE      CODE     ---       #199
      00FF5448H   LINE      CODE     ---       #201
      00FF5451H   LINE      CODE     ---       #202
      00FF5454H   LINE      CODE     ---       #204
      00FF5454H   LINE      CODE     ---       #206
      00FF545FH   LINE      CODE     ---       #207
      00FF5462H   LINE      CODE     ---       #210
      00FF5462H   LINE      CODE     ---       #212
      00FF546DH   LINE      CODE     ---       #213
      00FF5470H   LINE      CODE     ---       #215
      00FF5470H   LINE      CODE     ---       #217
      00FF547BH   LINE      CODE     ---       #218
      00FF547EH   LINE      CODE     ---       #220
      00FF547EH   LINE      CODE     ---       #222
      00FF5489H   LINE      CODE     ---       #223
      00FF548BH   LINE      CODE     ---       #225
      00FF548BH   LINE      CODE     ---       #227
      00FF5496H   LINE      CODE     ---       #228
      00FF5498H   LINE      CODE     ---       #232
      00FF5498H   LINE      CODE     ---       #234
      00FF54A3H   LINE      CODE     ---       #235
      00FF54A5H   LINE      CODE     ---       #237
      00FF54A5H   LINE      CODE     ---       #239
      00FF54B0H   LINE      CODE     ---       #240
      00FF54B2H   LINE      CODE     ---       #242
      00FF54B2H   LINE      CODE     ---       #244
      00FF54BDH   LINE      CODE     ---       #245
      00FF54BFH   LINE      CODE     ---       #247
      00FF54BFH   LINE      CODE     ---       #249
      00FF54CAH   LINE      CODE     ---       #250
      00FF54CCH   LINE      CODE     ---       #254
      00FF54CCH   LINE      CODE     ---       #256
      00FF54D7H   LINE      CODE     ---       #257
      00FF54D9H   LINE      CODE     ---       #259
      00FF54D9H   LINE      CODE     ---       #261
      00FF54E4H   LINE      CODE     ---       #262
      00FF54E6H   LINE      CODE     ---       #264
      00FF54E6H   LINE      CODE     ---       #266
      00FF54F1H   LINE      CODE     ---       #267
      00FF54F3H   LINE      CODE     ---       #269
      00FF54F3H   LINE      CODE     ---       #271
      00FF54FEH   LINE      CODE     ---       #272
      00FF54FEH   LINE      CODE     ---       #275
      00FF54FEH   LINE      CODE     ---       #277
      ---         BLOCKEND  ---      ---       LVL=0

      00FF4D6DH   BLOCK     CODE     ---       LVL=0
      0000068EH   SYMBOL    EDATA    INT       pwmch
      00000690H   SYMBOL    EDATA    DWORD     freq
      00000694H   SYMBOL    EDATA    DWORD     duty
      00FF4D75H   BLOCK     CODE     NEAR LAB  LVL=1
      00000698H   SYMBOL    EDATA    DWORD     match_temp
      0000069CH   SYMBOL    EDATA    DWORD     period_temp
      000006A0H   SYMBOL    EDATA    WORD      freq_div
      ---         BLOCKEND  ---      ---       LVL=1
      00FF4D6DH   LINE      CODE     ---       #290
      00FF4D75H   LINE      CODE     ---       #291
      00FF4D75H   LINE      CODE     ---       #295
      00FF4D7BH   LINE      CODE     ---       #298
      00FF4D7EH   LINE      CODE     ---       #301
      00FF4D85H   LINE      CODE     ---       #305
      00FF4D98H   LINE      CODE     ---       #306
      00FF4DA7H   LINE      CODE     ---       #307
L251 LINKER/LOCATER V4.66.93.0                                                        10/07/2023  15:37:24  PAGE 39


      00FF4DC2H   LINE      CODE     ---       #309
      00FF4DCCH   LINE      CODE     ---       #311
      00FF4DF3H   LINE      CODE     ---       #312
      00FF4DF5H   LINE      CODE     ---       #315
      00FF4E03H   LINE      CODE     ---       #316
      00FF4E03H   LINE      CODE     ---       #319
      00FF4E12H   LINE      CODE     ---       #322
      00FF4E43H   LINE      CODE     ---       #323
      00FF4E7AH   LINE      CODE     ---       #326
      00FF4ECCH   LINE      CODE     ---       #329
      00FF4EDFH   LINE      CODE     ---       #330
      00FF4EEEH   LINE      CODE     ---       #332
      00FF4EFBH   LINE      CODE     ---       #333
      00FF4F08H   LINE      CODE     ---       #334
      00FF4F0BH   LINE      CODE     ---       #337
      00FF4F49H   LINE      CODE     ---       #338
      00FF4F7CH   LINE      CODE     ---       #341
      00FF4FDCH   LINE      CODE     ---       #345
      00FF4FEFH   LINE      CODE     ---       #346
      00FF4FFEH   LINE      CODE     ---       #348
      00FF500BH   LINE      CODE     ---       #349
      00FF5018H   LINE      CODE     ---       #350
      00FF5018H   LINE      CODE     ---       #353
      00FF504AH   LINE      CODE     ---       #354
      00FF5082H   LINE      CODE     ---       #357
      00FF50B0H   LINE      CODE     ---       #358
      00FF50E4H   LINE      CODE     ---       #361
      00FF5115H   LINE      CODE     ---       #362
      00FF5146H   LINE      CODE     ---       #367
      ---         BLOCKEND  ---      ---       LVL=0

      00FF6892H   BLOCK     CODE     ---       LVL=0
      0000075BH   SYMBOL    EDATA    INT       pwmch
      0000075DH   SYMBOL    EDATA    DWORD     duty
      00FF689AH   BLOCK     CODE     NEAR LAB  LVL=1
      00000761H   SYMBOL    EDATA    DWORD     match_temp
      00000765H   SYMBOL    EDATA    DWORD     arr
      ---         BLOCKEND  ---      ---       LVL=1
      00FF6892H   LINE      CODE     ---       #377
      00FF689AH   LINE      CODE     ---       #378
      00FF689AH   LINE      CODE     ---       #380
      00FF6906H   LINE      CODE     ---       #384
      00FF6910H   LINE      CODE     ---       #386
      00FF6937H   LINE      CODE     ---       #387
      00FF6939H   LINE      CODE     ---       #390
      00FF6947H   LINE      CODE     ---       #391
      00FF6947H   LINE      CODE     ---       #396
      00FF6975H   LINE      CODE     ---       #397
      00FF69A9H   LINE      CODE     ---       #401
      ---         BLOCKEND  ---      ---       LVL=0
      000006A2H   SYMBOL    EDATA    INT       pwmch
      000006A4H   SYMBOL    EDATA    DWORD     freq
      000006A8H   SYMBOL    EDATA    DWORD     duty
      000006ACH   SYMBOL    EDATA    DWORD     match_temp
      000006B0H   SYMBOL    EDATA    DWORD     period_temp
      000006B4H   SYMBOL    EDATA    WORD      freq_div

      ---         MODULE    ---      ---       zf_spi
      00FF69AAH   PUBLIC    CODE     ---       spi_init
      00FF83B2H   PUBLIC    CODE     ---       spi_mosi
      00000A86H   PUBLIC    EDATA    BYTE      ?spi_init?BYTE
      000000CFH   SFRSYM    DATA     BYTE      SPDAT
      000000D0H   SFRSYM    DATA     BYTE      PSW
      0000009DH   SFRSYM    DATA     BYTE      IRCBAND
      00000097H   SFRSYM    DATA     BYTE      AUXR2
L251 LINKER/LOCATER V4.66.93.0                                                        10/07/2023  15:37:24  PAGE 40


      000000EFH   SFRSYM    DATA     BYTE      AUXINTIF
      000000FDH   SFRSYM    DATA     BYTE      S4CON
      000000ACH   SFRSYM    DATA     BYTE      S3CON
      0000009AH   SFRSYM    DATA     BYTE      S2CON
      000000B7H   SFRSYM    DATA     BYTE      IPH
      000000CDH   SFRSYM    DATA     BYTE      SPSTAT
      000000DDH   SFRSYM    DATA     BYTE      T4T3M
      000000C1H   SFRSYM    DATA     BYTE      WDT_CONTR
      000000DFH   SFRSYM    DATA     BYTE      IP3
      000000F4H   SFRSYM    DATA     BYTE      USBCON
      000000B5H   SFRSYM    DATA     BYTE      IP2
      000000FFH   SFRSYM    DATA     BYTE      RSTCFG
      000000F9H   SFRSYM    DATA     BYTE      LINICR
      0000008EH   SFRSYM    DATA     BYTE      AUXR
      000000AFH   SFRSYM    DATA     BYTE      IE2
      00000088H   SFRSYM    DATA     BYTE      TCON
      00000098H   SFRSYM    DATA     BYTE      SCON
      000000F1H   SFRSYM    DATA     BYTE      CANICR
      00000087H   SFRSYM    DATA     BYTE      PCON
      000000BCH   SFRSYM    DATA     BYTE      ADC_CONTR
      000000E7H   SFRSYM    DATA     BYTE      CMPCR2
      000000E6H   SFRSYM    DATA     BYTE      CMPCR1
      000000B8H   SFRSYM    DATA     BYTE      IP
      0000008FH   SFRSYM    DATA     BYTE      INTCLKO
      000000EEH   SFRSYM    DATA     BYTE      IP3H
      000000B6H   SFRSYM    DATA     BYTE      IP2H
      000000A8H   SFRSYM    DATA     BYTE      IE
      000000BBH   SFRSYM    DATA     BYTE      P_SW3
      000000BAH   SFRSYM    DATA     BYTE      P_SW2
      000000A2H   SFRSYM    DATA     BYTE      P_SW1
      000000CEH   SFRSYM    DATA     BYTE      SPCTL
      000000F8H   SFRSYM    DATA     BYTE      P7
      000000E8H   SFRSYM    DATA     BYTE      P6
      000000C8H   SFRSYM    DATA     BYTE      P5
      000000C0H   SFRSYM    DATA     BYTE      P4
      000000B0H   SFRSYM    DATA     BYTE      P3
      000000A0H   SFRSYM    DATA     BYTE      P2
      00000090H   SFRSYM    DATA     BYTE      P1
      00000080H   SFRSYM    DATA     BYTE      P0

      00FF69AAH   BLOCK     CODE     ---       LVL=0
      00000A8CH   SYMBOL    EDATA    INT       spi_n
      00000A8EH   SYMBOL    EDATA    BYTE      mode
      00000A8FH   SYMBOL    EDATA    INT       mstr
      00000A91H   SYMBOL    EDATA    INT       baud
      00FF69AAH   LINE      CODE     ---       #39
      00FF69B2H   LINE      CODE     ---       #47
      00FF69C4H   LINE      CODE     ---       #50
      00FF69C4H   LINE      CODE     ---       #51
      00FF69CDH   LINE      CODE     ---       #52
      00FF69D6H   LINE      CODE     ---       #53
      00FF69DFH   LINE      CODE     ---       #54
      00FF69E1H   LINE      CODE     ---       #55
      00FF69E1H   LINE      CODE     ---       #56
      00FF69EAH   LINE      CODE     ---       #57
      00FF69F3H   LINE      CODE     ---       #58
      00FF69FCH   LINE      CODE     ---       #59
      00FF69FEH   LINE      CODE     ---       #60
      00FF69FEH   LINE      CODE     ---       #61
      00FF6A07H   LINE      CODE     ---       #62
      00FF6A10H   LINE      CODE     ---       #63
      00FF6A19H   LINE      CODE     ---       #64
      00FF6A1BH   LINE      CODE     ---       #65
      00FF6A1BH   LINE      CODE     ---       #66
      00FF6A24H   LINE      CODE     ---       #67
L251 LINKER/LOCATER V4.66.93.0                                                        10/07/2023  15:37:24  PAGE 41


      00FF6A2DH   LINE      CODE     ---       #68
      00FF6A36H   LINE      CODE     ---       #69
      00FF6A36H   LINE      CODE     ---       #70
      00FF6A36H   LINE      CODE     ---       #72
      00FF6A39H   LINE      CODE     ---       #73
      00FF6A4FH   LINE      CODE     ---       #75
      00FF6A4FH   LINE      CODE     ---       #76
      00FF6A53H   LINE      CODE     ---       #77
      00FF6A55H   LINE      CODE     ---       #78
      00FF6A55H   LINE      CODE     ---       #79
      00FF6A58H   LINE      CODE     ---       #80
      00FF6A5AH   LINE      CODE     ---       #81
      00FF6A5AH   LINE      CODE     ---       #82
      00FF6A5DH   LINE      CODE     ---       #83
      00FF6A5FH   LINE      CODE     ---       #84
      00FF6A5FH   LINE      CODE     ---       #85
      00FF6A62H   LINE      CODE     ---       #86
      00FF6A62H   LINE      CODE     ---       #87
      00FF6A62H   LINE      CODE     ---       #89
      00FF6A65H   LINE      CODE     ---       #90
      00FF6A74H   LINE      CODE     ---       #92
      00FF6A74H   LINE      CODE     ---       #94
      00FF6A76H   LINE      CODE     ---       #95
      00FF6A76H   LINE      CODE     ---       #96
      00FF6A79H   LINE      CODE     ---       #97
      00FF6A7BH   LINE      CODE     ---       #98
      00FF6A7BH   LINE      CODE     ---       #99
      00FF6A7EH   LINE      CODE     ---       #100
      00FF6A80H   LINE      CODE     ---       #101
      00FF6A80H   LINE      CODE     ---       #102
      00FF6A83H   LINE      CODE     ---       #103
      00FF6A83H   LINE      CODE     ---       #104
      00FF6A83H   LINE      CODE     ---       #107
      00FF6A8BH   LINE      CODE     ---       #109
      00FF6A95H   LINE      CODE     ---       #111
      00FF6A98H   LINE      CODE     ---       #112
      00FF6A9BH   LINE      CODE     ---       #113
      00FF6A9BH   LINE      CODE     ---       #117
      00FF6A9BH   LINE      CODE     ---       #118
      00FF6A9EH   LINE      CODE     ---       #119
      ---         BLOCKEND  ---      ---       LVL=0

      00FF83B2H   BLOCK     CODE     ---       LVL=0
      00000C55H   SYMBOL    EDATA    BYTE      dat
      00FF83B2H   LINE      CODE     ---       #129
      00FF83B6H   LINE      CODE     ---       #131
      00FF83B8H   LINE      CODE     ---       #132
      00FF83BDH   LINE      CODE     ---       #133
      00FF83C1H   LINE      CODE     ---       #134
      00FF83C3H   LINE      CODE     ---       #135
      ---         BLOCKEND  ---      ---       LVL=0
      00000C0FH   SYMBOL    EDATA    INT       spi_n
      00000C56H   SYMBOL    EDATA    BYTE      mode

      ---         MODULE    ---      ---       zf_tim
      00FF6EB6H   PUBLIC    CODE     ---       ctimer_count_read
      00FF6B90H   PUBLIC    CODE     ---       pit_timer_ms
      00FF78DFH   PUBLIC    CODE     ---       ctimer_count_init
      00FF7620H   PUBLIC    CODE     ---       ctimer_count_clean
      000000D0H   SFRSYM    DATA     BYTE      PSW
      0000009DH   SFRSYM    DATA     BYTE      IRCBAND
      00000097H   SFRSYM    DATA     BYTE      AUXR2
      000000EFH   SFRSYM    DATA     BYTE      AUXINTIF
      000000FDH   SFRSYM    DATA     BYTE      S4CON
      000000ACH   SFRSYM    DATA     BYTE      S3CON
L251 LINKER/LOCATER V4.66.93.0                                                        10/07/2023  15:37:24  PAGE 42


      0000009AH   SFRSYM    DATA     BYTE      S2CON
      000000B7H   SFRSYM    DATA     BYTE      IPH
      000000CDH   SFRSYM    DATA     BYTE      SPSTAT
      000000DDH   SFRSYM    DATA     BYTE      T4T3M
      000000C1H   SFRSYM    DATA     BYTE      WDT_CONTR
      00000088H.6 SFRSYM    DATA     BIT       TR1
      00000088H.4 SFRSYM    DATA     BIT       TR0
      000000D3H   SFRSYM    DATA     BYTE      T4L
      000000D5H   SFRSYM    DATA     BYTE      T3L
      000000D7H   SFRSYM    DATA     BYTE      T2L
      0000008BH   SFRSYM    DATA     BYTE      TL1
      0000008AH   SFRSYM    DATA     BYTE      TL0
      000000D2H   SFRSYM    DATA     BYTE      T4H
      000000D4H   SFRSYM    DATA     BYTE      T3H
      000000D6H   SFRSYM    DATA     BYTE      T2H
      0000008DH   SFRSYM    DATA     BYTE      TH1
      0000008CH   SFRSYM    DATA     BYTE      TH0
      000000DFH   SFRSYM    DATA     BYTE      IP3
      000000F4H   SFRSYM    DATA     BYTE      USBCON
      000000B5H   SFRSYM    DATA     BYTE      IP2
      000000FFH   SFRSYM    DATA     BYTE      RSTCFG
      000000A8H.3 SFRSYM    DATA     BIT       ET1
      000000A8H.1 SFRSYM    DATA     BIT       ET0
      000000F9H   SFRSYM    DATA     BYTE      LINICR
      0000008EH   SFRSYM    DATA     BYTE      AUXR
      000000AFH   SFRSYM    DATA     BYTE      IE2
      00000088H   SFRSYM    DATA     BYTE      TCON
      00000089H   SFRSYM    DATA     BYTE      TMOD
      00000098H   SFRSYM    DATA     BYTE      SCON
      000000F1H   SFRSYM    DATA     BYTE      CANICR
      00000087H   SFRSYM    DATA     BYTE      PCON
      000000BCH   SFRSYM    DATA     BYTE      ADC_CONTR
      000000E7H   SFRSYM    DATA     BYTE      CMPCR2
      000000E6H   SFRSYM    DATA     BYTE      CMPCR1
      000000B8H   SFRSYM    DATA     BYTE      IP
      0000008FH   SFRSYM    DATA     BYTE      INTCLKO
      000000EEH   SFRSYM    DATA     BYTE      IP3H
      000000B6H   SFRSYM    DATA     BYTE      IP2H
      000000A8H   SFRSYM    DATA     BYTE      IE
      000000BBH   SFRSYM    DATA     BYTE      P_SW3
      000000BAH   SFRSYM    DATA     BYTE      P_SW2
      000000A2H   SFRSYM    DATA     BYTE      P_SW1
      000000CEH   SFRSYM    DATA     BYTE      SPCTL
      000000F8H   SFRSYM    DATA     BYTE      P7
      000000E8H   SFRSYM    DATA     BYTE      P6
      000000C8H   SFRSYM    DATA     BYTE      P5
      000000C0H   SFRSYM    DATA     BYTE      P4
      000000B0H   SFRSYM    DATA     BYTE      P3
      000000A0H   SFRSYM    DATA     BYTE      P2
      00000090H   SFRSYM    DATA     BYTE      P1
      00000080H   SFRSYM    DATA     BYTE      P0

      00FF78DFH   BLOCK     CODE     ---       LVL=0
      00000C11H   SYMBOL    EDATA    INT       tim_n
      00FF78DFH   LINE      CODE     ---       #39
      00FF78E3H   LINE      CODE     ---       #42
      00FF78F7H   LINE      CODE     ---       #44
      00FF78F7H   LINE      CODE     ---       #46
      00FF78FAH   LINE      CODE     ---       #47
      00FF78FDH   LINE      CODE     ---       #48
      00FF7900H   LINE      CODE     ---       #49
      00FF7903H   LINE      CODE     ---       #50
      00FF7905H   LINE      CODE     ---       #53
      00FF7905H   LINE      CODE     ---       #55
      00FF7908H   LINE      CODE     ---       #56
L251 LINKER/LOCATER V4.66.93.0                                                        10/07/2023  15:37:24  PAGE 43


      00FF790BH   LINE      CODE     ---       #57
      00FF790EH   LINE      CODE     ---       #58
      00FF7911H   LINE      CODE     ---       #59
      00FF7913H   LINE      CODE     ---       #62
      00FF7913H   LINE      CODE     ---       #64
      00FF7916H   LINE      CODE     ---       #65
      00FF7919H   LINE      CODE     ---       #66
      00FF791CH   LINE      CODE     ---       #67
      00FF791EH   LINE      CODE     ---       #70
      00FF791EH   LINE      CODE     ---       #72
      00FF7921H   LINE      CODE     ---       #73
      00FF7924H   LINE      CODE     ---       #74
      00FF7927H   LINE      CODE     ---       #75
      00FF7929H   LINE      CODE     ---       #78
      00FF7929H   LINE      CODE     ---       #80
      00FF792CH   LINE      CODE     ---       #81
      00FF792FH   LINE      CODE     ---       #82
      00FF7932H   LINE      CODE     ---       #83
      00FF7932H   LINE      CODE     ---       #86
      00FF7932H   LINE      CODE     ---       #87
      ---         BLOCKEND  ---      ---       LVL=0

      00FF6EB6H   BLOCK     CODE     ---       LVL=0
      00000B96H   SYMBOL    EDATA    INT       tim_n
      00FF6EBAH   BLOCK     CODE     NEAR LAB  LVL=1
      00000B98H   SYMBOL    EDATA    WORD      dat
      ---         BLOCKEND  ---      ---       LVL=1
      00FF6EB6H   LINE      CODE     ---       #95
      00FF6EBAH   LINE      CODE     ---       #96
      00FF6EBAH   LINE      CODE     ---       #97
      00FF6EC0H   LINE      CODE     ---       #99
      00FF6EDBH   LINE      CODE     ---       #101
      00FF6EDBH   LINE      CODE     ---       #103
      00FF6EE7H   LINE      CODE     ---       #104
      00FF6EF5H   LINE      CODE     ---       #105
      00FF6EF7H   LINE      CODE     ---       #107
      00FF6EF7H   LINE      CODE     ---       #109
      00FF6F03H   LINE      CODE     ---       #110
      00FF6F11H   LINE      CODE     ---       #111
      00FF6F13H   LINE      CODE     ---       #113
      00FF6F13H   LINE      CODE     ---       #115
      00FF6F1FH   LINE      CODE     ---       #116
      00FF6F2DH   LINE      CODE     ---       #117
      00FF6F2FH   LINE      CODE     ---       #119
      00FF6F2FH   LINE      CODE     ---       #121
      00FF6F3BH   LINE      CODE     ---       #122
      00FF6F49H   LINE      CODE     ---       #123
      00FF6F4BH   LINE      CODE     ---       #125
      00FF6F4BH   LINE      CODE     ---       #127
      00FF6F57H   LINE      CODE     ---       #128
      00FF6F65H   LINE      CODE     ---       #129
      00FF6F65H   LINE      CODE     ---       #132
      00FF6F65H   LINE      CODE     ---       #133
      00FF6F69H   LINE      CODE     ---       #134
      ---         BLOCKEND  ---      ---       LVL=0

      00FF7620H   BLOCK     CODE     ---       LVL=0
      00000C13H   SYMBOL    EDATA    INT       tim_n
      00FF7620H   LINE      CODE     ---       #143
      00FF7624H   LINE      CODE     ---       #145
      00FF7638H   LINE      CODE     ---       #147
      00FF7638H   LINE      CODE     ---       #149
      00FF763BH   LINE      CODE     ---       #150
      00FF763EH   LINE      CODE     ---       #151
      00FF7641H   LINE      CODE     ---       #152
L251 LINKER/LOCATER V4.66.93.0                                                        10/07/2023  15:37:24  PAGE 44


      00FF7644H   LINE      CODE     ---       #153
      00FF7646H   LINE      CODE     ---       #155
      00FF7646H   LINE      CODE     ---       #157
      00FF7649H   LINE      CODE     ---       #158
      00FF764CH   LINE      CODE     ---       #159
      00FF764FH   LINE      CODE     ---       #160
      00FF7652H   LINE      CODE     ---       #161
      00FF7654H   LINE      CODE     ---       #163
      00FF7654H   LINE      CODE     ---       #165
      00FF7657H   LINE      CODE     ---       #166
      00FF765AH   LINE      CODE     ---       #167
      00FF765DH   LINE      CODE     ---       #168
      00FF7660H   LINE      CODE     ---       #169
      00FF7662H   LINE      CODE     ---       #171
      00FF7662H   LINE      CODE     ---       #173
      00FF7665H   LINE      CODE     ---       #174
      00FF7668H   LINE      CODE     ---       #175
      00FF766BH   LINE      CODE     ---       #176
      00FF766EH   LINE      CODE     ---       #177
      00FF7670H   LINE      CODE     ---       #179
      00FF7670H   LINE      CODE     ---       #181
      00FF7673H   LINE      CODE     ---       #182
      00FF7676H   LINE      CODE     ---       #183
      00FF7679H   LINE      CODE     ---       #184
      00FF767CH   LINE      CODE     ---       #185
      00FF767CH   LINE      CODE     ---       #187
      00FF767CH   LINE      CODE     ---       #188
      ---         BLOCKEND  ---      ---       LVL=0

      00FF6B90H   BLOCK     CODE     ---       LVL=0
      00000AC2H   SYMBOL    EDATA    INT       tim_n
      00000AC4H   SYMBOL    EDATA    WORD      time_ms
      00FF6B98H   BLOCK     CODE     NEAR LAB  LVL=1
      00000AC6H   SYMBOL    EDATA    WORD      temp
      ---         BLOCKEND  ---      ---       LVL=1
      00FF6B90H   LINE      CODE     ---       #198
      00FF6B98H   LINE      CODE     ---       #199
      00FF6B98H   LINE      CODE     ---       #201
      00FF6BBBH   LINE      CODE     ---       #203
      00FF6BC5H   LINE      CODE     ---       #205
      00FF6BC9H   LINE      CODE     ---       #206
      00FF6BCFH   LINE      CODE     ---       #207
      00FF6BD9H   LINE      CODE     ---       #208
      00FF6BDCH   LINE      CODE     ---       #209
      00FF6BDFH   LINE      CODE     ---       #210
      00FF6BE2H   LINE      CODE     ---       #211
      00FF6BEEH   LINE      CODE     ---       #213
      00FF6BF2H   LINE      CODE     ---       #214
      00FF6BF8H   LINE      CODE     ---       #215
      00FF6C02H   LINE      CODE     ---       #216
      00FF6C05H   LINE      CODE     ---       #217
      00FF6C08H   LINE      CODE     ---       #218
      00FF6C0AH   LINE      CODE     ---       #219
      00FF6C16H   LINE      CODE     ---       #221
      00FF6C1CH   LINE      CODE     ---       #222
      00FF6C26H   LINE      CODE     ---       #223
      00FF6C29H   LINE      CODE     ---       #224
      00FF6C2CH   LINE      CODE     ---       #225
      00FF6C2EH   LINE      CODE     ---       #226
      00FF6C3AH   LINE      CODE     ---       #228
      00FF6C40H   LINE      CODE     ---       #229
      00FF6C4AH   LINE      CODE     ---       #230
      00FF6C4DH   LINE      CODE     ---       #231
      00FF6C50H   LINE      CODE     ---       #232
      00FF6C52H   LINE      CODE     ---       #233
L251 LINKER/LOCATER V4.66.93.0                                                        10/07/2023  15:37:24  PAGE 45


      00FF6C5EH   LINE      CODE     ---       #235
      00FF6C64H   LINE      CODE     ---       #236
      00FF6C6EH   LINE      CODE     ---       #237
      00FF6C71H   LINE      CODE     ---       #238
      00FF6C74H   LINE      CODE     ---       #239
      ---         BLOCKEND  ---      ---       LVL=0

      ---         MODULE    ---      ---       zf_uart
      00FF71FFH   PUBLIC    CODE     ---       uart_putchar
      00FF5831H   PUBLIC    CODE     ---       uart_init
      00000B58H   PUBLIC    EDATA    ---       busy
      00000769H   PUBLIC    EDATA    BYTE      ?uart_init?BYTE
      000000D0H   SFRSYM    DATA     BYTE      PSW
      0000009DH   SFRSYM    DATA     BYTE      IRCBAND
      00000097H   SFRSYM    DATA     BYTE      AUXR2
      000000EFH   SFRSYM    DATA     BYTE      AUXINTIF
      000000FDH   SFRSYM    DATA     BYTE      S4CON
      000000ACH   SFRSYM    DATA     BYTE      S3CON
      0000009AH   SFRSYM    DATA     BYTE      S2CON
      000000FEH   SFRSYM    DATA     BYTE      S4BUF
      000000ADH   SFRSYM    DATA     BYTE      S3BUF
      0000009BH   SFRSYM    DATA     BYTE      S2BUF
      000000B7H   SFRSYM    DATA     BYTE      IPH
      000000CDH   SFRSYM    DATA     BYTE      SPSTAT
      000000DDH   SFRSYM    DATA     BYTE      T4T3M
      000000C1H   SFRSYM    DATA     BYTE      WDT_CONTR
      00000088H.6 SFRSYM    DATA     BIT       TR1
      000000D3H   SFRSYM    DATA     BYTE      T4L
      000000D5H   SFRSYM    DATA     BYTE      T3L
      000000D7H   SFRSYM    DATA     BYTE      T2L
      0000008BH   SFRSYM    DATA     BYTE      TL1
      000000D2H   SFRSYM    DATA     BYTE      T4H
      000000D4H   SFRSYM    DATA     BYTE      T3H
      000000D6H   SFRSYM    DATA     BYTE      T2H
      0000008DH   SFRSYM    DATA     BYTE      TH1
      000000DFH   SFRSYM    DATA     BYTE      IP3
      000000F4H   SFRSYM    DATA     BYTE      USBCON
      000000B5H   SFRSYM    DATA     BYTE      IP2
      000000FFH   SFRSYM    DATA     BYTE      RSTCFG
      000000F9H   SFRSYM    DATA     BYTE      LINICR
      0000008EH   SFRSYM    DATA     BYTE      AUXR
      000000AFH   SFRSYM    DATA     BYTE      IE2
      00000088H   SFRSYM    DATA     BYTE      TCON
      00000089H   SFRSYM    DATA     BYTE      TMOD
      00000098H   SFRSYM    DATA     BYTE      SCON
      000000F1H   SFRSYM    DATA     BYTE      CANICR
      00000087H   SFRSYM    DATA     BYTE      PCON
      00000099H   SFRSYM    DATA     BYTE      SBUF
      000000BCH   SFRSYM    DATA     BYTE      ADC_CONTR
      000000E7H   SFRSYM    DATA     BYTE      CMPCR2
      000000E6H   SFRSYM    DATA     BYTE      CMPCR1
      000000B8H   SFRSYM    DATA     BYTE      IP
      000000A8H.4 SFRSYM    DATA     BIT       ES
      0000008FH   SFRSYM    DATA     BYTE      INTCLKO
      000000EEH   SFRSYM    DATA     BYTE      IP3H
      000000B6H   SFRSYM    DATA     BYTE      IP2H
      000000A8H   SFRSYM    DATA     BYTE      IE
      000000BBH   SFRSYM    DATA     BYTE      P_SW3
      000000BAH   SFRSYM    DATA     BYTE      P_SW2
      000000A2H   SFRSYM    DATA     BYTE      P_SW1
      000000CEH   SFRSYM    DATA     BYTE      SPCTL
      000000F8H   SFRSYM    DATA     BYTE      P7
      000000E8H   SFRSYM    DATA     BYTE      P6
      000000C8H   SFRSYM    DATA     BYTE      P5
      000000C0H   SFRSYM    DATA     BYTE      P4
L251 LINKER/LOCATER V4.66.93.0                                                        10/07/2023  15:37:24  PAGE 46


      000000C9H   SFRSYM    DATA     BYTE      P5M1
      000000B0H   SFRSYM    DATA     BYTE      P3
      000000CAH   SFRSYM    DATA     BYTE      P5M0
      000000A0H   SFRSYM    DATA     BYTE      P2
      00000090H   SFRSYM    DATA     BYTE      P1
      00000080H   SFRSYM    DATA     BYTE      P0

      00FF5831H   BLOCK     CODE     ---       LVL=0
      00000769H   SYMBOL    EDATA    INT       uart_n
      0000076BH   SYMBOL    EDATA    INT       uart_rx_pin
      0000076DH   SYMBOL    EDATA    INT       uart_tx_pin
      0000076FH   SYMBOL    EDATA    DWORD     baud
      00000773H   SYMBOL    EDATA    INT       tim_n
      00FF5841H   BLOCK     CODE     NEAR LAB  LVL=1
      00000775H   SYMBOL    EDATA    WORD      brt
      ---         BLOCKEND  ---      ---       LVL=1
      00FF5831H   LINE      CODE     ---       #47
      00FF5841H   LINE      CODE     ---       #48
      00FF5841H   LINE      CODE     ---       #51
      00FF5868H   LINE      CODE     ---       #54
      00FF588AH   LINE      CODE     ---       #56
      00FF588AH   LINE      CODE     ---       #58
      00FF5896H   LINE      CODE     ---       #60
      00FF5899H   LINE      CODE     ---       #61
      00FF589DH   LINE      CODE     ---       #62
      00FF58A3H   LINE      CODE     ---       #63
      00FF58ADH   LINE      CODE     ---       #64
      00FF58B0H   LINE      CODE     ---       #65
      00FF58B3H   LINE      CODE     ---       #66
      00FF58B8H   LINE      CODE     ---       #67
      00FF58BAH   LINE      CODE     ---       #68
      00FF58C6H   LINE      CODE     ---       #70
      00FF58C9H   LINE      CODE     ---       #71
      00FF58CFH   LINE      CODE     ---       #72
      00FF58D9H   LINE      CODE     ---       #73
      00FF58DCH   LINE      CODE     ---       #74
      00FF58DCH   LINE      CODE     ---       #75
      00FF58DFH   LINE      CODE     ---       #76
      00FF58F5H   LINE      CODE     ---       #78
      00FF58F9H   LINE      CODE     ---       #79
      00FF58FBH   LINE      CODE     ---       #80
      00FF5913H   LINE      CODE     ---       #82
      00FF5916H   LINE      CODE     ---       #83
      00FF5918H   LINE      CODE     ---       #84
      00FF5930H   LINE      CODE     ---       #86
      00FF5933H   LINE      CODE     ---       #87
      00FF5935H   LINE      CODE     ---       #88
      00FF594DH   LINE      CODE     ---       #90
      00FF5950H   LINE      CODE     ---       #91
      00FF5950H   LINE      CODE     ---       #92
      00FF5955H   LINE      CODE     ---       #93
      00FF5958H   LINE      CODE     ---       #94
      00FF595BH   LINE      CODE     ---       #97
      00FF595BH   LINE      CODE     ---       #99
      00FF5967H   LINE      CODE     ---       #101
      00FF596AH   LINE      CODE     ---       #102
      00FF5970H   LINE      CODE     ---       #103
      00FF597AH   LINE      CODE     ---       #104
      00FF597DH   LINE      CODE     ---       #105
      00FF597DH   LINE      CODE     ---       #107
      00FF5980H   LINE      CODE     ---       #108
      00FF5998H   LINE      CODE     ---       #110
      00FF599CH   LINE      CODE     ---       #111
      00FF599EH   LINE      CODE     ---       #112
      00FF59B6H   LINE      CODE     ---       #114
L251 LINKER/LOCATER V4.66.93.0                                                        10/07/2023  15:37:24  PAGE 47


      00FF59B9H   LINE      CODE     ---       #115
      00FF59B9H   LINE      CODE     ---       #117
      00FF59BCH   LINE      CODE     ---       #118
      00FF59C1H   LINE      CODE     ---       #119
      00FF59C4H   LINE      CODE     ---       #122
      00FF59C4H   LINE      CODE     ---       #124
      00FF59D0H   LINE      CODE     ---       #126
      00FF59D3H   LINE      CODE     ---       #127
      00FF59D9H   LINE      CODE     ---       #128
      00FF59E3H   LINE      CODE     ---       #129
      00FF59E6H   LINE      CODE     ---       #130
      00FF59E8H   LINE      CODE     ---       #131
      00FF59F4H   LINE      CODE     ---       #133
      00FF59F7H   LINE      CODE     ---       #134
      00FF59FDH   LINE      CODE     ---       #135
      00FF5A07H   LINE      CODE     ---       #136
      00FF5A0AH   LINE      CODE     ---       #137
      00FF5A0AH   LINE      CODE     ---       #139
      00FF5A0DH   LINE      CODE     ---       #140
      00FF5A25H   LINE      CODE     ---       #142
      00FF5A29H   LINE      CODE     ---       #143
      00FF5A2BH   LINE      CODE     ---       #144
      00FF5A43H   LINE      CODE     ---       #146
      00FF5A46H   LINE      CODE     ---       #147
      00FF5A46H   LINE      CODE     ---       #149
      00FF5A49H   LINE      CODE     ---       #150
      00FF5A4EH   LINE      CODE     ---       #151
      00FF5A51H   LINE      CODE     ---       #154
      00FF5A51H   LINE      CODE     ---       #156
      00FF5A5DH   LINE      CODE     ---       #158
      00FF5A60H   LINE      CODE     ---       #159
      00FF5A66H   LINE      CODE     ---       #160
      00FF5A70H   LINE      CODE     ---       #161
      00FF5A73H   LINE      CODE     ---       #162
      00FF5A75H   LINE      CODE     ---       #163
      00FF5A81H   LINE      CODE     ---       #165
      00FF5A84H   LINE      CODE     ---       #166
      00FF5A8AH   LINE      CODE     ---       #167
      00FF5A94H   LINE      CODE     ---       #168
      00FF5A97H   LINE      CODE     ---       #169
      00FF5A97H   LINE      CODE     ---       #171
      00FF5A9AH   LINE      CODE     ---       #172
      00FF5AB2H   LINE      CODE     ---       #174
      00FF5AB6H   LINE      CODE     ---       #175
      00FF5AB8H   LINE      CODE     ---       #176
      00FF5AD0H   LINE      CODE     ---       #178
      00FF5AD3H   LINE      CODE     ---       #179
      00FF5AD7H   LINE      CODE     ---       #180
      00FF5ADAH   LINE      CODE     ---       #181
      00FF5ADAH   LINE      CODE     ---       #182
      00FF5ADDH   LINE      CODE     ---       #183
      00FF5AE2H   LINE      CODE     ---       #184
      00FF5AE2H   LINE      CODE     ---       #187
      00FF5AE2H   LINE      CODE     ---       #189
      ---         BLOCKEND  ---      ---       LVL=0

      00FF71FFH   BLOCK     CODE     ---       LVL=0
      00000BD5H   SYMBOL    EDATA    INT       uart_n
      00000BD7H   SYMBOL    EDATA    BYTE      dat
      00FF71FFH   LINE      CODE     ---       #198
      00FF7207H   LINE      CODE     ---       #200
      00FF7219H   LINE      CODE     ---       #202
      00FF7219H   LINE      CODE     ---       #203
      00FF7222H   LINE      CODE     ---       #204
      00FF7228H   LINE      CODE     ---       #205
L251 LINKER/LOCATER V4.66.93.0                                                        10/07/2023  15:37:24  PAGE 48


      00FF722EH   LINE      CODE     ---       #206
      00FF7230H   LINE      CODE     ---       #207
      00FF7230H   LINE      CODE     ---       #208
      00FF7239H   LINE      CODE     ---       #209
      00FF723FH   LINE      CODE     ---       #210
      00FF7245H   LINE      CODE     ---       #211
      00FF7247H   LINE      CODE     ---       #212
      00FF7247H   LINE      CODE     ---       #213
      00FF7250H   LINE      CODE     ---       #214
      00FF7256H   LINE      CODE     ---       #215
      00FF725CH   LINE      CODE     ---       #216
      00FF725EH   LINE      CODE     ---       #217
      00FF725EH   LINE      CODE     ---       #218
      00FF7267H   LINE      CODE     ---       #219
      00FF726DH   LINE      CODE     ---       #220
      00FF7273H   LINE      CODE     ---       #221
      00FF7273H   LINE      CODE     ---       #222
      00FF7273H   LINE      CODE     ---       #223
      ---         BLOCKEND  ---      ---       LVL=0
      00000A14H   SYMBOL    EDATA    INT       uart_n
      00000A16H   SYMBOL    EDATA    ---       p
      00000A1AH   SYMBOL    EDATA    WORD      len
      00000AC8H   SYMBOL    EDATA    INT       uart_n
      00000ACAH   SYMBOL    EDATA    ---       str

      ---         MODULE    ---      ---       zf_fifo
      00FF7353H   PUBLIC    CODE     ---       fifo_head_offset
      00FF663BH   PUBLIC    CODE     ---       fifo_write_buffer
      000007BBH   PUBLIC    EDATA    BYTE      ?fifo_init?BYTE
      0000073BH   PUBLIC    EDATA    BYTE      ?fifo_write_buffer?BYTE
      000006F2H   PUBLIC    EDATA    BYTE      ?fifo_read_buffer?BYTE
      000000D0H   SFRSYM    DATA     BYTE      PSW
      0000009DH   SFRSYM    DATA     BYTE      IRCBAND
      00000097H   SFRSYM    DATA     BYTE      AUXR2
      000000EFH   SFRSYM    DATA     BYTE      AUXINTIF
      000000FDH   SFRSYM    DATA     BYTE      S4CON
      000000ACH   SFRSYM    DATA     BYTE      S3CON
      0000009AH   SFRSYM    DATA     BYTE      S2CON
      000000B7H   SFRSYM    DATA     BYTE      IPH
      000000CDH   SFRSYM    DATA     BYTE      SPSTAT
      000000DDH   SFRSYM    DATA     BYTE      T4T3M
      000000C1H   SFRSYM    DATA     BYTE      WDT_CONTR
      000000DFH   SFRSYM    DATA     BYTE      IP3
      000000F4H   SFRSYM    DATA     BYTE      USBCON
      000000B5H   SFRSYM    DATA     BYTE      IP2
      000000FFH   SFRSYM    DATA     BYTE      RSTCFG
      000000F9H   SFRSYM    DATA     BYTE      LINICR
      0000008EH   SFRSYM    DATA     BYTE      AUXR
      000000AFH   SFRSYM    DATA     BYTE      IE2
      00000088H   SFRSYM    DATA     BYTE      TCON
      00000098H   SFRSYM    DATA     BYTE      SCON
      000000F1H   SFRSYM    DATA     BYTE      CANICR
      00000087H   SFRSYM    DATA     BYTE      PCON
      000000BCH   SFRSYM    DATA     BYTE      ADC_CONTR
      000000E7H   SFRSYM    DATA     BYTE      CMPCR2
      000000E6H   SFRSYM    DATA     BYTE      CMPCR1
      000000B8H   SFRSYM    DATA     BYTE      IP
      0000008FH   SFRSYM    DATA     BYTE      INTCLKO
      000000EEH   SFRSYM    DATA     BYTE      IP3H
      000000B6H   SFRSYM    DATA     BYTE      IP2H
      000000A8H   SFRSYM    DATA     BYTE      IE
      000000BBH   SFRSYM    DATA     BYTE      P_SW3
      000000BAH   SFRSYM    DATA     BYTE      P_SW2
      000000A2H   SFRSYM    DATA     BYTE      P_SW1
      000000CEH   SFRSYM    DATA     BYTE      SPCTL
L251 LINKER/LOCATER V4.66.93.0                                                        10/07/2023  15:37:24  PAGE 49


      000000F8H   SFRSYM    DATA     BYTE      P7
      000000E8H   SFRSYM    DATA     BYTE      P6
      000000C8H   SFRSYM    DATA     BYTE      P5
      000000C0H   SFRSYM    DATA     BYTE      P4
      000000B0H   SFRSYM    DATA     BYTE      P3
      000000A0H   SFRSYM    DATA     BYTE      P2
      00000090H   SFRSYM    DATA     BYTE      P1
      00000080H   SFRSYM    DATA     BYTE      P0
      000007BBH   SYMBOL    EDATA    ---       fifo
      000007BFH   SYMBOL    EDATA    ---       buffer_addr
      000007C3H   SYMBOL    EDATA    DWORD     size

      00FF7353H   BLOCK     CODE     ---       LVL=0
      00000A1CH   SYMBOL    EDATA    ---       fifo
      00000A20H   SYMBOL    EDATA    DWORD     offset
      00FF7353H   LINE      CODE     ---       #61
      00FF735BH   LINE      CODE     ---       #63
      00FF7375H   LINE      CODE     ---       #65
      00FF7377H   LINE      CODE     ---       #67
      00FF739CH   LINE      CODE     ---       #68
      00FF73BCH   LINE      CODE     ---       #69
      ---         BLOCKEND  ---      ---       LVL=0
      00000A24H   SYMBOL    EDATA    ---       fifo
      00000A28H   SYMBOL    EDATA    DWORD     offset
      00000B9AH   SYMBOL    EDATA    ---       fifo
      00000B9EH   SYMBOL    EDATA    ---       fifo

      00FF663BH   BLOCK     CODE     ---       LVL=0
      0000073BH   SYMBOL    EDATA    ---       fifo
      0000073FH   SYMBOL    EDATA    ---       dat
      00000743H   SYMBOL    EDATA    DWORD     length
      00FF6643H   BLOCK     CODE     NEAR LAB  LVL=1
      00000747H   SYMBOL    EDATA    DWORD     temp_length
      ---         BLOCKEND  ---      ---       LVL=1
      00FF663BH   LINE      CODE     ---       #120
      00FF6643H   LINE      CODE     ---       #121
      00FF6643H   LINE      CODE     ---       #124
      00FF665DH   LINE      CODE     ---       #126
      00FF667FH   LINE      CODE     ---       #128
      00FF668EH   LINE      CODE     ---       #130
      00FF66B7H   LINE      CODE     ---       #131
      00FF66C2H   LINE      CODE     ---       #132
      00FF66D2H   LINE      CODE     ---       #133
      00FF6705H   LINE      CODE     ---       #134
      00FF6716H   LINE      CODE     ---       #135
      00FF6718H   LINE      CODE     ---       #138
      00FF6741H   LINE      CODE     ---       #139
      00FF674CH   LINE      CODE     ---       #140
      00FF674CH   LINE      CODE     ---       #142
      00FF6768H   LINE      CODE     ---       #143
      00FF676AH   LINE      CODE     ---       #146
      00FF6770H   LINE      CODE     ---       #147
      00FF6770H   LINE      CODE     ---       #149
      00FF6772H   LINE      CODE     ---       #150
      ---         BLOCKEND  ---      ---       LVL=0
      000006F2H   SYMBOL    EDATA    ---       fifo
      000006F6H   SYMBOL    EDATA    ---       dat
      000006FAH   SYMBOL    EDATA    ---       length
      000006FEH   SYMBOL    EDATA    INT       flag
      00000700H   SYMBOL    EDATA    BYTE      data_check
      00000701H   SYMBOL    EDATA    DWORD     temp_length

      ---         MODULE    ---      ---       SEEKFREE_18TFT
      00FF7A7CH   PUBLIC    CODE     ---       lcd_writeIndex_simspi
      00FF7AC8H   PUBLIC    CODE     ---       lcd_writeData_simspi
L251 LINKER/LOCATER V4.66.93.0                                                        10/07/2023  15:37:24  PAGE 50


      00FF82E8H   PUBLIC    CODE     ---       lcd_writeIndex
      00FF82FDH   PUBLIC    CODE     ---       lcd_writeData
      00FF7835H   PUBLIC    CODE     ---       lcd_writeData_16bit_simspi
      00FF74F9H   PUBLIC    CODE     ---       lcd_set_region_simspi
      00FF755DH   PUBLIC    CODE     ---       lcd_set_region
      00FF7F99H   PUBLIC    CODE     ---       lcd_writedata_16bit
      000003BEH   PUBLIC    EDATA    BYTE      ?lcd_showfloat_simspi?BYTE
      000003EEH   PUBLIC    EDATA    BYTE      ?lcd_showfloat?BYTE
      000000D0H   SFRSYM    DATA     BYTE      PSW
      0000009DH   SFRSYM    DATA     BYTE      IRCBAND
      00000097H   SFRSYM    DATA     BYTE      AUXR2
      000000EFH   SFRSYM    DATA     BYTE      AUXINTIF
      000000FDH   SFRSYM    DATA     BYTE      S4CON
      000000ACH   SFRSYM    DATA     BYTE      S3CON
      0000009AH   SFRSYM    DATA     BYTE      S2CON
      000000B7H   SFRSYM    DATA     BYTE      IPH
      000000CDH   SFRSYM    DATA     BYTE      SPSTAT
      000000DDH   SFRSYM    DATA     BYTE      T4T3M
      000000C1H   SFRSYM    DATA     BYTE      WDT_CONTR
      000000DFH   SFRSYM    DATA     BYTE      IP3
      000000F4H   SFRSYM    DATA     BYTE      USBCON
      000000B5H   SFRSYM    DATA     BYTE      IP2
      000000FFH   SFRSYM    DATA     BYTE      RSTCFG
      000000F9H   SFRSYM    DATA     BYTE      LINICR
      0000008EH   SFRSYM    DATA     BYTE      AUXR
      000000AFH   SFRSYM    DATA     BYTE      IE2
      000000A0H.5 SFRSYM    DATA     BIT       P25
      00000088H   SFRSYM    DATA     BYTE      TCON
      000000A0H.3 SFRSYM    DATA     BIT       P23
      00000098H   SFRSYM    DATA     BYTE      SCON
      000000A0H.2 SFRSYM    DATA     BIT       P22
      000000A0H.1 SFRSYM    DATA     BIT       P21
      000000A0H.0 SFRSYM    DATA     BIT       P20
      000000F1H   SFRSYM    DATA     BYTE      CANICR
      00000087H   SFRSYM    DATA     BYTE      PCON
      000000BCH   SFRSYM    DATA     BYTE      ADC_CONTR
      000000E7H   SFRSYM    DATA     BYTE      CMPCR2
      000000E6H   SFRSYM    DATA     BYTE      CMPCR1
      000000B8H   SFRSYM    DATA     BYTE      IP
      0000008FH   SFRSYM    DATA     BYTE      INTCLKO
      000000EEH   SFRSYM    DATA     BYTE      IP3H
      000000B6H   SFRSYM    DATA     BYTE      IP2H
      000000A8H   SFRSYM    DATA     BYTE      IE
      000000BBH   SFRSYM    DATA     BYTE      P_SW3
      000000BAH   SFRSYM    DATA     BYTE      P_SW2
      000000A2H   SFRSYM    DATA     BYTE      P_SW1
      000000CEH   SFRSYM    DATA     BYTE      SPCTL
      000000F8H   SFRSYM    DATA     BYTE      P7
      000000E8H   SFRSYM    DATA     BYTE      P6
      000000C8H   SFRSYM    DATA     BYTE      P5
      000000C0H   SFRSYM    DATA     BYTE      P4
      000000B0H   SFRSYM    DATA     BYTE      P3
      000000A0H   SFRSYM    DATA     BYTE      P2
      00000090H   SFRSYM    DATA     BYTE      P1
      00000080H   SFRSYM    DATA     BYTE      P0

      00FF7A7CH   BLOCK     CODE     ---       LVL=0
      00000C15H   SYMBOL    EDATA    BYTE      dat
      00FF7A80H   BLOCK     CODE     NEAR LAB  LVL=1
      00000C16H   SYMBOL    EDATA    BYTE      i
      ---         BLOCKEND  ---      ---       LVL=1
      00FF7A7CH   LINE      CODE     ---       #60
      00FF7A80H   LINE      CODE     ---       #61
      00FF7A80H   LINE      CODE     ---       #62
      00FF7A86H   LINE      CODE     ---       #64
L251 LINKER/LOCATER V4.66.93.0                                                        10/07/2023  15:37:24  PAGE 51


      00FF7A89H   LINE      CODE     ---       #65
      00FF7A8CH   LINE      CODE     ---       #66
      00FF7A8FH   LINE      CODE     ---       #68
      00FF7A91H   LINE      CODE     ---       #70
      00FF7A9DH   LINE      CODE     ---       #71
      00FF7AA0H   LINE      CODE     ---       #72
      00FF7AA3H   LINE      CODE     ---       #74
      00FF7AA6H   LINE      CODE     ---       #75
      00FF7AB0H   LINE      CODE     ---       #76
      00FF7AC4H   LINE      CODE     ---       #77
      00FF7AC7H   LINE      CODE     ---       #78
      ---         BLOCKEND  ---      ---       LVL=0

      00FF7AC8H   BLOCK     CODE     ---       LVL=0
      00000C17H   SYMBOL    EDATA    BYTE      dat
      00FF7ACCH   BLOCK     CODE     NEAR LAB  LVL=1
      00000C18H   SYMBOL    EDATA    BYTE      i
      ---         BLOCKEND  ---      ---       LVL=1
      00FF7AC8H   LINE      CODE     ---       #87
      00FF7ACCH   LINE      CODE     ---       #88
      00FF7ACCH   LINE      CODE     ---       #89
      00FF7AD2H   LINE      CODE     ---       #91
      00FF7AD5H   LINE      CODE     ---       #92
      00FF7AD8H   LINE      CODE     ---       #93
      00FF7ADBH   LINE      CODE     ---       #94
      00FF7ADDH   LINE      CODE     ---       #96
      00FF7AE9H   LINE      CODE     ---       #97
      00FF7AECH   LINE      CODE     ---       #98
      00FF7AEFH   LINE      CODE     ---       #100
      00FF7AF2H   LINE      CODE     ---       #101
      00FF7AFCH   LINE      CODE     ---       #102
      00FF7B10H   LINE      CODE     ---       #103
      00FF7B13H   LINE      CODE     ---       #104
      ---         BLOCKEND  ---      ---       LVL=0

      00FF7835H   BLOCK     CODE     ---       LVL=0
      00000BD8H   SYMBOL    EDATA    WORD      dat
      00FF7839H   BLOCK     CODE     NEAR LAB  LVL=1
      00000BDAH   SYMBOL    EDATA    BYTE      i
      ---         BLOCKEND  ---      ---       LVL=1
      00FF7835H   LINE      CODE     ---       #113
      00FF7839H   LINE      CODE     ---       #114
      00FF7839H   LINE      CODE     ---       #115
      00FF783FH   LINE      CODE     ---       #117
      00FF7842H   LINE      CODE     ---       #118
      00FF7845H   LINE      CODE     ---       #119
      00FF7848H   LINE      CODE     ---       #121
      00FF784AH   LINE      CODE     ---       #123
      00FF785FH   LINE      CODE     ---       #124
      00FF7862H   LINE      CODE     ---       #125
      00FF7865H   LINE      CODE     ---       #127
      00FF7868H   LINE      CODE     ---       #128
      00FF7872H   LINE      CODE     ---       #129
      00FF7886H   LINE      CODE     ---       #131
      00FF7889H   LINE      CODE     ---       #133
      ---         BLOCKEND  ---      ---       LVL=0

      00FF74F9H   BLOCK     CODE     ---       LVL=0
      00000A2CH   SYMBOL    EDATA    WORD      x_start
      00000A2EH   SYMBOL    EDATA    WORD      y_start
      00000A30H   SYMBOL    EDATA    WORD      x_end
      00000A32H   SYMBOL    EDATA    WORD      y_end
      00FF74F9H   LINE      CODE     ---       #145
      00FF7509H   LINE      CODE     ---       #163
      00FF750EH   LINE      CODE     ---       #164
L251 LINKER/LOCATER V4.66.93.0                                                        10/07/2023  15:37:24  PAGE 52


      00FF7512H   LINE      CODE     ---       #165
      00FF751FH   LINE      CODE     ---       #166
      00FF7523H   LINE      CODE     ---       #167
      00FF7530H   LINE      CODE     ---       #169
      00FF7535H   LINE      CODE     ---       #170
      00FF7539H   LINE      CODE     ---       #171
      00FF7546H   LINE      CODE     ---       #172
      00FF754AH   LINE      CODE     ---       #173
      00FF7557H   LINE      CODE     ---       #177
      00FF755CH   LINE      CODE     ---       #178
      ---         BLOCKEND  ---      ---       LVL=0
      00000BA2H   SYMBOL    EDATA    INT       color
      00000BA4H   SYMBOL    EDATA    BYTE      i
      00000BA5H   SYMBOL    EDATA    BYTE      j
      00000ACEH   SYMBOL    EDATA    WORD      x
      00000AD0H   SYMBOL    EDATA    WORD      y
      00000AD2H   SYMBOL    EDATA    WORD      color
      00000A34H   SYMBOL    EDATA    WORD      x
      00000A36H   SYMBOL    EDATA    WORD      y
      00000A38H   SYMBOL    EDATA    CHAR      dat
      00000A39H   SYMBOL    EDATA    BYTE      i
      00000A3AH   SYMBOL    EDATA    BYTE      j
      00000A3BH   SYMBOL    EDATA    BYTE      temp
      000008EBH   SYMBOL    EDATA    WORD      x
      000008EDH   SYMBOL    EDATA    WORD      y
      000008EFH   SYMBOL    EDATA    ---       dat
      000008F3H   SYMBOL    EDATA    WORD      j
      00000945H   SYMBOL    EDATA    WORD      x
      00000947H   SYMBOL    EDATA    WORD      y
      00000949H   SYMBOL    EDATA    CHAR      dat
      0000094AH   SYMBOL    EDATA    ---       a
      0000094DH   SYMBOL    EDATA    BYTE      i
      0000094EH   SYMBOL    EDATA    WORD      x
      00000950H   SYMBOL    EDATA    WORD      y
      00000952H   SYMBOL    EDATA    BYTE      dat
      00000953H   SYMBOL    EDATA    ---       a
      00000956H   SYMBOL    EDATA    BYTE      i
      000007C7H   SYMBOL    EDATA    WORD      x
      000007C9H   SYMBOL    EDATA    WORD      y
      000007CBH   SYMBOL    EDATA    INT       dat
      000007CDH   SYMBOL    EDATA    ---       a
      000007D2H   SYMBOL    EDATA    BYTE      i
      000007D3H   SYMBOL    EDATA    WORD      x
      000007D5H   SYMBOL    EDATA    WORD      y
      000007D7H   SYMBOL    EDATA    WORD      dat
      000007D9H   SYMBOL    EDATA    ---       a
      000007DEH   SYMBOL    EDATA    BYTE      i
      0000050DH   SYMBOL    EDATA    WORD      x
      0000050FH   SYMBOL    EDATA    WORD      y
      00000511H   SYMBOL    EDATA    LONG      dat
      00000515H   SYMBOL    EDATA    BYTE      num
      00000516H   SYMBOL    EDATA    ---       buff
      00000538H   SYMBOL    EDATA    BYTE      length
      000003BEH   SYMBOL    EDATA    WORD      x
      000003C0H   SYMBOL    EDATA    WORD      y
      000003C2H   SYMBOL    EDATA    FLOAT     dat
      000003C6H   SYMBOL    EDATA    BYTE      num
      000003C7H   SYMBOL    EDATA    BYTE      pointnum
      000003C8H   SYMBOL    EDATA    BYTE      length
      000003C9H   SYMBOL    EDATA    ---       buff
      000003EBH   SYMBOL    EDATA    CHAR      start
      000003ECH   SYMBOL    EDATA    CHAR      end
      000003EDH   SYMBOL    EDATA    CHAR      point

      00FF82E8H   BLOCK     CODE     ---       LVL=0
L251 LINKER/LOCATER V4.66.93.0                                                        10/07/2023  15:37:24  PAGE 53


      00000C57H   SYMBOL    EDATA    BYTE      dat
      00FF82E8H   LINE      CODE     ---       #607
      00FF82ECH   LINE      CODE     ---       #610
      00FF82EFH   LINE      CODE     ---       #611
      00FF82F2H   LINE      CODE     ---       #612
      00FF82F9H   LINE      CODE     ---       #613
      00FF82FCH   LINE      CODE     ---       #614
      ---         BLOCKEND  ---      ---       LVL=0

      00FF82FDH   BLOCK     CODE     ---       LVL=0
      00000C58H   SYMBOL    EDATA    BYTE      dat
      00FF82FDH   LINE      CODE     ---       #623
      00FF8301H   LINE      CODE     ---       #625
      00FF8304H   LINE      CODE     ---       #626
      00FF8307H   LINE      CODE     ---       #627
      00FF830EH   LINE      CODE     ---       #628
      00FF8311H   LINE      CODE     ---       #629
      ---         BLOCKEND  ---      ---       LVL=0

      00FF7F99H   BLOCK     CODE     ---       LVL=0
      00000BA6H   SYMBOL    EDATA    WORD      dat
      00FF7F9DH   BLOCK     CODE     NEAR LAB  LVL=1
      00000BA8H   SYMBOL    EDATA    ---       dat1
      ---         BLOCKEND  ---      ---       LVL=1
      00FF7F99H   LINE      CODE     ---       #638
      00FF7F9DH   LINE      CODE     ---       #639
      00FF7F9DH   LINE      CODE     ---       #642
      00FF7FA3H   LINE      CODE     ---       #643
      00FF7FABH   LINE      CODE     ---       #645
      00FF7FAEH   LINE      CODE     ---       #646
      00FF7FB1H   LINE      CODE     ---       #647
      00FF7FB8H   LINE      CODE     ---       #648
      00FF7FBFH   LINE      CODE     ---       #649
      00FF7FC2H   LINE      CODE     ---       #651
      ---         BLOCKEND  ---      ---       LVL=0

      00FF755DH   BLOCK     CODE     ---       LVL=0
      00000A3CH   SYMBOL    EDATA    WORD      x_start
      00000A3EH   SYMBOL    EDATA    WORD      y_start
      00000A40H   SYMBOL    EDATA    WORD      x_end
      00000A42H   SYMBOL    EDATA    WORD      y_end
      00FF755DH   LINE      CODE     ---       #663
      00FF756DH   LINE      CODE     ---       #681
      00FF7572H   LINE      CODE     ---       #682
      00FF7576H   LINE      CODE     ---       #683
      00FF7583H   LINE      CODE     ---       #684
      00FF7587H   LINE      CODE     ---       #685
      00FF7594H   LINE      CODE     ---       #687
      00FF7599H   LINE      CODE     ---       #688
      00FF759DH   LINE      CODE     ---       #689
      00FF75AAH   LINE      CODE     ---       #690
      00FF75AEH   LINE      CODE     ---       #691
      00FF75BBH   LINE      CODE     ---       #695
      00FF75C0H   LINE      CODE     ---       #696
      ---         BLOCKEND  ---      ---       LVL=0
      00000BAAH   SYMBOL    EDATA    INT       color
      00000BACH   SYMBOL    EDATA    BYTE      i
      00000BADH   SYMBOL    EDATA    BYTE      j
      00000AD4H   SYMBOL    EDATA    WORD      x
      00000AD6H   SYMBOL    EDATA    WORD      y
      00000AD8H   SYMBOL    EDATA    WORD      color
      00000A44H   SYMBOL    EDATA    WORD      x
      00000A46H   SYMBOL    EDATA    WORD      y
      00000A48H   SYMBOL    EDATA    CHAR      dat
      00000A49H   SYMBOL    EDATA    BYTE      i
L251 LINKER/LOCATER V4.66.93.0                                                        10/07/2023  15:37:24  PAGE 54


      00000A4AH   SYMBOL    EDATA    BYTE      j
      00000A4BH   SYMBOL    EDATA    BYTE      temp
      000008F5H   SYMBOL    EDATA    WORD      x
      000008F7H   SYMBOL    EDATA    WORD      y
      000008F9H   SYMBOL    EDATA    ---       dat
      000008FDH   SYMBOL    EDATA    WORD      j
      00000957H   SYMBOL    EDATA    WORD      x
      00000959H   SYMBOL    EDATA    WORD      y
      0000095BH   SYMBOL    EDATA    CHAR      dat
      0000095CH   SYMBOL    EDATA    ---       a
      0000095FH   SYMBOL    EDATA    BYTE      i
      00000960H   SYMBOL    EDATA    WORD      x
      00000962H   SYMBOL    EDATA    WORD      y
      00000964H   SYMBOL    EDATA    BYTE      dat
      00000965H   SYMBOL    EDATA    ---       a
      00000968H   SYMBOL    EDATA    BYTE      i
      000007DFH   SYMBOL    EDATA    WORD      x
      000007E1H   SYMBOL    EDATA    WORD      y
      000007E3H   SYMBOL    EDATA    INT       dat
      000007E5H   SYMBOL    EDATA    ---       a
      000007EAH   SYMBOL    EDATA    BYTE      i
      000007EBH   SYMBOL    EDATA    WORD      x
      000007EDH   SYMBOL    EDATA    WORD      y
      000007EFH   SYMBOL    EDATA    WORD      dat
      000007F1H   SYMBOL    EDATA    ---       a
      000007F6H   SYMBOL    EDATA    BYTE      i
      00000539H   SYMBOL    EDATA    WORD      x
      0000053BH   SYMBOL    EDATA    WORD      y
      0000053DH   SYMBOL    EDATA    LONG      dat
      00000541H   SYMBOL    EDATA    BYTE      num
      00000542H   SYMBOL    EDATA    ---       buff
      00000564H   SYMBOL    EDATA    BYTE      length
      000003EEH   SYMBOL    EDATA    WORD      x
      000003F0H   SYMBOL    EDATA    WORD      y
      000003F2H   SYMBOL    EDATA    FLOAT     dat
      000003F6H   SYMBOL    EDATA    BYTE      num
      000003F7H   SYMBOL    EDATA    BYTE      pointnum
      000003F8H   SYMBOL    EDATA    BYTE      length
      000003F9H   SYMBOL    EDATA    ---       buff
      0000041BH   SYMBOL    EDATA    CHAR      start
      0000041CH   SYMBOL    EDATA    CHAR      end
      0000041DH   SYMBOL    EDATA    CHAR      point
      000007F7H   SYMBOL    EDATA    ---       p
      000007FBH   SYMBOL    EDATA    INT       i
      000007FDH   SYMBOL    EDATA    INT       j
      000007FFH   SYMBOL    EDATA    INT       k
      00000801H   SYMBOL    EDATA    BYTE      picH
      00000802H   SYMBOL    EDATA    BYTE      picL

      ---         MODULE    ---      ---       SEEKFREE_BLUETOOTH_CH9141
      00FF823CH   PUBLIC    CODE     ---       bluetooth_ch9141_uart_callback
      000000D0H   SFRSYM    DATA     BYTE      PSW
      0000009DH   SFRSYM    DATA     BYTE      IRCBAND
      00000097H   SFRSYM    DATA     BYTE      AUXR2
      000000EFH   SFRSYM    DATA     BYTE      AUXINTIF
      000000FDH   SFRSYM    DATA     BYTE      S4CON
      000000ACH   SFRSYM    DATA     BYTE      S3CON
      0000009AH   SFRSYM    DATA     BYTE      S2CON
      000000FEH   SFRSYM    DATA     BYTE      S4BUF
      000000B7H   SFRSYM    DATA     BYTE      IPH
      000000CDH   SFRSYM    DATA     BYTE      SPSTAT
      000000DDH   SFRSYM    DATA     BYTE      T4T3M
      000000C1H   SFRSYM    DATA     BYTE      WDT_CONTR
      000000DFH   SFRSYM    DATA     BYTE      IP3
      000000F4H   SFRSYM    DATA     BYTE      USBCON
L251 LINKER/LOCATER V4.66.93.0                                                        10/07/2023  15:37:24  PAGE 55


      000000B5H   SFRSYM    DATA     BYTE      IP2
      000000FFH   SFRSYM    DATA     BYTE      RSTCFG
      000000F9H   SFRSYM    DATA     BYTE      LINICR
      0000008EH   SFRSYM    DATA     BYTE      AUXR
      000000AFH   SFRSYM    DATA     BYTE      IE2
      00000080H.7 SFRSYM    DATA     BIT       P07
      00000088H   SFRSYM    DATA     BYTE      TCON
      00000098H   SFRSYM    DATA     BYTE      SCON
      000000F1H   SFRSYM    DATA     BYTE      CANICR
      00000087H   SFRSYM    DATA     BYTE      PCON
      000000BCH   SFRSYM    DATA     BYTE      ADC_CONTR
      000000E7H   SFRSYM    DATA     BYTE      CMPCR2
      000000E6H   SFRSYM    DATA     BYTE      CMPCR1
      000000B8H   SFRSYM    DATA     BYTE      IP
      0000008FH   SFRSYM    DATA     BYTE      INTCLKO
      000000EEH   SFRSYM    DATA     BYTE      IP3H
      000000B6H   SFRSYM    DATA     BYTE      IP2H
      000000A8H   SFRSYM    DATA     BYTE      IE
      000000BBH   SFRSYM    DATA     BYTE      P_SW3
      000000BAH   SFRSYM    DATA     BYTE      P_SW2
      000000A2H   SFRSYM    DATA     BYTE      P_SW1
      000000CEH   SFRSYM    DATA     BYTE      SPCTL
      000000F8H   SFRSYM    DATA     BYTE      P7
      000000E8H   SFRSYM    DATA     BYTE      P6
      000000C8H   SFRSYM    DATA     BYTE      P5
      000000C0H   SFRSYM    DATA     BYTE      P4
      000000B0H   SFRSYM    DATA     BYTE      P3
      000000A0H   SFRSYM    DATA     BYTE      P2
      00000090H   SFRSYM    DATA     BYTE      P1
      00000080H   SFRSYM    DATA     BYTE      P0
      0000027DH   SYMBOL    EDATA    ---       bluetooth_ch9141_buffer
      000002BDH   SYMBOL    EDATA    BYTE      bluetooth_ch9141_data
      000002BEH   SYMBOL    EDATA    ---       bluetooth_ch9141_fifo

      00FF823CH   BLOCK     CODE     ---       LVL=0
      00FF823CH   LINE      CODE     ---       #67
      00FF823CH   LINE      CODE     ---       #70
      00FF8242H   LINE      CODE     ---       #71
      00FF8255H   LINE      CODE     ---       #72
      ---         BLOCKEND  ---      ---       LVL=0
      000008FFH   SYMBOL    EDATA    ---       buff
      00000903H   SYMBOL    EDATA    DWORD     len
      00000907H   SYMBOL    EDATA    WORD      time_count
      00000803H   SYMBOL    EDATA    ---       buff
      00000807H   SYMBOL    EDATA    DWORD     len
      0000080BH   SYMBOL    EDATA    DWORD     data_len

      ---         MODULE    ---      ---       SEEKFREE_DL1A
      00000BDBH   PUBLIC    EDATA    WORD      dl1a_distance_mm
      00000BDDH   PUBLIC    EDATA    BYTE      dl1a_finsh_flag
      000000D0H   SFRSYM    DATA     BYTE      PSW
      0000009DH   SFRSYM    DATA     BYTE      IRCBAND
      00000097H   SFRSYM    DATA     BYTE      AUXR2
      000000EFH   SFRSYM    DATA     BYTE      AUXINTIF
      000000FDH   SFRSYM    DATA     BYTE      S4CON
      000000ACH   SFRSYM    DATA     BYTE      S3CON
      0000009AH   SFRSYM    DATA     BYTE      S2CON
      000000B7H   SFRSYM    DATA     BYTE      IPH
      000000CDH   SFRSYM    DATA     BYTE      SPSTAT
      000000DDH   SFRSYM    DATA     BYTE      T4T3M
      000000C1H   SFRSYM    DATA     BYTE      WDT_CONTR
      000000DFH   SFRSYM    DATA     BYTE      IP3
      000000F4H   SFRSYM    DATA     BYTE      USBCON
      000000B5H   SFRSYM    DATA     BYTE      IP2
      000000FFH   SFRSYM    DATA     BYTE      RSTCFG
L251 LINKER/LOCATER V4.66.93.0                                                        10/07/2023  15:37:24  PAGE 56


      000000F9H   SFRSYM    DATA     BYTE      LINICR
      0000008EH   SFRSYM    DATA     BYTE      AUXR
      000000AFH   SFRSYM    DATA     BYTE      IE2
      000000C0H.7 SFRSYM    DATA     BIT       P47
      000000E8H.5 SFRSYM    DATA     BIT       P65
      000000E8H.3 SFRSYM    DATA     BIT       P63
      00000088H   SFRSYM    DATA     BYTE      TCON
      00000098H   SFRSYM    DATA     BYTE      SCON
      000000F1H   SFRSYM    DATA     BYTE      CANICR
      00000087H   SFRSYM    DATA     BYTE      PCON
      000000BCH   SFRSYM    DATA     BYTE      ADC_CONTR
      000000E7H   SFRSYM    DATA     BYTE      CMPCR2
      000000E6H   SFRSYM    DATA     BYTE      CMPCR1
      000000B8H   SFRSYM    DATA     BYTE      IP
      0000008FH   SFRSYM    DATA     BYTE      INTCLKO
      000000EEH   SFRSYM    DATA     BYTE      IP3H
      000000B6H   SFRSYM    DATA     BYTE      IP2H
      000000A8H   SFRSYM    DATA     BYTE      IE
      000000BBH   SFRSYM    DATA     BYTE      P_SW3
      000000BAH   SFRSYM    DATA     BYTE      P_SW2
      000000A2H   SFRSYM    DATA     BYTE      P_SW1
      000000CEH   SFRSYM    DATA     BYTE      SPCTL
      000000F8H   SFRSYM    DATA     BYTE      P7
      000000E8H   SFRSYM    DATA     BYTE      P6
      000000C8H   SFRSYM    DATA     BYTE      P5
      000000C0H   SFRSYM    DATA     BYTE      P4
      000000B0H   SFRSYM    DATA     BYTE      P3
      000000A0H   SFRSYM    DATA     BYTE      P2
      00000090H   SFRSYM    DATA     BYTE      P1
      00000080H   SFRSYM    DATA     BYTE      P0
      00FF8017H   SYMBOL    CODE     ---       dl1a_simiic_sendack
      00FF79DAH   SYMBOL    CODE     ---       dl1a_timeout_microseconds_to_mclks
      00FF7987H   SYMBOL    CODE     ---       dl1a_timeout_mclks_to_microseconds
      00FF73BDH   SYMBOL    CODE     ---       dl1a_read_ch
      00FF7FC3H   SYMBOL    CODE     ---       dl1a_decode_timeout
      00FF7C43H   SYMBOL    CODE     ---       dl1a_send_ch
      00FF708FH   SYMBOL    CODE     ---       dl1a_encode_timeout
      00FF7001H   SYMBOL    CODE     ---       dl1a_get_sequence_step_enables
      00FF8142H   SYMBOL    CODE     ---       dl1a_sccb_waitack
      00FF0026H   SYMBOL    CODE     ---       dl1a_simiic_delay
      00FF64D2H   SYMBOL    CODE     ---       dl1a_get_sequence_step_timeouts
      00FF837AH   SYMBOL    CODE     ---       dl1a_simiic_start
      00FF7491H   SYMBOL    CODE     ---       dl1a_simiic_read_regs
      00FF7D60H   SYMBOL    CODE     ---       dl1a_simiic_write_dats
      00FF82BCH   SYMBOL    CODE     ---       dl1a_simiic_stop
      00FF710EH   SYMBOL    CODE     ---       dl1a_get_vcsel_pulse_period

      00FF0026H   BLOCK     CODE     ---       LVL=0
      00000C19H   SYMBOL    EDATA    WORD      j
      00FF0026H   LINE      CODE     ---       #59
      00FF0026H   LINE      CODE     ---       #60
      00FF0026H   LINE      CODE     ---       #61
      00FF002CH   LINE      CODE     ---       #62
      00FF0042H   LINE      CODE     ---       #63
      ---         BLOCKEND  ---      ---       LVL=0

      00FF837AH   BLOCK     CODE     ---       LVL=0
      00FF837AH   LINE      CODE     ---       #66
      00FF837AH   LINE      CODE     ---       #68
      00FF837DH   LINE      CODE     ---       #69
      00FF8380H   LINE      CODE     ---       #70
      00FF8383H   LINE      CODE     ---       #71
      00FF8386H   LINE      CODE     ---       #72
      00FF8389H   LINE      CODE     ---       #73
      00FF838CH   LINE      CODE     ---       #74
L251 LINKER/LOCATER V4.66.93.0                                                        10/07/2023  15:37:24  PAGE 57


      ---         BLOCKEND  ---      ---       LVL=0

      00FF82BCH   BLOCK     CODE     ---       LVL=0
      00FF82BCH   LINE      CODE     ---       #77
      00FF82BCH   LINE      CODE     ---       #79
      00FF82BFH   LINE      CODE     ---       #80
      00FF82C2H   LINE      CODE     ---       #81
      00FF82C5H   LINE      CODE     ---       #82
      00FF82C8H   LINE      CODE     ---       #83
      00FF82CBH   LINE      CODE     ---       #84
      00FF82CEH   LINE      CODE     ---       #85
      00FF82D1H   LINE      CODE     ---       #86
      ---         BLOCKEND  ---      ---       LVL=0

      00FF8017H   BLOCK     CODE     ---       LVL=0
      00000C59H   SYMBOL    EDATA    BYTE      ack_dat
      00FF8017H   LINE      CODE     ---       #90
      00FF801BH   LINE      CODE     ---       #92
      00FF801EH   LINE      CODE     ---       #93
      00FF8021H   LINE      CODE     ---       #94
      00FF802FH   LINE      CODE     ---       #95
      00FF8032H   LINE      CODE     ---       #97
      00FF8035H   LINE      CODE     ---       #98
      00FF8038H   LINE      CODE     ---       #99
      00FF803BH   LINE      CODE     ---       #100
      00FF803EH   LINE      CODE     ---       #101
      ---         BLOCKEND  ---      ---       LVL=0

      00FF8142H   BLOCK     CODE     ---       LVL=0
      00FF8142H   LINE      CODE     ---       #104
      00FF8142H   LINE      CODE     ---       #106
      00FF8145H   LINE      CODE     ---       #108
      00FF8148H   LINE      CODE     ---       #110
      00FF814BH   LINE      CODE     ---       #111
      00FF814EH   LINE      CODE     ---       #113
      00FF8151H   LINE      CODE     ---       #116
      00FF8154H   LINE      CODE     ---       #117
      00FF8158H   LINE      CODE     ---       #118
      00FF8158H   LINE      CODE     ---       #120
      00FF815BH   LINE      CODE     ---       #121
      00FF815EH   LINE      CODE     ---       #122
      00FF8162H   LINE      CODE     ---       #123
      ---         BLOCKEND  ---      ---       LVL=0

      00FF7C43H   BLOCK     CODE     ---       LVL=0
      00000C1BH   SYMBOL    EDATA    BYTE      c
      00FF7C47H   BLOCK     CODE     NEAR LAB  LVL=1
      00000C1CH   SYMBOL    EDATA    BYTE      i
      ---         BLOCKEND  ---      ---       LVL=1
      00FF7C43H   LINE      CODE     ---       #129
      00FF7C47H   LINE      CODE     ---       #130
      00FF7C47H   LINE      CODE     ---       #131
      00FF7C4DH   LINE      CODE     ---       #132
      00FF7C4FH   LINE      CODE     ---       #134
      00FF7C5BH   LINE      CODE     ---       #135
      00FF7C5EH   LINE      CODE     ---       #136
      00FF7C68H   LINE      CODE     ---       #137
      00FF7C6BH   LINE      CODE     ---       #138
      00FF7C6EH   LINE      CODE     ---       #139
      00FF7C71H   LINE      CODE     ---       #140
      00FF7C74H   LINE      CODE     ---       #141
      00FF7C88H   LINE      CODE     ---       #142
      00FF7C8BH   LINE      CODE     ---       #143
      ---         BLOCKEND  ---      ---       LVL=0

L251 LINKER/LOCATER V4.66.93.0                                                        10/07/2023  15:37:24  PAGE 58


      00FF73BDH   BLOCK     CODE     ---       LVL=0
      00000BDEH   SYMBOL    EDATA    BYTE      ack_x
      00FF73C1H   BLOCK     CODE     NEAR LAB  LVL=1
      00000BDFH   SYMBOL    EDATA    BYTE      i
      00000BE0H   SYMBOL    EDATA    BYTE      c
      ---         BLOCKEND  ---      ---       LVL=1
      00FF73BDH   LINE      CODE     ---       #149
      00FF73C1H   LINE      CODE     ---       #150
      00FF73C1H   LINE      CODE     ---       #153
      00FF73C6H   LINE      CODE     ---       #154
      00FF73C9H   LINE      CODE     ---       #155
      00FF73CCH   LINE      CODE     ---       #156
      00FF73CFH   LINE      CODE     ---       #158
      00FF73D6H   LINE      CODE     ---       #160
      00FF73D9H   LINE      CODE     ---       #161
      00FF73DCH   LINE      CODE     ---       #162
      00FF73DFH   LINE      CODE     ---       #163
      00FF73E2H   LINE      CODE     ---       #164
      00FF73E5H   LINE      CODE     ---       #165
      00FF73EFH   LINE      CODE     ---       #166
      00FF73F2H   LINE      CODE     ---       #168
      00FF73FEH   LINE      CODE     ---       #169
      00FF7415H   LINE      CODE     ---       #172
      00FF7418H   LINE      CODE     ---       #173
      00FF741BH   LINE      CODE     ---       #174
      00FF7422H   LINE      CODE     ---       #176
      00FF7426H   LINE      CODE     ---       #177
      ---         BLOCKEND  ---      ---       LVL=0

      00FF7D60H   BLOCK     CODE     ---       LVL=0
      00000969H   SYMBOL    EDATA    BYTE      dev_add
      0000096AH   SYMBOL    EDATA    ---       dat
      0000096EH   SYMBOL    EDATA    DWORD     len
      00FF7D60H   LINE      CODE     ---       #189
      00FF7D6CH   LINE      CODE     ---       #191
      00FF7D6FH   LINE      CODE     ---       #192
      00FF7D78H   LINE      CODE     ---       #193
      00FF7D7AH   LINE      CODE     ---       #195
      00FF7D8AH   LINE      CODE     ---       #196
      00FF7D9EH   LINE      CODE     ---       #199
      00FF7DA1H   LINE      CODE     ---       #200
      ---         BLOCKEND  ---      ---       LVL=0
      00000BE1H   SYMBOL    EDATA    BYTE      dev_add
      00000BE2H   SYMBOL    EDATA    BYTE      reg
      00000BE3H   SYMBOL    EDATA    BYTE      dat
      00000BE4H   SYMBOL    EDATA    BYTE      dev_add
      00000BE5H   SYMBOL    EDATA    BYTE      reg
      00000BE6H   SYMBOL    EDATA    BYTE      dat

      00FF7491H   BLOCK     CODE     ---       LVL=0
      00000909H   SYMBOL    EDATA    BYTE      dev_add
      0000090AH   SYMBOL    EDATA    BYTE      reg
      0000090BH   SYMBOL    EDATA    ---       dat_add
      0000090FH   SYMBOL    EDATA    DWORD     num
      00FF7491H   LINE      CODE     ---       #257
      00FF749DH   LINE      CODE     ---       #259
      00FF74A0H   LINE      CODE     ---       #260
      00FF74A9H   LINE      CODE     ---       #261
      00FF74B0H   LINE      CODE     ---       #264
      00FF74B3H   LINE      CODE     ---       #265
      00FF74C0H   LINE      CODE     ---       #266
      00FF74C2H   LINE      CODE     ---       #268
      00FF74CEH   LINE      CODE     ---       #269
      00FF74D8H   LINE      CODE     ---       #270
      00FF74EAH   LINE      CODE     ---       #271
L251 LINKER/LOCATER V4.66.93.0                                                        10/07/2023  15:37:24  PAGE 59


      00FF74F5H   LINE      CODE     ---       #272
      00FF74F8H   LINE      CODE     ---       #273
      ---         BLOCKEND  ---      ---       LVL=0
      00000913H   SYMBOL    EDATA    BYTE      dev_add
      00000914H   SYMBOL    EDATA    BYTE      reg
      00000915H   SYMBOL    EDATA    ---       dat_add
      00000919H   SYMBOL    EDATA    DWORD     num
      0000080FH   SYMBOL    EDATA    ---       index
      00000813H   SYMBOL    EDATA    ---       type_is_aperture
      00000817H   SYMBOL    EDATA    BYTE      tmp
      00000818H   SYMBOL    EDATA    BYTE      return_state
      00000819H   SYMBOL    EDATA    WORD      loop_count

      00FF7987H   BLOCK     CODE     ---       LVL=0
      00000A93H   SYMBOL    EDATA    WORD      timeout_period_mclks
      00000A95H   SYMBOL    EDATA    BYTE      vcsel_period_pclks
      00FF798FH   BLOCK     CODE     NEAR LAB  LVL=1
      00000A96H   SYMBOL    EDATA    DWORD     macro_period_ns
      ---         BLOCKEND  ---      ---       LVL=1
      00FF7987H   LINE      CODE     ---       #401
      00FF798FH   LINE      CODE     ---       #402
      00FF798FH   LINE      CODE     ---       #403
      00FF79B6H   LINE      CODE     ---       #405
      00FF79D9H   LINE      CODE     ---       #406
      ---         BLOCKEND  ---      ---       LVL=0

      00FF79DAH   BLOCK     CODE     ---       LVL=0
      00000972H   SYMBOL    EDATA    DWORD     timeout_period_us
      00000976H   SYMBOL    EDATA    BYTE      vcsel_period_pclks
      00FF79E2H   BLOCK     CODE     NEAR LAB  LVL=1
      00000977H   SYMBOL    EDATA    DWORD     macro_period_ns
      ---         BLOCKEND  ---      ---       LVL=1
      00FF79DAH   LINE      CODE     ---       #416
      00FF79E2H   LINE      CODE     ---       #417
      00FF79E2H   LINE      CODE     ---       #418
      00FF7A09H   LINE      CODE     ---       #420
      00FF7A2AH   LINE      CODE     ---       #421
      ---         BLOCKEND  ---      ---       LVL=0

      00FF7FC3H   BLOCK     CODE     ---       LVL=0
      00000C1DH   SYMBOL    EDATA    WORD      reg_val
      00FF7FC3H   LINE      CODE     ---       #430
      00FF7FC7H   LINE      CODE     ---       #433
      00FF7FECH   LINE      CODE     ---       #435
      ---         BLOCKEND  ---      ---       LVL=0

      00FF708FH   BLOCK     CODE     ---       LVL=0
      0000091DH   SYMBOL    EDATA    WORD      timeout_mclks
      00FF7093H   BLOCK     CODE     NEAR LAB  LVL=1
      0000091FH   SYMBOL    EDATA    DWORD     ls_byte
      00000923H   SYMBOL    EDATA    WORD      ms_byte
      00000925H   SYMBOL    EDATA    WORD      return_data
      ---         BLOCKEND  ---      ---       LVL=1
      00FF708FH   LINE      CODE     ---       #444
      00FF7093H   LINE      CODE     ---       #445
      00FF7093H   LINE      CODE     ---       #446
      00FF7099H   LINE      CODE     ---       #447
      00FF709FH   LINE      CODE     ---       #448
      00FF70A5H   LINE      CODE     ---       #450
      00FF70AFH   LINE      CODE     ---       #453
      00FF70BFH   LINE      CODE     ---       #454
      00FF70C1H   LINE      CODE     ---       #456
      00FF70D2H   LINE      CODE     ---       #457
      00FF70E0H   LINE      CODE     ---       #458
      00FF70F1H   LINE      CODE     ---       #459
L251 LINKER/LOCATER V4.66.93.0                                                        10/07/2023  15:37:24  PAGE 60


      00FF7109H   LINE      CODE     ---       #460
      00FF7109H   LINE      CODE     ---       #461
      00FF710DH   LINE      CODE     ---       #462
      ---         BLOCKEND  ---      ---       LVL=0

      00FF7001H   BLOCK     CODE     ---       LVL=0
      00000B5DH   SYMBOL    EDATA    ---       enables
      00FF7005H   BLOCK     CODE     NEAR LAB  LVL=1
      00000B61H   SYMBOL    EDATA    BYTE      sequence_config
      ---         BLOCKEND  ---      ---       LVL=1
      00FF7001H   LINE      CODE     ---       #471
      00FF7005H   LINE      CODE     ---       #472
      00FF7005H   LINE      CODE     ---       #473
      00FF700AH   LINE      CODE     ---       #474
      00FF701EH   LINE      CODE     ---       #476
      00FF7032H   LINE      CODE     ---       #477
      00FF7049H   LINE      CODE     ---       #478
      00FF705FH   LINE      CODE     ---       #479
      00FF7078H   LINE      CODE     ---       #480
      00FF708EH   LINE      CODE     ---       #481
      ---         BLOCKEND  ---      ---       LVL=0

      00FF710EH   BLOCK     CODE     ---       LVL=0
      00000BE7H   SYMBOL    EDATA    INT       type
      00FF7112H   BLOCK     CODE     NEAR LAB  LVL=1
      00000BE9H   SYMBOL    EDATA    BYTE      data_buffer
      ---         BLOCKEND  ---      ---       LVL=1
      00FF710EH   LINE      CODE     ---       #490
      00FF7112H   LINE      CODE     ---       #491
      00FF7112H   LINE      CODE     ---       #492
      00FF7117H   LINE      CODE     ---       #493
      00FF7121H   LINE      CODE     ---       #495
      00FF7135H   LINE      CODE     ---       #496
      00FF7147H   LINE      CODE     ---       #497
      00FF7149H   LINE      CODE     ---       #498
      00FF7155H   LINE      CODE     ---       #500
      00FF7169H   LINE      CODE     ---       #501
      00FF717BH   LINE      CODE     ---       #502
      00FF717DH   LINE      CODE     ---       #505
      00FF7183H   LINE      CODE     ---       #506
      00FF7183H   LINE      CODE     ---       #507
      00FF7187H   LINE      CODE     ---       #508
      ---         BLOCKEND  ---      ---       LVL=0

      00FF64D2H   BLOCK     CODE     ---       LVL=0
      0000081BH   SYMBOL    EDATA    ---       enables
      0000081FH   SYMBOL    EDATA    ---       timeouts
      00FF64DAH   BLOCK     CODE     NEAR LAB  LVL=1
      00000823H   SYMBOL    EDATA    ---       reg_buffer
      00000825H   SYMBOL    EDATA    WORD      reg16_buffer
      ---         BLOCKEND  ---      ---       LVL=1
      00FF64D2H   LINE      CODE     ---       #518
      00FF64DAH   LINE      CODE     ---       #519
      00FF64DAH   LINE      CODE     ---       #521
      00FF64E0H   LINE      CODE     ---       #523
      00FF64EEH   LINE      CODE     ---       #525
      00FF6502H   LINE      CODE     ---       #526
      00FF6517H   LINE      CODE     ---       #527
      00FF653BH   LINE      CODE     ---       #529
      00FF654FH   LINE      CODE     ---       #530
      00FF6565H   LINE      CODE     ---       #531
      00FF6575H   LINE      CODE     ---       #532
      00FF659BH   LINE      CODE     ---       #534
      00FF65ADH   LINE      CODE     ---       #536
      00FF65C1H   LINE      CODE     ---       #537
L251 LINKER/LOCATER V4.66.93.0                                                        10/07/2023  15:37:24  PAGE 61


      00FF65D7H   LINE      CODE     ---       #538
      00FF65E7H   LINE      CODE     ---       #540
      00FF65F7H   LINE      CODE     ---       #542
      00FF6612H   LINE      CODE     ---       #543
      00FF6612H   LINE      CODE     ---       #545
      00FF663AH   LINE      CODE     ---       #546
      ---         BLOCKEND  ---      ---       LVL=0
      00000B62H   SYMBOL    EDATA    BYTE      vhv_init_byte
      00000B63H   SYMBOL    EDATA    BYTE      return_state
      00000B64H   SYMBOL    EDATA    BYTE      data_buffer
      00000B65H   SYMBOL    EDATA    WORD      loop_count
      000004DEH   SYMBOL    EDATA    DWORD     budget_us
      000004E2H   SYMBOL    EDATA    BYTE      return_state
      000004E3H   SYMBOL    EDATA    ---       data_buffer
      000004E6H   SYMBOL    EDATA    WORD      dat
      000004E8H   SYMBOL    EDATA    DWORD     used_budget_us
      000004ECH   SYMBOL    EDATA    DWORD     final_range_timeout_us
      000004F0H   SYMBOL    EDATA    WORD      final_range_timeout_mclks
      000004F2H   SYMBOL    EDATA    ---       enables
      000004F7H   SYMBOL    EDATA    ---       timeouts
      0000065AH   SYMBOL    EDATA    ---       enables
      0000065FH   SYMBOL    EDATA    ---       timeouts
      00000675H   SYMBOL    EDATA    DWORD     budget_us
      0000097BH   SYMBOL    EDATA    FLOAT     limit_mcps
      0000097FH   SYMBOL    EDATA    ---       data_buffer
      00000982H   SYMBOL    EDATA    WORD      limit_mcps_16bit
      00000BEAH   SYMBOL    EDATA    ---       reg_databuffer
      00000679H   SYMBOL    EDATA    DWORD     measurement_timing_budget_us
      0000067DH   SYMBOL    EDATA    BYTE      stop_variable
      0000067EH   SYMBOL    EDATA    BYTE      return_state
      0000067FH   SYMBOL    EDATA    BYTE      reg_data_buffer
      00000680H   SYMBOL    EDATA    ---       ref_spad_map
      00000686H   SYMBOL    EDATA    ---       data_buffer
      0000068DH   SYMBOL    EDATA    BYTE      i

      ---         MODULE    ---      ---       SEEKFREE_DL1B
      00000BAEH   PUBLIC    EDATA    WORD      dl1b_distance_mm
      00000BB0H   PUBLIC    EDATA    BYTE      dl1b_finsh_flag
      00000BB1H   PUBLIC    EDATA    BYTE      dl1b_init_flag
      0000074BH   PUBLIC    EDATA    BYTE      ?dl1b_iic_transfer_8bit_array?BYTE
      000000D0H   SFRSYM    DATA     BYTE      PSW
      0000009DH   SFRSYM    DATA     BYTE      IRCBAND
      00000097H   SFRSYM    DATA     BYTE      AUXR2
      000000EFH   SFRSYM    DATA     BYTE      AUXINTIF
      000000FDH   SFRSYM    DATA     BYTE      S4CON
      000000ACH   SFRSYM    DATA     BYTE      S3CON
      0000009AH   SFRSYM    DATA     BYTE      S2CON
      000000B7H   SFRSYM    DATA     BYTE      IPH
      000000CDH   SFRSYM    DATA     BYTE      SPSTAT
      000000DDH   SFRSYM    DATA     BYTE      T4T3M
      000000C1H   SFRSYM    DATA     BYTE      WDT_CONTR
      000000DFH   SFRSYM    DATA     BYTE      IP3
      000000F4H   SFRSYM    DATA     BYTE      USBCON
      000000B5H   SFRSYM    DATA     BYTE      IP2
      000000FFH   SFRSYM    DATA     BYTE      RSTCFG
      000000F9H   SFRSYM    DATA     BYTE      LINICR
      0000008EH   SFRSYM    DATA     BYTE      AUXR
      000000AFH   SFRSYM    DATA     BYTE      IE2
      000000C0H.7 SFRSYM    DATA     BIT       P47
      000000E8H.5 SFRSYM    DATA     BIT       P65
      000000E8H.3 SFRSYM    DATA     BIT       P63
      00000088H   SFRSYM    DATA     BYTE      TCON
      00000098H   SFRSYM    DATA     BYTE      SCON
      000000F1H   SFRSYM    DATA     BYTE      CANICR
      00000087H   SFRSYM    DATA     BYTE      PCON
L251 LINKER/LOCATER V4.66.93.0                                                        10/07/2023  15:37:24  PAGE 62


      000000BCH   SFRSYM    DATA     BYTE      ADC_CONTR
      000000E7H   SFRSYM    DATA     BYTE      CMPCR2
      000000E6H   SFRSYM    DATA     BYTE      CMPCR1
      000000B8H   SFRSYM    DATA     BYTE      IP
      0000008FH   SFRSYM    DATA     BYTE      INTCLKO
      000000EEH   SFRSYM    DATA     BYTE      IP3H
      000000B6H   SFRSYM    DATA     BYTE      IP2H
      000000A8H   SFRSYM    DATA     BYTE      IE
      000000BBH   SFRSYM    DATA     BYTE      P_SW3
      000000BAH   SFRSYM    DATA     BYTE      P_SW2
      000000A2H   SFRSYM    DATA     BYTE      P_SW1
      000000CEH   SFRSYM    DATA     BYTE      SPCTL
      000000F8H   SFRSYM    DATA     BYTE      P7
      000000E8H   SFRSYM    DATA     BYTE      P6
      000000C8H   SFRSYM    DATA     BYTE      P5
      000000C0H   SFRSYM    DATA     BYTE      P4
      000000B0H   SFRSYM    DATA     BYTE      P3
      000000A0H   SFRSYM    DATA     BYTE      P2
      00000090H   SFRSYM    DATA     BYTE      P1
      00000080H   SFRSYM    DATA     BYTE      P0
      00FF803FH   SYMBOL    CODE     ---       dl1b_simiic_sendack
      00FF7427H   SYMBOL    CODE     ---       dl1b_read_ch
      00FF7C8CH   SYMBOL    CODE     ---       dl1b_send_ch
      00FF8163H   SYMBOL    CODE     ---       dl1b_sccb_waitack
      00FF0066H   SYMBOL    CODE     ---       dl1b_simiic_delay

      00FF0066H   BLOCK     CODE     ---       LVL=0
      00000C1FH   SYMBOL    EDATA    WORD      j
      00FF0066H   LINE      CODE     ---       #76
      00FF0066H   LINE      CODE     ---       #77
      00FF0066H   LINE      CODE     ---       #78
      00FF006CH   LINE      CODE     ---       #79
      00FF0082H   LINE      CODE     ---       #80
      ---         BLOCKEND  ---      ---       LVL=0

      00FF803FH   BLOCK     CODE     ---       LVL=0
      00000C5AH   SYMBOL    EDATA    BYTE      ack_dat
      00FF803FH   LINE      CODE     ---       #107
      00FF8043H   LINE      CODE     ---       #109
      00FF8046H   LINE      CODE     ---       #110
      00FF8049H   LINE      CODE     ---       #111
      00FF8057H   LINE      CODE     ---       #112
      00FF805AH   LINE      CODE     ---       #114
      00FF805DH   LINE      CODE     ---       #115
      00FF8060H   LINE      CODE     ---       #116
      00FF8063H   LINE      CODE     ---       #117
      00FF8066H   LINE      CODE     ---       #118
      ---         BLOCKEND  ---      ---       LVL=0

      00FF8163H   BLOCK     CODE     ---       LVL=0
      00FF8163H   LINE      CODE     ---       #121
      00FF8163H   LINE      CODE     ---       #123
      00FF8166H   LINE      CODE     ---       #125
      00FF8169H   LINE      CODE     ---       #127
      00FF816CH   LINE      CODE     ---       #128
      00FF816FH   LINE      CODE     ---       #130
      00FF8172H   LINE      CODE     ---       #133
      00FF8175H   LINE      CODE     ---       #134
      00FF8179H   LINE      CODE     ---       #135
      00FF8179H   LINE      CODE     ---       #137
      00FF817CH   LINE      CODE     ---       #138
      00FF817FH   LINE      CODE     ---       #139
      00FF8183H   LINE      CODE     ---       #140
      ---         BLOCKEND  ---      ---       LVL=0

L251 LINKER/LOCATER V4.66.93.0                                                        10/07/2023  15:37:24  PAGE 63


      00FF7C8CH   BLOCK     CODE     ---       LVL=0
      00000C21H   SYMBOL    EDATA    BYTE      c
      00FF7C90H   BLOCK     CODE     NEAR LAB  LVL=1
      00000C22H   SYMBOL    EDATA    BYTE      i
      ---         BLOCKEND  ---      ---       LVL=1
      00FF7C8CH   LINE      CODE     ---       #146
      00FF7C90H   LINE      CODE     ---       #147
      00FF7C90H   LINE      CODE     ---       #148
      00FF7C96H   LINE      CODE     ---       #149
      00FF7C98H   LINE      CODE     ---       #151
      00FF7CA4H   LINE      CODE     ---       #152
      00FF7CA7H   LINE      CODE     ---       #153
      00FF7CB1H   LINE      CODE     ---       #154
      00FF7CB4H   LINE      CODE     ---       #155
      00FF7CB7H   LINE      CODE     ---       #156
      00FF7CBAH   LINE      CODE     ---       #157
      00FF7CBDH   LINE      CODE     ---       #158
      00FF7CD1H   LINE      CODE     ---       #159
      00FF7CD4H   LINE      CODE     ---       #160
      ---         BLOCKEND  ---      ---       LVL=0

      00FF7427H   BLOCK     CODE     ---       LVL=0
      00000BEDH   SYMBOL    EDATA    BYTE      ack_x
      00FF742BH   BLOCK     CODE     NEAR LAB  LVL=1
      00000BEEH   SYMBOL    EDATA    BYTE      i
      00000BEFH   SYMBOL    EDATA    BYTE      c
      ---         BLOCKEND  ---      ---       LVL=1
      00FF7427H   LINE      CODE     ---       #166
      00FF742BH   LINE      CODE     ---       #167
      00FF742BH   LINE      CODE     ---       #170
      00FF7430H   LINE      CODE     ---       #171
      00FF7433H   LINE      CODE     ---       #172
      00FF7436H   LINE      CODE     ---       #173
      00FF7439H   LINE      CODE     ---       #175
      00FF7440H   LINE      CODE     ---       #177
      00FF7443H   LINE      CODE     ---       #178
      00FF7446H   LINE      CODE     ---       #179
      00FF7449H   LINE      CODE     ---       #180
      00FF744CH   LINE      CODE     ---       #181
      00FF744FH   LINE      CODE     ---       #182
      00FF7459H   LINE      CODE     ---       #183
      00FF745CH   LINE      CODE     ---       #185
      00FF7468H   LINE      CODE     ---       #186
      00FF747FH   LINE      CODE     ---       #189
      00FF7482H   LINE      CODE     ---       #190
      00FF7485H   LINE      CODE     ---       #191
      00FF748CH   LINE      CODE     ---       #193
      00FF7490H   LINE      CODE     ---       #194
      ---         BLOCKEND  ---      ---       LVL=0
      0000074BH   SYMBOL    EDATA    ---       write_data
      0000074FH   SYMBOL    EDATA    DWORD     write_len
      00000753H   SYMBOL    EDATA    ---       read_data
      00000757H   SYMBOL    EDATA    DWORD     read_len
      00000B67H   SYMBOL    EDATA    ---       data_buffer
      00000B6AH   SYMBOL    EDATA    INT       dl1b_distance_temp
      00000192H   SYMBOL    EDATA    BYTE      return_state
      00000193H   SYMBOL    EDATA    ---       data_buffer
      0000021CH   SYMBOL    EDATA    WORD      time_out_count

      ---         MODULE    ---      ---       SEEKFREE_FONT
      00FF212DH   PUBLIC    CODE     ---       oled_8x16
      00FF271DH   PUBLIC    CODE     ---       tft_ascii
      00FF2D0DH   PUBLIC    CODE     ---       oled_6x8
      000000D0H   SFRSYM    DATA     BYTE      PSW
      0000009DH   SFRSYM    DATA     BYTE      IRCBAND
L251 LINKER/LOCATER V4.66.93.0                                                        10/07/2023  15:37:24  PAGE 64


      00000097H   SFRSYM    DATA     BYTE      AUXR2
      000000EFH   SFRSYM    DATA     BYTE      AUXINTIF
      000000FDH   SFRSYM    DATA     BYTE      S4CON
      000000ACH   SFRSYM    DATA     BYTE      S3CON
      0000009AH   SFRSYM    DATA     BYTE      S2CON
      000000B7H   SFRSYM    DATA     BYTE      IPH
      000000CDH   SFRSYM    DATA     BYTE      SPSTAT
      000000DDH   SFRSYM    DATA     BYTE      T4T3M
      000000C1H   SFRSYM    DATA     BYTE      WDT_CONTR
      000000DFH   SFRSYM    DATA     BYTE      IP3
      000000F4H   SFRSYM    DATA     BYTE      USBCON
      000000B5H   SFRSYM    DATA     BYTE      IP2
      000000FFH   SFRSYM    DATA     BYTE      RSTCFG
      000000F9H   SFRSYM    DATA     BYTE      LINICR
      0000008EH   SFRSYM    DATA     BYTE      AUXR
      000000AFH   SFRSYM    DATA     BYTE      IE2
      00000088H   SFRSYM    DATA     BYTE      TCON
      00000098H   SFRSYM    DATA     BYTE      SCON
      000000F1H   SFRSYM    DATA     BYTE      CANICR
      00000087H   SFRSYM    DATA     BYTE      PCON
      000000BCH   SFRSYM    DATA     BYTE      ADC_CONTR
      000000E7H   SFRSYM    DATA     BYTE      CMPCR2
      000000E6H   SFRSYM    DATA     BYTE      CMPCR1
      000000B8H   SFRSYM    DATA     BYTE      IP
      0000008FH   SFRSYM    DATA     BYTE      INTCLKO
      000000EEH   SFRSYM    DATA     BYTE      IP3H
      000000B6H   SFRSYM    DATA     BYTE      IP2H
      000000A8H   SFRSYM    DATA     BYTE      IE
      000000BBH   SFRSYM    DATA     BYTE      P_SW3
      000000BAH   SFRSYM    DATA     BYTE      P_SW2
      000000A2H   SFRSYM    DATA     BYTE      P_SW1
      000000CEH   SFRSYM    DATA     BYTE      SPCTL
      000000F8H   SFRSYM    DATA     BYTE      P7
      000000E8H   SFRSYM    DATA     BYTE      P6
      000000C8H   SFRSYM    DATA     BYTE      P5
      000000C0H   SFRSYM    DATA     BYTE      P4
      000000B0H   SFRSYM    DATA     BYTE      P3
      000000A0H   SFRSYM    DATA     BYTE      P2
      00000090H   SFRSYM    DATA     BYTE      P1
      00000080H   SFRSYM    DATA     BYTE      P0

      ---         MODULE    ---      ---       SEEKFREE_ICM20602
      00000827H   PUBLIC    EDATA    INT       icm20602_acc_x
      00000829H   PUBLIC    EDATA    INT       icm20602_acc_y
      0000082BH   PUBLIC    EDATA    INT       icm20602_acc_z
      0000082DH   PUBLIC    EDATA    INT       icm20602_gyro_x
      0000082FH   PUBLIC    EDATA    INT       icm20602_gyro_y
      00000831H   PUBLIC    EDATA    INT       icm20602_gyro_z
      000000D0H   SFRSYM    DATA     BYTE      PSW
      0000009DH   SFRSYM    DATA     BYTE      IRCBAND
      00000097H   SFRSYM    DATA     BYTE      AUXR2
      000000EFH   SFRSYM    DATA     BYTE      AUXINTIF
      000000FDH   SFRSYM    DATA     BYTE      S4CON
      000000ACH   SFRSYM    DATA     BYTE      S3CON
      0000009AH   SFRSYM    DATA     BYTE      S2CON
      000000B7H   SFRSYM    DATA     BYTE      IPH
      000000CDH   SFRSYM    DATA     BYTE      SPSTAT
      000000DDH   SFRSYM    DATA     BYTE      T4T3M
      000000C1H   SFRSYM    DATA     BYTE      WDT_CONTR
      000000DFH   SFRSYM    DATA     BYTE      IP3
      000000F4H   SFRSYM    DATA     BYTE      USBCON
      000000B5H   SFRSYM    DATA     BYTE      IP2
      000000FFH   SFRSYM    DATA     BYTE      RSTCFG
      000000F9H   SFRSYM    DATA     BYTE      LINICR
      0000008EH   SFRSYM    DATA     BYTE      AUXR
L251 LINKER/LOCATER V4.66.93.0                                                        10/07/2023  15:37:24  PAGE 65


      000000AFH   SFRSYM    DATA     BYTE      IE2
      000000C0H.3 SFRSYM    DATA     BIT       P43
      000000C0H.2 SFRSYM    DATA     BIT       P42
      00000088H   SFRSYM    DATA     BYTE      TCON
      000000C0H.1 SFRSYM    DATA     BIT       P41
      00000098H   SFRSYM    DATA     BYTE      SCON
      000000C0H.0 SFRSYM    DATA     BIT       P40
      000000F1H   SFRSYM    DATA     BYTE      CANICR
      00000087H   SFRSYM    DATA     BYTE      PCON
      000000BCH   SFRSYM    DATA     BYTE      ADC_CONTR
      000000E7H   SFRSYM    DATA     BYTE      CMPCR2
      000000E6H   SFRSYM    DATA     BYTE      CMPCR1
      000000B8H   SFRSYM    DATA     BYTE      IP
      0000008FH   SFRSYM    DATA     BYTE      INTCLKO
      000000EEH   SFRSYM    DATA     BYTE      IP3H
      000000B6H   SFRSYM    DATA     BYTE      IP2H
      000000A8H   SFRSYM    DATA     BYTE      IE
      000000BBH   SFRSYM    DATA     BYTE      P_SW3
      000000BAH   SFRSYM    DATA     BYTE      P_SW2
      000000A2H   SFRSYM    DATA     BYTE      P_SW1
      000000CEH   SFRSYM    DATA     BYTE      SPCTL
      000000F8H   SFRSYM    DATA     BYTE      P7
      000000E8H   SFRSYM    DATA     BYTE      P6
      000000C8H   SFRSYM    DATA     BYTE      P5
      000000C0H   SFRSYM    DATA     BYTE      P4
      000000B0H   SFRSYM    DATA     BYTE      P3
      000000A0H   SFRSYM    DATA     BYTE      P2
      00000090H   SFRSYM    DATA     BYTE      P1
      00000080H   SFRSYM    DATA     BYTE      P0
      00FF81C5H   SYMBOL    CODE     ---       icm20602_read_register
      00FF767DH   SYMBOL    CODE     ---       icm20602_simspi_wr_byte
      00FF7A2BH   SYMBOL    CODE     ---       icm20602_simspi_r_reg_bytes
      00FF808FH   SYMBOL    CODE     ---       icm20602_simspi_r_reg_byte

      00FF767DH   BLOCK     CODE     ---       LVL=0
      00000C23H   SYMBOL    EDATA    BYTE      byte
      00FF7681H   BLOCK     CODE     NEAR LAB  LVL=1
      00000C24H   SYMBOL    EDATA    BYTE      i
      ---         BLOCKEND  ---      ---       LVL=1
      00FF767DH   LINE      CODE     ---       #278
      00FF7681H   LINE      CODE     ---       #279
      00FF7681H   LINE      CODE     ---       #282
      00FF7688H   LINE      CODE     ---       #284
      00FF7696H   LINE      CODE     ---       #285
      00FF76A0H   LINE      CODE     ---       #286
      00FF76A3H   LINE      CODE     ---       #287
      00FF76A6H   LINE      CODE     ---       #289
      00FF76A9H   LINE      CODE     ---       #290
      00FF76ACH   LINE      CODE     ---       #291
      00FF76BAH   LINE      CODE     ---       #292
      00FF76D1H   LINE      CODE     ---       #293
      00FF76D5H   LINE      CODE     ---       #294
      ---         BLOCKEND  ---      ---       LVL=0
      00000C25H   SYMBOL    EDATA    BYTE      cmd
      00000C26H   SYMBOL    EDATA    BYTE      val

      00FF808FH   BLOCK     CODE     ---       LVL=0
      00000B6CH   SYMBOL    EDATA    BYTE      cmd
      00000B6DH   SYMBOL    EDATA    ---       val
      00FF808FH   LINE      CODE     ---       #340
      00FF8097H   LINE      CODE     ---       #343
      00FF80A3H   LINE      CODE     ---       #344
      00FF80AAH   LINE      CODE     ---       #345
      00FF80B5H   LINE      CODE     ---       #347
      ---         BLOCKEND  ---      ---       LVL=0
L251 LINKER/LOCATER V4.66.93.0                                                        10/07/2023  15:37:24  PAGE 66



      00FF7A2BH   BLOCK     CODE     ---       LVL=0
      000007A1H   SYMBOL    EDATA    BYTE      cmd
      000007A2H   SYMBOL    EDATA    ---       val
      000007A6H   SYMBOL    EDATA    DWORD     num
      00FF7A37H   BLOCK     CODE     NEAR LAB  LVL=1
      000007AAH   SYMBOL    EDATA    DWORD     i
      ---         BLOCKEND  ---      ---       LVL=1
      00FF7A2BH   LINE      CODE     ---       #357
      00FF7A37H   LINE      CODE     ---       #358
      00FF7A37H   LINE      CODE     ---       #359
      00FF7A3DH   LINE      CODE     ---       #360
      00FF7A49H   LINE      CODE     ---       #361
      00FF7A50H   LINE      CODE     ---       #363
      00FF7A52H   LINE      CODE     ---       #365
      00FF7A67H   LINE      CODE     ---       #366
      00FF7A7BH   LINE      CODE     ---       #367
      ---         BLOCKEND  ---      ---       LVL=0
      00000C27H   SYMBOL    EDATA    BYTE      reg
      00000C28H   SYMBOL    EDATA    BYTE      dat

      00FF81C5H   BLOCK     CODE     ---       LVL=0
      00000C29H   SYMBOL    EDATA    BYTE      reg
      00FF81C9H   BLOCK     CODE     NEAR LAB  LVL=1
      00000C2AH   SYMBOL    EDATA    BYTE      dat
      ---         BLOCKEND  ---      ---       LVL=1
      00FF81C5H   LINE      CODE     ---       #407
      00FF81C9H   LINE      CODE     ---       #408
      00FF81C9H   LINE      CODE     ---       #410
      00FF81CCH   LINE      CODE     ---       #411
      00FF81DBH   LINE      CODE     ---       #412
      00FF81DEH   LINE      CODE     ---       #413
      00FF81E2H   LINE      CODE     ---       #414
      ---         BLOCKEND  ---      ---       LVL=0
      00000984H   SYMBOL    EDATA    BYTE      reg
      00000985H   SYMBOL    EDATA    ---       dat
      00000989H   SYMBOL    EDATA    DWORD     len
      00000BB2H   SYMBOL    EDATA    BYTE      dat
      00000BB3H   SYMBOL    EDATA    BYTE      return_state
      00000BB4H   SYMBOL    EDATA    WORD      timeout_count
      00000ADAH   SYMBOL    EDATA    ---       dat
      00000AE0H   SYMBOL    EDATA    ---       dat
      00000AE6H   SYMBOL    EDATA    INT       acc_value
      00000AE8H   SYMBOL    EDATA    FLOAT     acc_data
      00000AECH   SYMBOL    EDATA    INT       gyro_value
      00000AEEH   SYMBOL    EDATA    FLOAT     gyro_data
      00000BB6H   SYMBOL    EDATA    BYTE      val
      00000BB7H   SYMBOL    EDATA    BYTE      return_state
      00000BB8H   SYMBOL    EDATA    WORD      timeout_count

      ---         MODULE    ---      ---       SEEKFREE_IMU660RA
      00000833H   PUBLIC    EDATA    INT       imu660ra_acc_x
      00000835H   PUBLIC    EDATA    INT       imu660ra_acc_y
      00000837H   PUBLIC    EDATA    INT       imu660ra_acc_z
      00000839H   PUBLIC    EDATA    INT       imu660ra_gyro_x
      0000083BH   PUBLIC    EDATA    INT       imu660ra_gyro_y
      0000083DH   PUBLIC    EDATA    INT       imu660ra_gyro_z
      000000D0H   SFRSYM    DATA     BYTE      PSW
      0000009DH   SFRSYM    DATA     BYTE      IRCBAND
      00000097H   SFRSYM    DATA     BYTE      AUXR2
      000000EFH   SFRSYM    DATA     BYTE      AUXINTIF
      000000FDH   SFRSYM    DATA     BYTE      S4CON
      000000ACH   SFRSYM    DATA     BYTE      S3CON
      0000009AH   SFRSYM    DATA     BYTE      S2CON
      000000B7H   SFRSYM    DATA     BYTE      IPH
L251 LINKER/LOCATER V4.66.93.0                                                        10/07/2023  15:37:24  PAGE 67


      000000CDH   SFRSYM    DATA     BYTE      SPSTAT
      000000DDH   SFRSYM    DATA     BYTE      T4T3M
      000000C1H   SFRSYM    DATA     BYTE      WDT_CONTR
      000000DFH   SFRSYM    DATA     BYTE      IP3
      000000F4H   SFRSYM    DATA     BYTE      USBCON
      000000B5H   SFRSYM    DATA     BYTE      IP2
      000000FFH   SFRSYM    DATA     BYTE      RSTCFG
      000000F9H   SFRSYM    DATA     BYTE      LINICR
      0000008EH   SFRSYM    DATA     BYTE      AUXR
      000000AFH   SFRSYM    DATA     BYTE      IE2
      000000C0H.3 SFRSYM    DATA     BIT       P43
      000000C0H.2 SFRSYM    DATA     BIT       P42
      00000088H   SFRSYM    DATA     BYTE      TCON
      000000C0H.1 SFRSYM    DATA     BIT       P41
      00000098H   SFRSYM    DATA     BYTE      SCON
      000000C0H.0 SFRSYM    DATA     BIT       P40
      000000F1H   SFRSYM    DATA     BYTE      CANICR
      00000087H   SFRSYM    DATA     BYTE      PCON
      000000BCH   SFRSYM    DATA     BYTE      ADC_CONTR
      000000E7H   SFRSYM    DATA     BYTE      CMPCR2
      000000E6H   SFRSYM    DATA     BYTE      CMPCR1
      000000B8H   SFRSYM    DATA     BYTE      IP
      0000008FH   SFRSYM    DATA     BYTE      INTCLKO
      000000EEH   SFRSYM    DATA     BYTE      IP3H
      000000B6H   SFRSYM    DATA     BYTE      IP2H
      000000A8H   SFRSYM    DATA     BYTE      IE
      000000BBH   SFRSYM    DATA     BYTE      P_SW3
      000000BAH   SFRSYM    DATA     BYTE      P_SW2
      000000A2H   SFRSYM    DATA     BYTE      P_SW1
      000000CEH   SFRSYM    DATA     BYTE      SPCTL
      000000F8H   SFRSYM    DATA     BYTE      P7
      000000E8H   SFRSYM    DATA     BYTE      P6
      000000C8H   SFRSYM    DATA     BYTE      P5
      000000C0H   SFRSYM    DATA     BYTE      P4
      000000B0H   SFRSYM    DATA     BYTE      P3
      000000A0H   SFRSYM    DATA     BYTE      P2
      00000090H   SFRSYM    DATA     BYTE      P1
      00000080H   SFRSYM    DATA     BYTE      P0
      00FF80FEH   SYMBOL    CODE     ---       imu660ra_read_register
      00FF76D6H   SYMBOL    CODE     ---       imu660ra_simspi_wr_byte
      00FF7BF8H   SYMBOL    CODE     ---       imu660ra_simspi_r_reg_bytes

      00FF76D6H   BLOCK     CODE     ---       LVL=0
      00000C2BH   SYMBOL    EDATA    BYTE      byte
      00FF76DAH   BLOCK     CODE     NEAR LAB  LVL=1
      00000C2CH   SYMBOL    EDATA    BYTE      i
      ---         BLOCKEND  ---      ---       LVL=1
      00FF76D6H   LINE      CODE     ---       #309
      00FF76DAH   LINE      CODE     ---       #310
      00FF76DAH   LINE      CODE     ---       #313
      00FF76E1H   LINE      CODE     ---       #315
      00FF76EFH   LINE      CODE     ---       #316
      00FF76F9H   LINE      CODE     ---       #317
      00FF76FCH   LINE      CODE     ---       #318
      00FF76FFH   LINE      CODE     ---       #319
      00FF7702H   LINE      CODE     ---       #320
      00FF7705H   LINE      CODE     ---       #322
      00FF7713H   LINE      CODE     ---       #323
      00FF772AH   LINE      CODE     ---       #324
      00FF772EH   LINE      CODE     ---       #325
      ---         BLOCKEND  ---      ---       LVL=0
      00000C2DH   SYMBOL    EDATA    BYTE      cmd
      00000C2EH   SYMBOL    EDATA    BYTE      val
      0000098DH   SYMBOL    EDATA    BYTE      cmd
      0000098EH   SYMBOL    EDATA    ---       dat_addr
L251 LINKER/LOCATER V4.66.93.0                                                        10/07/2023  15:37:24  PAGE 68


      00000992H   SYMBOL    EDATA    DWORD     len

      00FF7BF8H   BLOCK     CODE     ---       LVL=0
      00000996H   SYMBOL    EDATA    BYTE      cmd
      00000997H   SYMBOL    EDATA    ---       val
      0000099BH   SYMBOL    EDATA    DWORD     num
      00FF7BF8H   LINE      CODE     ---       #382
      00FF7C04H   LINE      CODE     ---       #384
      00FF7C10H   LINE      CODE     ---       #385
      00FF7C17H   LINE      CODE     ---       #387
      00FF7C19H   LINE      CODE     ---       #389
      00FF7C2EH   LINE      CODE     ---       #390
      00FF7C42H   LINE      CODE     ---       #391
      ---         BLOCKEND  ---      ---       LVL=0
      00000C2FH   SYMBOL    EDATA    BYTE      reg
      00000C30H   SYMBOL    EDATA    BYTE      dat
      0000099FH   SYMBOL    EDATA    BYTE      reg
      000009A0H   SYMBOL    EDATA    ---       dat
      000009A4H   SYMBOL    EDATA    DWORD     len

      00FF80FEH   BLOCK     CODE     ---       LVL=0
      00000BF0H   SYMBOL    EDATA    BYTE      reg
      00FF8102H   BLOCK     CODE     NEAR LAB  LVL=1
      00000BF1H   SYMBOL    EDATA    ---       dat
      ---         BLOCKEND  ---      ---       LVL=1
      00FF80FEH   LINE      CODE     ---       #432
      00FF8102H   LINE      CODE     ---       #433
      00FF8102H   LINE      CODE     ---       #435
      00FF8105H   LINE      CODE     ---       #436
      00FF8118H   LINE      CODE     ---       #437
      00FF811BH   LINE      CODE     ---       #438
      00FF811FH   LINE      CODE     ---       #439
      ---         BLOCKEND  ---      ---       LVL=0
      000009A8H   SYMBOL    EDATA    BYTE      reg
      000009A9H   SYMBOL    EDATA    ---       dat
      000009ADH   SYMBOL    EDATA    DWORD     len
      00000BBAH   SYMBOL    EDATA    BYTE      dat
      00000BBBH   SYMBOL    EDATA    BYTE      return_state
      00000BBCH   SYMBOL    EDATA    WORD      timeout_count
      00000A9AH   SYMBOL    EDATA    ---       dat
      00000AA1H   SYMBOL    EDATA    ---       dat
      00000AF2H   SYMBOL    EDATA    INT       acc_value
      00000AF4H   SYMBOL    EDATA    FLOAT     acc_dat
      00000AF8H   SYMBOL    EDATA    INT       gyro_value
      00000AFAH   SYMBOL    EDATA    FLOAT     gyro_dat
      00000C5BH   SYMBOL    EDATA    BYTE      return_state

      ---         MODULE    ---      ---       SEEKFREE_IMU963RA
      00000705H   PUBLIC    EDATA    INT       imu963ra_acc_x
      00000707H   PUBLIC    EDATA    INT       imu963ra_acc_y
      00000709H   PUBLIC    EDATA    INT       imu963ra_acc_z
      0000070BH   PUBLIC    EDATA    INT       imu963ra_mag_x
      0000070DH   PUBLIC    EDATA    INT       imu963ra_mag_y
      0000070FH   PUBLIC    EDATA    INT       imu963ra_mag_z
      00000711H   PUBLIC    EDATA    INT       imu963ra_gyro_x
      00000713H   PUBLIC    EDATA    INT       imu963ra_gyro_y
      00000715H   PUBLIC    EDATA    INT       imu963ra_gyro_z
      000000D0H   SFRSYM    DATA     BYTE      PSW
      0000009DH   SFRSYM    DATA     BYTE      IRCBAND
      00000097H   SFRSYM    DATA     BYTE      AUXR2
      000000EFH   SFRSYM    DATA     BYTE      AUXINTIF
      000000FDH   SFRSYM    DATA     BYTE      S4CON
      000000ACH   SFRSYM    DATA     BYTE      S3CON
      0000009AH   SFRSYM    DATA     BYTE      S2CON
      000000B7H   SFRSYM    DATA     BYTE      IPH
L251 LINKER/LOCATER V4.66.93.0                                                        10/07/2023  15:37:24  PAGE 69


      000000CDH   SFRSYM    DATA     BYTE      SPSTAT
      000000DDH   SFRSYM    DATA     BYTE      T4T3M
      000000C1H   SFRSYM    DATA     BYTE      WDT_CONTR
      000000DFH   SFRSYM    DATA     BYTE      IP3
      000000F4H   SFRSYM    DATA     BYTE      USBCON
      000000B5H   SFRSYM    DATA     BYTE      IP2
      000000FFH   SFRSYM    DATA     BYTE      RSTCFG
      000000F9H   SFRSYM    DATA     BYTE      LINICR
      0000008EH   SFRSYM    DATA     BYTE      AUXR
      000000AFH   SFRSYM    DATA     BYTE      IE2
      000000C0H.3 SFRSYM    DATA     BIT       P43
      000000C0H.2 SFRSYM    DATA     BIT       P42
      00000088H   SFRSYM    DATA     BYTE      TCON
      000000C0H.1 SFRSYM    DATA     BIT       P41
      00000098H   SFRSYM    DATA     BYTE      SCON
      000000C0H.0 SFRSYM    DATA     BIT       P40
      000000F1H   SFRSYM    DATA     BYTE      CANICR
      00000087H   SFRSYM    DATA     BYTE      PCON
      000000BCH   SFRSYM    DATA     BYTE      ADC_CONTR
      000000E7H   SFRSYM    DATA     BYTE      CMPCR2
      000000E6H   SFRSYM    DATA     BYTE      CMPCR1
      000000B8H   SFRSYM    DATA     BYTE      IP
      0000008FH   SFRSYM    DATA     BYTE      INTCLKO
      000000EEH   SFRSYM    DATA     BYTE      IP3H
      000000B6H   SFRSYM    DATA     BYTE      IP2H
      000000A8H   SFRSYM    DATA     BYTE      IE
      000000BBH   SFRSYM    DATA     BYTE      P_SW3
      000000BAH   SFRSYM    DATA     BYTE      P_SW2
      000000A2H   SFRSYM    DATA     BYTE      P_SW1
      000000CEH   SFRSYM    DATA     BYTE      SPCTL
      000000F8H   SFRSYM    DATA     BYTE      P7
      000000E8H   SFRSYM    DATA     BYTE      P6
      000000C8H   SFRSYM    DATA     BYTE      P5
      000000C0H   SFRSYM    DATA     BYTE      P4
      000000B0H   SFRSYM    DATA     BYTE      P3
      000000A0H   SFRSYM    DATA     BYTE      P2
      00000090H   SFRSYM    DATA     BYTE      P1
      00000080H   SFRSYM    DATA     BYTE      P0
      00FF772FH   SYMBOL    CODE     ---       imu963ra_simspi_wr_byte
      00FF72E7H   SYMBOL    CODE     ---       imu963ra_read_mag_register
      00FF80DBH   SYMBOL    CODE     ---       imu963ra_read_acc_gyro_register
      00FF7F6CH   SYMBOL    CODE     ---       imu963ra_simspi_r_reg_byte
      00FF8256H   SYMBOL    CODE     ---       imu963ra_write_acc_gyro_register
      00FF8184H   SYMBOL    CODE     ---       imu963ra_simspi_w_reg_byte

      00FF772FH   BLOCK     CODE     ---       LVL=0
      00000C31H   SYMBOL    EDATA    BYTE      byte
      00FF7733H   BLOCK     CODE     NEAR LAB  LVL=1
      00000C32H   SYMBOL    EDATA    BYTE      i
      ---         BLOCKEND  ---      ---       LVL=1
      00FF772FH   LINE      CODE     ---       #344
      00FF7733H   LINE      CODE     ---       #345
      00FF7733H   LINE      CODE     ---       #348
      00FF773AH   LINE      CODE     ---       #350
      00FF7748H   LINE      CODE     ---       #351
      00FF7752H   LINE      CODE     ---       #352
      00FF7755H   LINE      CODE     ---       #353
      00FF7758H   LINE      CODE     ---       #355
      00FF775BH   LINE      CODE     ---       #356
      00FF775EH   LINE      CODE     ---       #357
      00FF776CH   LINE      CODE     ---       #358
      00FF7783H   LINE      CODE     ---       #359
      00FF7787H   LINE      CODE     ---       #360
      ---         BLOCKEND  ---      ---       LVL=0

L251 LINKER/LOCATER V4.66.93.0                                                        10/07/2023  15:37:24  PAGE 70


      00FF8184H   BLOCK     CODE     ---       LVL=0
      00000C33H   SYMBOL    EDATA    BYTE      cmd
      00000C34H   SYMBOL    EDATA    BYTE      val
      00FF8184H   LINE      CODE     ---       #368
      00FF818CH   LINE      CODE     ---       #370
      00FF818FH   LINE      CODE     ---       #371
      00FF8193H   LINE      CODE     ---       #372
      00FF819AH   LINE      CODE     ---       #373
      00FF81A1H   LINE      CODE     ---       #374
      00FF81A4H   LINE      CODE     ---       #375
      ---         BLOCKEND  ---      ---       LVL=0

      00FF7F6CH   BLOCK     CODE     ---       LVL=0
      00000B71H   SYMBOL    EDATA    BYTE      cmd
      00000B72H   SYMBOL    EDATA    ---       val
      00FF7F6CH   LINE      CODE     ---       #406
      00FF7F74H   LINE      CODE     ---       #408
      00FF7F77H   LINE      CODE     ---       #409
      00FF7F83H   LINE      CODE     ---       #410
      00FF7F8AH   LINE      CODE     ---       #411
      00FF7F95H   LINE      CODE     ---       #412
      00FF7F98H   LINE      CODE     ---       #413
      ---         BLOCKEND  ---      ---       LVL=0
      000009B1H   SYMBOL    EDATA    BYTE      cmd
      000009B2H   SYMBOL    EDATA    ---       val
      000009B6H   SYMBOL    EDATA    DWORD     num

      00FF8256H   BLOCK     CODE     ---       LVL=0
      00000C35H   SYMBOL    EDATA    BYTE      reg
      00000C36H   SYMBOL    EDATA    BYTE      dat
      00FF8256H   LINE      CODE     ---       #445
      00FF825EH   LINE      CODE     ---       #447
      00FF8261H   LINE      CODE     ---       #448
      00FF826CH   LINE      CODE     ---       #450
      00FF826FH   LINE      CODE     ---       #451
      ---         BLOCKEND  ---      ---       LVL=0

      00FF80DBH   BLOCK     CODE     ---       LVL=0
      00000C37H   SYMBOL    EDATA    BYTE      reg
      00FF80DFH   BLOCK     CODE     NEAR LAB  LVL=1
      00000C38H   SYMBOL    EDATA    BYTE      dat
      ---         BLOCKEND  ---      ---       LVL=1
      00FF80DBH   LINE      CODE     ---       #460
      00FF80DFH   LINE      CODE     ---       #461
      00FF80DFH   LINE      CODE     ---       #462
      00FF80E4H   LINE      CODE     ---       #463
      00FF80E7H   LINE      CODE     ---       #464
      00FF80F6H   LINE      CODE     ---       #465
      00FF80F9H   LINE      CODE     ---       #466
      00FF80FDH   LINE      CODE     ---       #467
      ---         BLOCKEND  ---      ---       LVL=0
      000009BAH   SYMBOL    EDATA    BYTE      reg
      000009BBH   SYMBOL    EDATA    ---       dat
      000009BFH   SYMBOL    EDATA    DWORD     len
      00000AFEH   SYMBOL    EDATA    BYTE      addr
      00000AFFH   SYMBOL    EDATA    BYTE      reg
      00000B00H   SYMBOL    EDATA    BYTE      dat
      00000B01H   SYMBOL    EDATA    BYTE      return_state
      00000B02H   SYMBOL    EDATA    WORD      timeout_count

      00FF72E7H   BLOCK     CODE     ---       LVL=0
      00000BBEH   SYMBOL    EDATA    BYTE      addr
      00000BBFH   SYMBOL    EDATA    BYTE      reg
      00FF72EFH   BLOCK     CODE     NEAR LAB  LVL=1
      00000BC0H   SYMBOL    EDATA    WORD      timeout_count
L251 LINKER/LOCATER V4.66.93.0                                                        10/07/2023  15:37:24  PAGE 71


      ---         BLOCKEND  ---      ---       LVL=1
      00FF72E7H   LINE      CODE     ---       #529
      00FF72EFH   LINE      CODE     ---       #530
      00FF72EFH   LINE      CODE     ---       #531
      00FF72F5H   LINE      CODE     ---       #533
      00FF72FFH   LINE      CODE     ---       #534
      00FF730DH   LINE      CODE     ---       #535
      00FF7316H   LINE      CODE     ---       #536
      00FF731EH   LINE      CODE     ---       #537
      00FF7326H   LINE      CODE     ---       #540
      00FF7328H   LINE      CODE     ---       #542
      00FF733EH   LINE      CODE     ---       #544
      00FF733EH   LINE      CODE     ---       #545
      00FF733EH   LINE      CODE     ---       #546
      00FF7345H   LINE      CODE     ---       #547
      00FF734DH   LINE      CODE     ---       #549
      00FF7352H   LINE      CODE     ---       #550
      ---         BLOCKEND  ---      ---       LVL=0
      00000C39H   SYMBOL    EDATA    BYTE      addr
      00000C3AH   SYMBOL    EDATA    BYTE      reg
      00000BC2H   SYMBOL    EDATA    BYTE      return_state
      00000BC3H   SYMBOL    EDATA    BYTE      dat
      00000BC4H   SYMBOL    EDATA    WORD      timeout_count
      00000BC6H   SYMBOL    EDATA    BYTE      return_state
      00000BC7H   SYMBOL    EDATA    BYTE      dat
      00000BC8H   SYMBOL    EDATA    WORD      timeout_count
      00000B04H   SYMBOL    EDATA    ---       dat
      00000B0AH   SYMBOL    EDATA    ---       dat
      00000AA8H   SYMBOL    EDATA    BYTE      temp_status
      00000AA9H   SYMBOL    EDATA    ---       dat
      00000B10H   SYMBOL    EDATA    INT       acc_value
      00000B12H   SYMBOL    EDATA    FLOAT     acc_dat
      00000B16H   SYMBOL    EDATA    INT       gyro_value
      00000B18H   SYMBOL    EDATA    FLOAT     gyro_dat
      00000B1CH   SYMBOL    EDATA    INT       mag_value
      00000B1EH   SYMBOL    EDATA    FLOAT     mag_dat
      00000C5CH   SYMBOL    EDATA    BYTE      return_state

      ---         MODULE    ---      ---       SEEKFREE_IPS114_SPI
      00FF7FEDH   PUBLIC    CODE     ---       ips114_writedata_16bit
      00FF6D42H   PUBLIC    CODE     ---       ips114_showchar
      00FF6C75H   PUBLIC    CODE     ---       ips114_showuint16
      00FF75C1H   PUBLIC    CODE     ---       ips114_clear
      00FF788AH   PUBLIC    CODE     ---       ips114_writeDatai_16bit_simspi
      00FF7B14H   PUBLIC    CODE     ---       ips114_writeIndex_simspi
      00FF8312H   PUBLIC    CODE     ---       ips114_writeIndex
      00FF8327H   PUBLIC    CODE     ---       ips114_writeData
      00FF7933H   PUBLIC    CODE     ---       ips114_set_region
      00FF635EH   PUBLIC    CODE     ---       ips114_init
      0000041EH   PUBLIC    EDATA    BYTE      ?ips114_showfloat_simspi?BYTE
      0000044EH   PUBLIC    EDATA    BYTE      ?ips114_showfloat?BYTE
      000000D0H   SFRSYM    DATA     BYTE      PSW
      0000009DH   SFRSYM    DATA     BYTE      IRCBAND
      00000097H   SFRSYM    DATA     BYTE      AUXR2
      000000EFH   SFRSYM    DATA     BYTE      AUXINTIF
      000000FDH   SFRSYM    DATA     BYTE      S4CON
      000000ACH   SFRSYM    DATA     BYTE      S3CON
      0000009AH   SFRSYM    DATA     BYTE      S2CON
      000000B7H   SFRSYM    DATA     BYTE      IPH
      000000CDH   SFRSYM    DATA     BYTE      SPSTAT
      000000DDH   SFRSYM    DATA     BYTE      T4T3M
      000000C1H   SFRSYM    DATA     BYTE      WDT_CONTR
      000000DFH   SFRSYM    DATA     BYTE      IP3
      000000F4H   SFRSYM    DATA     BYTE      USBCON
      000000B5H   SFRSYM    DATA     BYTE      IP2
L251 LINKER/LOCATER V4.66.93.0                                                        10/07/2023  15:37:24  PAGE 72


      000000FFH   SFRSYM    DATA     BYTE      RSTCFG
      000000F9H   SFRSYM    DATA     BYTE      LINICR
      0000008EH   SFRSYM    DATA     BYTE      AUXR
      000000AFH   SFRSYM    DATA     BYTE      IE2
      000000A0H.7 SFRSYM    DATA     BIT       P27
      000000A0H.5 SFRSYM    DATA     BIT       P25
      00000088H   SFRSYM    DATA     BYTE      TCON
      000000A0H.3 SFRSYM    DATA     BIT       P23
      00000098H   SFRSYM    DATA     BYTE      SCON
      000000A0H.2 SFRSYM    DATA     BIT       P22
      000000A0H.1 SFRSYM    DATA     BIT       P21
      000000A0H.0 SFRSYM    DATA     BIT       P20
      000000F1H   SFRSYM    DATA     BYTE      CANICR
      00000087H   SFRSYM    DATA     BYTE      PCON
      000000BCH   SFRSYM    DATA     BYTE      ADC_CONTR
      000000E7H   SFRSYM    DATA     BYTE      CMPCR2
      000000E6H   SFRSYM    DATA     BYTE      CMPCR1
      000000B8H   SFRSYM    DATA     BYTE      IP
      0000008FH   SFRSYM    DATA     BYTE      INTCLKO
      000000EEH   SFRSYM    DATA     BYTE      IP3H
      000000B6H   SFRSYM    DATA     BYTE      IP2H
      000000A8H   SFRSYM    DATA     BYTE      IE
      000000BBH   SFRSYM    DATA     BYTE      P_SW3
      000000BAH   SFRSYM    DATA     BYTE      P_SW2
      000000A2H   SFRSYM    DATA     BYTE      P_SW1
      000000CEH   SFRSYM    DATA     BYTE      SPCTL
      000000F8H   SFRSYM    DATA     BYTE      P7
      000000E8H   SFRSYM    DATA     BYTE      P6
      000000C8H   SFRSYM    DATA     BYTE      P5
      000000C0H   SFRSYM    DATA     BYTE      P4
      000000B0H   SFRSYM    DATA     BYTE      P3
      000000A0H   SFRSYM    DATA     BYTE      P2
      00000090H   SFRSYM    DATA     BYTE      P1
      00000080H   SFRSYM    DATA     BYTE      P0

      00FF7B14H   BLOCK     CODE     ---       LVL=0
      00000C3BH   SYMBOL    EDATA    BYTE      dat
      00FF7B18H   BLOCK     CODE     NEAR LAB  LVL=1
      00000C3CH   SYMBOL    EDATA    BYTE      i
      ---         BLOCKEND  ---      ---       LVL=1
      00FF7B14H   LINE      CODE     ---       #61
      00FF7B18H   LINE      CODE     ---       #62
      00FF7B18H   LINE      CODE     ---       #63
      00FF7B1EH   LINE      CODE     ---       #64
      00FF7B21H   LINE      CODE     ---       #65
      00FF7B24H   LINE      CODE     ---       #67
      00FF7B27H   LINE      CODE     ---       #69
      00FF7B29H   LINE      CODE     ---       #71
      00FF7B35H   LINE      CODE     ---       #72
      00FF7B38H   LINE      CODE     ---       #73
      00FF7B3BH   LINE      CODE     ---       #75
      00FF7B3EH   LINE      CODE     ---       #76
      00FF7B48H   LINE      CODE     ---       #77
      00FF7B5CH   LINE      CODE     ---       #78
      00FF7B5FH   LINE      CODE     ---       #79
      ---         BLOCKEND  ---      ---       LVL=0
      00000C3DH   SYMBOL    EDATA    BYTE      dat
      00000C3EH   SYMBOL    EDATA    BYTE      i

      00FF788AH   BLOCK     CODE     ---       LVL=0
      00000BF3H   SYMBOL    EDATA    WORD      dat
      00FF788EH   BLOCK     CODE     NEAR LAB  LVL=1
      00000BF5H   SYMBOL    EDATA    BYTE      i
      ---         BLOCKEND  ---      ---       LVL=1
      00FF788AH   LINE      CODE     ---       #115
L251 LINKER/LOCATER V4.66.93.0                                                        10/07/2023  15:37:24  PAGE 73


      00FF788EH   LINE      CODE     ---       #116
      00FF788EH   LINE      CODE     ---       #117
      00FF7894H   LINE      CODE     ---       #118
      00FF7897H   LINE      CODE     ---       #119
      00FF789AH   LINE      CODE     ---       #120
      00FF789DH   LINE      CODE     ---       #121
      00FF789FH   LINE      CODE     ---       #123
      00FF78B4H   LINE      CODE     ---       #124
      00FF78B7H   LINE      CODE     ---       #125
      00FF78BAH   LINE      CODE     ---       #127
      00FF78BDH   LINE      CODE     ---       #128
      00FF78C7H   LINE      CODE     ---       #129
      00FF78DBH   LINE      CODE     ---       #130
      00FF78DEH   LINE      CODE     ---       #131
      ---         BLOCKEND  ---      ---       LVL=0
      00000A4CH   SYMBOL    EDATA    WORD      x1
      00000A4EH   SYMBOL    EDATA    WORD      y1
      00000A50H   SYMBOL    EDATA    WORD      x2
      00000A52H   SYMBOL    EDATA    WORD      y2
      00000B22H   SYMBOL    EDATA    WORD      color
      00000B24H   SYMBOL    EDATA    WORD      i
      00000B26H   SYMBOL    EDATA    WORD      j
      00000B28H   SYMBOL    EDATA    WORD      x
      00000B2AH   SYMBOL    EDATA    WORD      y
      00000B2CH   SYMBOL    EDATA    WORD      color
      00000A54H   SYMBOL    EDATA    WORD      x
      00000A56H   SYMBOL    EDATA    WORD      y
      00000A58H   SYMBOL    EDATA    CHAR      dat
      00000A59H   SYMBOL    EDATA    BYTE      i
      00000A5AH   SYMBOL    EDATA    BYTE      j
      00000A5BH   SYMBOL    EDATA    BYTE      temp
      00000927H   SYMBOL    EDATA    WORD      x
      00000929H   SYMBOL    EDATA    WORD      y
      0000092BH   SYMBOL    EDATA    ---       dat
      0000092FH   SYMBOL    EDATA    WORD      j
      000009C3H   SYMBOL    EDATA    WORD      x
      000009C5H   SYMBOL    EDATA    WORD      y
      000009C7H   SYMBOL    EDATA    CHAR      dat
      000009C8H   SYMBOL    EDATA    ---       a
      000009CBH   SYMBOL    EDATA    BYTE      i
      000009CCH   SYMBOL    EDATA    WORD      x
      000009CEH   SYMBOL    EDATA    WORD      y
      000009D0H   SYMBOL    EDATA    BYTE      dat
      000009D1H   SYMBOL    EDATA    ---       a
      000009D4H   SYMBOL    EDATA    BYTE      i
      0000083FH   SYMBOL    EDATA    WORD      x
      00000841H   SYMBOL    EDATA    WORD      y
      00000843H   SYMBOL    EDATA    INT       dat
      00000845H   SYMBOL    EDATA    ---       a
      0000084AH   SYMBOL    EDATA    BYTE      i
      0000084BH   SYMBOL    EDATA    WORD      x
      0000084DH   SYMBOL    EDATA    WORD      y
      0000084FH   SYMBOL    EDATA    WORD      dat
      00000851H   SYMBOL    EDATA    ---       a
      00000856H   SYMBOL    EDATA    BYTE      i
      00000565H   SYMBOL    EDATA    WORD      x
      00000567H   SYMBOL    EDATA    WORD      y
      00000569H   SYMBOL    EDATA    LONG      dat
      0000056DH   SYMBOL    EDATA    BYTE      num
      0000056EH   SYMBOL    EDATA    ---       buff
      00000590H   SYMBOL    EDATA    BYTE      length
      0000041EH   SYMBOL    EDATA    WORD      x
      00000420H   SYMBOL    EDATA    WORD      y
      00000422H   SYMBOL    EDATA    FLOAT     dat
      00000426H   SYMBOL    EDATA    BYTE      num
L251 LINKER/LOCATER V4.66.93.0                                                        10/07/2023  15:37:24  PAGE 74


      00000427H   SYMBOL    EDATA    BYTE      pointnum
      00000428H   SYMBOL    EDATA    BYTE      length
      00000429H   SYMBOL    EDATA    ---       buff
      0000044BH   SYMBOL    EDATA    CHAR      start
      0000044CH   SYMBOL    EDATA    CHAR      end
      0000044DH   SYMBOL    EDATA    CHAR      point

      00FF8312H   BLOCK     CODE     ---       LVL=0
      00000C5DH   SYMBOL    EDATA    BYTE      dat
      00FF8312H   LINE      CODE     ---       #594
      00FF8316H   LINE      CODE     ---       #596
      00FF8319H   LINE      CODE     ---       #597
      00FF831CH   LINE      CODE     ---       #599
      00FF8323H   LINE      CODE     ---       #600
      00FF8326H   LINE      CODE     ---       #601
      ---         BLOCKEND  ---      ---       LVL=0

      00FF8327H   BLOCK     CODE     ---       LVL=0
      00000C5EH   SYMBOL    EDATA    BYTE      dat
      00FF8327H   LINE      CODE     ---       #610
      00FF832BH   LINE      CODE     ---       #612
      00FF832EH   LINE      CODE     ---       #613
      00FF8331H   LINE      CODE     ---       #615
      00FF8338H   LINE      CODE     ---       #616
      00FF833BH   LINE      CODE     ---       #617
      ---         BLOCKEND  ---      ---       LVL=0

      00FF7FEDH   BLOCK     CODE     ---       LVL=0
      00000BCAH   SYMBOL    EDATA    WORD      dat
      00FF7FF1H   BLOCK     CODE     NEAR LAB  LVL=1
      00000BCCH   SYMBOL    EDATA    ---       dat1
      ---         BLOCKEND  ---      ---       LVL=1
      00FF7FEDH   LINE      CODE     ---       #626
      00FF7FF1H   LINE      CODE     ---       #627
      00FF7FF1H   LINE      CODE     ---       #629
      00FF7FF7H   LINE      CODE     ---       #630
      00FF7FFFH   LINE      CODE     ---       #631
      00FF8002H   LINE      CODE     ---       #632
      00FF8005H   LINE      CODE     ---       #633
      00FF800CH   LINE      CODE     ---       #634
      00FF8013H   LINE      CODE     ---       #635
      00FF8016H   LINE      CODE     ---       #636
      ---         BLOCKEND  ---      ---       LVL=0

      00FF635EH   BLOCK     CODE     ---       LVL=0
      00FF635EH   LINE      CODE     ---       #644
      00FF635EH   LINE      CODE     ---       #646
      00FF637EH   LINE      CODE     ---       #648
      00FF6381H   LINE      CODE     ---       #649
      00FF6384H   LINE      CODE     ---       #650
      00FF6387H   LINE      CODE     ---       #652
      00FF638EH   LINE      CODE     ---       #654
      00FF6391H   LINE      CODE     ---       #655
      00FF6398H   LINE      CODE     ---       #657
      00FF639DH   LINE      CODE     ---       #666
      00FF63A2H   LINE      CODE     ---       #669
      00FF63A7H   LINE      CODE     ---       #670
      00FF63ACH   LINE      CODE     ---       #672
      00FF63B1H   LINE      CODE     ---       #673
      00FF63B6H   LINE      CODE     ---       #674
      00FF63BBH   LINE      CODE     ---       #675
      00FF63BFH   LINE      CODE     ---       #676
      00FF63C4H   LINE      CODE     ---       #677
      00FF63C9H   LINE      CODE     ---       #679
      00FF63CEH   LINE      CODE     ---       #680
L251 LINKER/LOCATER V4.66.93.0                                                        10/07/2023  15:37:24  PAGE 75


      00FF63D3H   LINE      CODE     ---       #682
      00FF63D8H   LINE      CODE     ---       #683
      00FF63DDH   LINE      CODE     ---       #685
      00FF63E2H   LINE      CODE     ---       #686
      00FF63E7H   LINE      CODE     ---       #688
      00FF63ECH   LINE      CODE     ---       #689
      00FF63F1H   LINE      CODE     ---       #691
      00FF63F6H   LINE      CODE     ---       #692
      00FF63FBH   LINE      CODE     ---       #694
      00FF6400H   LINE      CODE     ---       #695
      00FF6405H   LINE      CODE     ---       #697
      00FF640AH   LINE      CODE     ---       #698
      00FF640FH   LINE      CODE     ---       #700
      00FF6414H   LINE      CODE     ---       #701
      00FF6419H   LINE      CODE     ---       #702
      00FF641EH   LINE      CODE     ---       #704
      00FF6423H   LINE      CODE     ---       #705
      00FF6428H   LINE      CODE     ---       #706
      00FF642DH   LINE      CODE     ---       #707
      00FF6432H   LINE      CODE     ---       #708
      00FF6437H   LINE      CODE     ---       #709
      00FF643CH   LINE      CODE     ---       #710
      00FF6441H   LINE      CODE     ---       #711
      00FF6446H   LINE      CODE     ---       #712
      00FF644BH   LINE      CODE     ---       #713
      00FF6450H   LINE      CODE     ---       #714
      00FF6455H   LINE      CODE     ---       #715
      00FF645AH   LINE      CODE     ---       #716
      00FF645FH   LINE      CODE     ---       #717
      00FF6464H   LINE      CODE     ---       #718
      00FF6469H   LINE      CODE     ---       #720
      00FF646EH   LINE      CODE     ---       #721
      00FF6473H   LINE      CODE     ---       #722
      00FF6478H   LINE      CODE     ---       #723
      00FF647DH   LINE      CODE     ---       #724
      00FF6482H   LINE      CODE     ---       #725
      00FF6487H   LINE      CODE     ---       #726
      00FF648CH   LINE      CODE     ---       #727
      00FF6491H   LINE      CODE     ---       #728
      00FF6496H   LINE      CODE     ---       #729
      00FF649BH   LINE      CODE     ---       #730
      00FF64A0H   LINE      CODE     ---       #731
      00FF64A5H   LINE      CODE     ---       #732
      00FF64AAH   LINE      CODE     ---       #733
      00FF64AFH   LINE      CODE     ---       #734
      00FF64B4H   LINE      CODE     ---       #736
      00FF64B9H   LINE      CODE     ---       #738
      00FF64BEH   LINE      CODE     ---       #739
      00FF64C5H   LINE      CODE     ---       #741
      00FF64CAH   LINE      CODE     ---       #742
      00FF64D1H   LINE      CODE     ---       #743
      ---         BLOCKEND  ---      ---       LVL=0

      00FF7933H   BLOCK     CODE     ---       LVL=0
      00000A5CH   SYMBOL    EDATA    WORD      x1
      00000A5EH   SYMBOL    EDATA    WORD      y1
      00000A60H   SYMBOL    EDATA    WORD      x2
      00000A62H   SYMBOL    EDATA    WORD      y2
      00FF7933H   LINE      CODE     ---       #747
      00FF7943H   LINE      CODE     ---       #781
      00FF7948H   LINE      CODE     ---       #782
      00FF7955H   LINE      CODE     ---       #783
      00FF7962H   LINE      CODE     ---       #784
      00FF7967H   LINE      CODE     ---       #785
      00FF7974H   LINE      CODE     ---       #786
L251 LINKER/LOCATER V4.66.93.0                                                        10/07/2023  15:37:24  PAGE 76


      00FF7981H   LINE      CODE     ---       #787
      00FF7986H   LINE      CODE     ---       #790
      ---         BLOCKEND  ---      ---       LVL=0

      00FF75C1H   BLOCK     CODE     ---       LVL=0
      00000B2EH   SYMBOL    EDATA    WORD      color
      00FF75C5H   BLOCK     CODE     NEAR LAB  LVL=1
      00000B30H   SYMBOL    EDATA    WORD      i
      00000B32H   SYMBOL    EDATA    WORD      j
      ---         BLOCKEND  ---      ---       LVL=1
      00FF75C1H   LINE      CODE     ---       #799
      00FF75C5H   LINE      CODE     ---       #800
      00FF75C5H   LINE      CODE     ---       #802
      00FF75D4H   LINE      CODE     ---       #803
      00FF75DCH   LINE      CODE     ---       #805
      00FF75E4H   LINE      CODE     ---       #807
      00FF75EBH   LINE      CODE     ---       #808
      00FF7605H   LINE      CODE     ---       #809
      00FF761FH   LINE      CODE     ---       #810
      ---         BLOCKEND  ---      ---       LVL=0
      00000B34H   SYMBOL    EDATA    WORD      x
      00000B36H   SYMBOL    EDATA    WORD      y
      00000B38H   SYMBOL    EDATA    WORD      color

      00FF6D42H   BLOCK     CODE     ---       LVL=0
      00000A64H   SYMBOL    EDATA    WORD      x
      00000A66H   SYMBOL    EDATA    WORD      y
      00000A68H   SYMBOL    EDATA    CHAR      dat
      00FF6D4EH   BLOCK     CODE     NEAR LAB  LVL=1
      00000A69H   SYMBOL    EDATA    BYTE      i
      00000A6AH   SYMBOL    EDATA    BYTE      j
      00000A6BH   SYMBOL    EDATA    BYTE      temp
      ---         BLOCKEND  ---      ---       LVL=1
      00FF6D42H   LINE      CODE     ---       #838
      00FF6D4EH   LINE      CODE     ---       #839
      00FF6D4EH   LINE      CODE     ---       #843
      00FF6D56H   LINE      CODE     ---       #845
      00FF6D7FH   LINE      CODE     ---       #846
      00FF6DA7H   LINE      CODE     ---       #847
      00FF6DAEH   LINE      CODE     ---       #849
      00FF6DB5H   LINE      CODE     ---       #851
      00FF6DBCH   LINE      CODE     ---       #852
      00FF6DBEH   LINE      CODE     ---       #853
      00FF6DC5H   LINE      CODE     ---       #854
      00FF6DCFH   LINE      CODE     ---       #855
      00FF6DE6H   LINE      CODE     ---       #856
      00FF6E00H   LINE      CODE     ---       #857
      ---         BLOCKEND  ---      ---       LVL=0
      00000931H   SYMBOL    EDATA    WORD      x
      00000933H   SYMBOL    EDATA    WORD      y
      00000935H   SYMBOL    EDATA    ---       dat
      00000939H   SYMBOL    EDATA    WORD      j
      000009D5H   SYMBOL    EDATA    WORD      x
      000009D7H   SYMBOL    EDATA    WORD      y
      000009D9H   SYMBOL    EDATA    CHAR      dat
      000009DAH   SYMBOL    EDATA    ---       a
      000009DDH   SYMBOL    EDATA    BYTE      i
      000009DEH   SYMBOL    EDATA    WORD      x
      000009E0H   SYMBOL    EDATA    WORD      y
      000009E2H   SYMBOL    EDATA    BYTE      dat
      000009E3H   SYMBOL    EDATA    ---       a
      000009E6H   SYMBOL    EDATA    BYTE      i
      00000857H   SYMBOL    EDATA    WORD      x
      00000859H   SYMBOL    EDATA    WORD      y
      0000085BH   SYMBOL    EDATA    INT       dat
L251 LINKER/LOCATER V4.66.93.0                                                        10/07/2023  15:37:24  PAGE 77


      0000085DH   SYMBOL    EDATA    ---       a
      00000862H   SYMBOL    EDATA    BYTE      i

      00FF6C75H   BLOCK     CODE     ---       LVL=0
      00000863H   SYMBOL    EDATA    WORD      x
      00000865H   SYMBOL    EDATA    WORD      y
      00000867H   SYMBOL    EDATA    WORD      dat
      00FF6C81H   BLOCK     CODE     NEAR LAB  LVL=1
      00000869H   SYMBOL    EDATA    ---       a
      0000086EH   SYMBOL    EDATA    BYTE      i
      ---         BLOCKEND  ---      ---       LVL=1
      00FF6C75H   LINE      CODE     ---       #980
      00FF6C81H   LINE      CODE     ---       #981
      00FF6C81H   LINE      CODE     ---       #985
      00FF6C8FH   LINE      CODE     ---       #986
      00FF6CA5H   LINE      CODE     ---       #987
      00FF6CBBH   LINE      CODE     ---       #988
      00FF6CD1H   LINE      CODE     ---       #989
      00FF6CE1H   LINE      CODE     ---       #991
      00FF6CE6H   LINE      CODE     ---       #992
      00FF6CE8H   LINE      CODE     ---       #994
      00FF6D2AH   LINE      CODE     ---       #995
      00FF6D37H   LINE      CODE     ---       #996
      00FF6D41H   LINE      CODE     ---       #997
      ---         BLOCKEND  ---      ---       LVL=0
      00000591H   SYMBOL    EDATA    WORD      x
      00000593H   SYMBOL    EDATA    WORD      y
      00000595H   SYMBOL    EDATA    LONG      dat
      00000599H   SYMBOL    EDATA    BYTE      num
      0000059AH   SYMBOL    EDATA    ---       buff
      000005BCH   SYMBOL    EDATA    BYTE      length
      0000044EH   SYMBOL    EDATA    WORD      x
      00000450H   SYMBOL    EDATA    WORD      y
      00000452H   SYMBOL    EDATA    FLOAT     dat
      00000456H   SYMBOL    EDATA    BYTE      num
      00000457H   SYMBOL    EDATA    BYTE      pointnum
      00000458H   SYMBOL    EDATA    BYTE      length
      00000459H   SYMBOL    EDATA    ---       buff
      0000047BH   SYMBOL    EDATA    CHAR      start
      0000047CH   SYMBOL    EDATA    CHAR      end
      0000047DH   SYMBOL    EDATA    CHAR      point

      ---         MODULE    ---      ---       SEEKFREE_MPU6050
      0000086FH   PUBLIC    EDATA    INT       mpu6050_acc_x
      00000871H   PUBLIC    EDATA    INT       mpu6050_acc_y
      00000873H   PUBLIC    EDATA    INT       mpu6050_acc_z
      00000875H   PUBLIC    EDATA    INT       mpu6050_gyro_x
      00000877H   PUBLIC    EDATA    INT       mpu6050_gyro_y
      00000879H   PUBLIC    EDATA    INT       mpu6050_gyro_z
      000000D0H   SFRSYM    DATA     BYTE      PSW
      0000009DH   SFRSYM    DATA     BYTE      IRCBAND
      00000097H   SFRSYM    DATA     BYTE      AUXR2
      000000EFH   SFRSYM    DATA     BYTE      AUXINTIF
      000000FDH   SFRSYM    DATA     BYTE      S4CON
      000000ACH   SFRSYM    DATA     BYTE      S3CON
      0000009AH   SFRSYM    DATA     BYTE      S2CON
      000000B7H   SFRSYM    DATA     BYTE      IPH
      000000CDH   SFRSYM    DATA     BYTE      SPSTAT
      000000DDH   SFRSYM    DATA     BYTE      T4T3M
      000000C1H   SFRSYM    DATA     BYTE      WDT_CONTR
      000000DFH   SFRSYM    DATA     BYTE      IP3
      000000F4H   SFRSYM    DATA     BYTE      USBCON
      000000B5H   SFRSYM    DATA     BYTE      IP2
      000000FFH   SFRSYM    DATA     BYTE      RSTCFG
      000000F9H   SFRSYM    DATA     BYTE      LINICR
L251 LINKER/LOCATER V4.66.93.0                                                        10/07/2023  15:37:24  PAGE 78


      0000008EH   SFRSYM    DATA     BYTE      AUXR
      000000AFH   SFRSYM    DATA     BYTE      IE2
      00000088H   SFRSYM    DATA     BYTE      TCON
      000000C0H.1 SFRSYM    DATA     BIT       P41
      00000098H   SFRSYM    DATA     BYTE      SCON
      000000C0H.0 SFRSYM    DATA     BIT       P40
      000000F1H   SFRSYM    DATA     BYTE      CANICR
      00000087H   SFRSYM    DATA     BYTE      PCON
      000000BCH   SFRSYM    DATA     BYTE      ADC_CONTR
      000000E7H   SFRSYM    DATA     BYTE      CMPCR2
      000000E6H   SFRSYM    DATA     BYTE      CMPCR1
      000000B8H   SFRSYM    DATA     BYTE      IP
      0000008FH   SFRSYM    DATA     BYTE      INTCLKO
      000000EEH   SFRSYM    DATA     BYTE      IP3H
      000000B6H   SFRSYM    DATA     BYTE      IP2H
      000000A8H   SFRSYM    DATA     BYTE      IE
      000000BBH   SFRSYM    DATA     BYTE      P_SW3
      000000BAH   SFRSYM    DATA     BYTE      P_SW2
      000000A2H   SFRSYM    DATA     BYTE      P_SW1
      000000CEH   SFRSYM    DATA     BYTE      SPCTL
      000000F8H   SFRSYM    DATA     BYTE      P7
      000000E8H   SFRSYM    DATA     BYTE      P6
      000000C8H   SFRSYM    DATA     BYTE      P5
      000000C0H   SFRSYM    DATA     BYTE      P4
      000000B0H   SFRSYM    DATA     BYTE      P3
      000000A0H   SFRSYM    DATA     BYTE      P2
      00000090H   SFRSYM    DATA     BYTE      P1
      00000080H   SFRSYM    DATA     BYTE      P0
      00FF838DH   SYMBOL    CODE     ---       mpu6050_simiic_start
      00FF82D2H   SYMBOL    CODE     ---       mpu6050_simiic_stop
      00FF8067H   SYMBOL    CODE     ---       mpu6050_simiic_sendack
      00FF821FH   SYMBOL    CODE     ---       mpu6050_simiic_delay

      00FF821FH   BLOCK     CODE     ---       LVL=0
      00000C3FH   SYMBOL    EDATA    WORD      j
      00FF821FH   LINE      CODE     ---       #52
      00FF821FH   LINE      CODE     ---       #53
      00FF821FH   LINE      CODE     ---       #54
      00FF8225H   LINE      CODE     ---       #55
      00FF823BH   LINE      CODE     ---       #56
      ---         BLOCKEND  ---      ---       LVL=0

      00FF838DH   BLOCK     CODE     ---       LVL=0
      00FF838DH   LINE      CODE     ---       #59
      00FF838DH   LINE      CODE     ---       #61
      00FF8390H   LINE      CODE     ---       #62
      00FF8393H   LINE      CODE     ---       #63
      00FF8396H   LINE      CODE     ---       #64
      00FF8399H   LINE      CODE     ---       #65
      00FF839CH   LINE      CODE     ---       #66
      00FF839FH   LINE      CODE     ---       #67
      ---         BLOCKEND  ---      ---       LVL=0

      00FF82D2H   BLOCK     CODE     ---       LVL=0
      00FF82D2H   LINE      CODE     ---       #70
      00FF82D2H   LINE      CODE     ---       #72
      00FF82D5H   LINE      CODE     ---       #73
      00FF82D8H   LINE      CODE     ---       #74
      00FF82DBH   LINE      CODE     ---       #75
      00FF82DEH   LINE      CODE     ---       #76
      00FF82E1H   LINE      CODE     ---       #77
      00FF82E4H   LINE      CODE     ---       #78
      00FF82E7H   LINE      CODE     ---       #79
      ---         BLOCKEND  ---      ---       LVL=0

L251 LINKER/LOCATER V4.66.93.0                                                        10/07/2023  15:37:24  PAGE 79


      00FF8067H   BLOCK     CODE     ---       LVL=0
      00000C5FH   SYMBOL    EDATA    BYTE      ack_dat
      00FF8067H   LINE      CODE     ---       #83
      00FF806BH   LINE      CODE     ---       #85
      00FF806EH   LINE      CODE     ---       #86
      00FF8071H   LINE      CODE     ---       #87
      00FF807FH   LINE      CODE     ---       #88
      00FF8082H   LINE      CODE     ---       #90
      00FF8085H   LINE      CODE     ---       #91
      00FF8088H   LINE      CODE     ---       #92
      00FF808BH   LINE      CODE     ---       #93
      00FF808EH   LINE      CODE     ---       #94
      ---         BLOCKEND  ---      ---       LVL=0
      00000C41H   SYMBOL    EDATA    BYTE      c
      00000C42H   SYMBOL    EDATA    BYTE      i
      00000BF6H   SYMBOL    EDATA    BYTE      ack_x
      00000BF7H   SYMBOL    EDATA    BYTE      i
      00000BF8H   SYMBOL    EDATA    BYTE      c
      00000BF9H   SYMBOL    EDATA    BYTE      dev_add
      00000BFAH   SYMBOL    EDATA    BYTE      reg
      00000BFBH   SYMBOL    EDATA    BYTE      dat
      00000BFCH   SYMBOL    EDATA    BYTE      dev_add
      00000BFDH   SYMBOL    EDATA    BYTE      reg
      00000BFEH   SYMBOL    EDATA    BYTE      dat
      00000AAFH   SYMBOL    EDATA    BYTE      dev_add
      00000AB0H   SYMBOL    EDATA    BYTE      reg
      00000AB1H   SYMBOL    EDATA    ---       dat_add
      00000AB5H   SYMBOL    EDATA    BYTE      num
      00000B3AH   SYMBOL    EDATA    ---       dat
      00000B40H   SYMBOL    EDATA    ---       dat

      ---         MODULE    ---      ---       SEEKFREE_OLED
      00FF7F09H   PUBLIC    CODE     ---       oled_set_pos
      00FF7B60H   PUBLIC    CODE     ---       oled_wrcmd
      00FF7BACH   PUBLIC    CODE     ---       oled_wrdat
      00FF7E9EH   PUBLIC    CODE     ---       oled_set_pos_spi
      00FF833CH   PUBLIC    CODE     ---       oled_wrcmd_spi
      00FF8351H   PUBLIC    CODE     ---       oled_wrdat_spi
      0000047EH   PUBLIC    EDATA    BYTE      ?oled_printf_float?BYTE
      000004AEH   PUBLIC    EDATA    BYTE      ?oled_printf_float_spi?BYTE
      000000D0H   SFRSYM    DATA     BYTE      PSW
      0000009DH   SFRSYM    DATA     BYTE      IRCBAND
      00000097H   SFRSYM    DATA     BYTE      AUXR2
      000000EFH   SFRSYM    DATA     BYTE      AUXINTIF
      000000FDH   SFRSYM    DATA     BYTE      S4CON
      000000ACH   SFRSYM    DATA     BYTE      S3CON
      0000009AH   SFRSYM    DATA     BYTE      S2CON
      000000B7H   SFRSYM    DATA     BYTE      IPH
      000000CDH   SFRSYM    DATA     BYTE      SPSTAT
      000000DDH   SFRSYM    DATA     BYTE      T4T3M
      000000C1H   SFRSYM    DATA     BYTE      WDT_CONTR
      000000DFH   SFRSYM    DATA     BYTE      IP3
      000000F4H   SFRSYM    DATA     BYTE      USBCON
      000000B5H   SFRSYM    DATA     BYTE      IP2
      000000FFH   SFRSYM    DATA     BYTE      RSTCFG
      000000F9H   SFRSYM    DATA     BYTE      LINICR
      0000008EH   SFRSYM    DATA     BYTE      AUXR
      000000AFH   SFRSYM    DATA     BYTE      IE2
      000000A0H.5 SFRSYM    DATA     BIT       P25
      00000088H   SFRSYM    DATA     BYTE      TCON
      000000A0H.3 SFRSYM    DATA     BIT       P23
      00000098H   SFRSYM    DATA     BYTE      SCON
      000000A0H.2 SFRSYM    DATA     BIT       P22
      000000A0H.1 SFRSYM    DATA     BIT       P21
      000000A0H.0 SFRSYM    DATA     BIT       P20
L251 LINKER/LOCATER V4.66.93.0                                                        10/07/2023  15:37:24  PAGE 80


      000000F1H   SFRSYM    DATA     BYTE      CANICR
      00000087H   SFRSYM    DATA     BYTE      PCON
      000000BCH   SFRSYM    DATA     BYTE      ADC_CONTR
      000000E7H   SFRSYM    DATA     BYTE      CMPCR2
      000000E6H   SFRSYM    DATA     BYTE      CMPCR1
      000000B8H   SFRSYM    DATA     BYTE      IP
      0000008FH   SFRSYM    DATA     BYTE      INTCLKO
      000000EEH   SFRSYM    DATA     BYTE      IP3H
      000000B6H   SFRSYM    DATA     BYTE      IP2H
      000000A8H   SFRSYM    DATA     BYTE      IE
      000000BBH   SFRSYM    DATA     BYTE      P_SW3
      000000BAH   SFRSYM    DATA     BYTE      P_SW2
      000000A2H   SFRSYM    DATA     BYTE      P_SW1
      000000CEH   SFRSYM    DATA     BYTE      SPCTL
      000000F8H   SFRSYM    DATA     BYTE      P7
      000000E8H   SFRSYM    DATA     BYTE      P6
      000000C8H   SFRSYM    DATA     BYTE      P5
      000000C0H   SFRSYM    DATA     BYTE      P4
      000000B0H   SFRSYM    DATA     BYTE      P3
      000000A0H   SFRSYM    DATA     BYTE      P2
      00000090H   SFRSYM    DATA     BYTE      P1
      00000080H   SFRSYM    DATA     BYTE      P0

      00FF7BACH   BLOCK     CODE     ---       LVL=0
      00000C43H   SYMBOL    EDATA    BYTE      dat
      00FF7BB0H   BLOCK     CODE     NEAR LAB  LVL=1
      00000C44H   SYMBOL    EDATA    BYTE      i
      ---         BLOCKEND  ---      ---       LVL=1
      00FF7BACH   LINE      CODE     ---       #47
      00FF7BB0H   LINE      CODE     ---       #48
      00FF7BB0H   LINE      CODE     ---       #49
      00FF7BB6H   LINE      CODE     ---       #51
      00FF7BB9H   LINE      CODE     ---       #52
      00FF7BBCH   LINE      CODE     ---       #53
      00FF7BBFH   LINE      CODE     ---       #54
      00FF7BC1H   LINE      CODE     ---       #56
      00FF7BCDH   LINE      CODE     ---       #57
      00FF7BD0H   LINE      CODE     ---       #58
      00FF7BD3H   LINE      CODE     ---       #60
      00FF7BD6H   LINE      CODE     ---       #61
      00FF7BE0H   LINE      CODE     ---       #62
      00FF7BF4H   LINE      CODE     ---       #63
      00FF7BF7H   LINE      CODE     ---       #64
      ---         BLOCKEND  ---      ---       LVL=0

      00FF7B60H   BLOCK     CODE     ---       LVL=0
      00000C45H   SYMBOL    EDATA    BYTE      cmd
      00FF7B64H   BLOCK     CODE     NEAR LAB  LVL=1
      00000C46H   SYMBOL    EDATA    BYTE      i
      ---         BLOCKEND  ---      ---       LVL=1
      00FF7B60H   LINE      CODE     ---       #98
      00FF7B64H   LINE      CODE     ---       #99
      00FF7B64H   LINE      CODE     ---       #100
      00FF7B6AH   LINE      CODE     ---       #102
      00FF7B6DH   LINE      CODE     ---       #103
      00FF7B70H   LINE      CODE     ---       #104
      00FF7B73H   LINE      CODE     ---       #106
      00FF7B75H   LINE      CODE     ---       #108
      00FF7B81H   LINE      CODE     ---       #109
      00FF7B84H   LINE      CODE     ---       #110
      00FF7B87H   LINE      CODE     ---       #112
      00FF7B8AH   LINE      CODE     ---       #113
      00FF7B94H   LINE      CODE     ---       #114
      00FF7BA8H   LINE      CODE     ---       #115
      00FF7BABH   LINE      CODE     ---       #116
L251 LINKER/LOCATER V4.66.93.0                                                        10/07/2023  15:37:24  PAGE 81


      ---         BLOCKEND  ---      ---       LVL=0
      00000A6CH   SYMBOL    EDATA    WORD      hex
      00000A6EH   SYMBOL    EDATA    ---       Print
      00000A72H   SYMBOL    EDATA    BYTE      hexcheck
      00000A73H   SYMBOL    EDATA    BYTE      TEMP

      00FF7F09H   BLOCK     CODE     ---       LVL=0
      00000C47H   SYMBOL    EDATA    BYTE      x
      00000C48H   SYMBOL    EDATA    BYTE      y
      00FF7F09H   LINE      CODE     ---       #205
      00FF7F11H   LINE      CODE     ---       #207
      00FF7F1CH   LINE      CODE     ---       #208
      00FF7F32H   LINE      CODE     ---       #209
      00FF7F3DH   LINE      CODE     ---       #210
      ---         BLOCKEND  ---      ---       LVL=0
      00000BFFH   SYMBOL    EDATA    BYTE      bmp_data
      00000C00H   SYMBOL    EDATA    BYTE      y
      00000C01H   SYMBOL    EDATA    BYTE      x
      00000C02H   SYMBOL    EDATA    BYTE      x
      00000C03H   SYMBOL    EDATA    BYTE      y
      00000C04H   SYMBOL    EDATA    BYTE      data1
      00000C49H   SYMBOL    EDATA    BYTE      x
      00000C4AH   SYMBOL    EDATA    BYTE      y
      000009E7H   SYMBOL    EDATA    BYTE      x
      000009E8H   SYMBOL    EDATA    BYTE      y
      000009E9H   SYMBOL    EDATA    ---       ch
      000009EDH   SYMBOL    EDATA    BYTE      c
      000009EEH   SYMBOL    EDATA    BYTE      i
      000009EFH   SYMBOL    EDATA    BYTE      j
      000009F0H   SYMBOL    EDATA    BYTE      x
      000009F1H   SYMBOL    EDATA    BYTE      y
      000009F2H   SYMBOL    EDATA    ---       ch
      000009F6H   SYMBOL    EDATA    BYTE      c
      000009F7H   SYMBOL    EDATA    BYTE      i
      000009F8H   SYMBOL    EDATA    BYTE      j
      000008ABH   SYMBOL    EDATA    BYTE      x
      000008ACH   SYMBOL    EDATA    BYTE      y
      000008ADH   SYMBOL    EDATA    WORD      num
      000008AFH   SYMBOL    EDATA    ---       ch
      000008B6H   SYMBOL    EDATA    BYTE      x
      000008B7H   SYMBOL    EDATA    BYTE      y
      000008B8H   SYMBOL    EDATA    INT       num
      000008BAH   SYMBOL    EDATA    ---       ch
      000005BDH   SYMBOL    EDATA    WORD      x
      000005BFH   SYMBOL    EDATA    WORD      y
      000005C1H   SYMBOL    EDATA    LONG      dat
      000005C5H   SYMBOL    EDATA    BYTE      num
      000005C6H   SYMBOL    EDATA    ---       buff
      000005E8H   SYMBOL    EDATA    BYTE      length
      0000047EH   SYMBOL    EDATA    WORD      x
      00000480H   SYMBOL    EDATA    WORD      y
      00000482H   SYMBOL    EDATA    FLOAT     dat
      00000486H   SYMBOL    EDATA    BYTE      num
      00000487H   SYMBOL    EDATA    BYTE      pointnum
      00000488H   SYMBOL    EDATA    BYTE      length
      00000489H   SYMBOL    EDATA    ---       buff
      000004ABH   SYMBOL    EDATA    CHAR      start
      000004ACH   SYMBOL    EDATA    CHAR      end
      000004ADH   SYMBOL    EDATA    CHAR      point
      00000717H   SYMBOL    EDATA    WORD      high
      00000719H   SYMBOL    EDATA    WORD      width
      0000071BH   SYMBOL    EDATA    ---       p
      0000071FH   SYMBOL    EDATA    BYTE      value
      00000720H   SYMBOL    EDATA    WORD      i
      00000722H   SYMBOL    EDATA    WORD      j
L251 LINKER/LOCATER V4.66.93.0                                                        10/07/2023  15:37:24  PAGE 82


      00000724H   SYMBOL    EDATA    WORD      temp
      00000726H   SYMBOL    EDATA    WORD      temp1
      00000728H   SYMBOL    EDATA    BYTE      dat
      00000777H   SYMBOL    EDATA    BYTE      x
      00000778H   SYMBOL    EDATA    BYTE      y
      00000779H   SYMBOL    EDATA    BYTE      size
      0000077AH   SYMBOL    EDATA    ---       p
      0000077EH   SYMBOL    EDATA    BYTE      len
      0000077FH   SYMBOL    EDATA    WORD      i
      00000781H   SYMBOL    EDATA    WORD      j
      00000783H   SYMBOL    EDATA    WORD      k

      00FF8351H   BLOCK     CODE     ---       LVL=0
      00000C60H   SYMBOL    EDATA    BYTE      dat
      00FF8351H   LINE      CODE     ---       #534
      00FF8355H   LINE      CODE     ---       #536
      00FF8358H   LINE      CODE     ---       #537
      00FF835BH   LINE      CODE     ---       #538
      00FF8362H   LINE      CODE     ---       #539
      00FF8365H   LINE      CODE     ---       #542
      ---         BLOCKEND  ---      ---       LVL=0

      00FF833CH   BLOCK     CODE     ---       LVL=0
      00000C61H   SYMBOL    EDATA    BYTE      cmd
      00FF833CH   LINE      CODE     ---       #576
      00FF8340H   LINE      CODE     ---       #578
      00FF8343H   LINE      CODE     ---       #579
      00FF8346H   LINE      CODE     ---       #580
      00FF834DH   LINE      CODE     ---       #581
      00FF8350H   LINE      CODE     ---       #582
      ---         BLOCKEND  ---      ---       LVL=0
      00000A74H   SYMBOL    EDATA    WORD      hex
      00000A76H   SYMBOL    EDATA    ---       Print
      00000A7AH   SYMBOL    EDATA    BYTE      hexcheck
      00000A7BH   SYMBOL    EDATA    BYTE      TEMP

      00FF7E9EH   BLOCK     CODE     ---       LVL=0
      00000C4BH   SYMBOL    EDATA    BYTE      x
      00000C4CH   SYMBOL    EDATA    BYTE      y
      00FF7E9EH   LINE      CODE     ---       #672
      00FF7EA6H   LINE      CODE     ---       #676
      00FF7EB1H   LINE      CODE     ---       #677
      00FF7EC8H   LINE      CODE     ---       #678
      00FF7ED3H   LINE      CODE     ---       #679
      ---         BLOCKEND  ---      ---       LVL=0
      00000C05H   SYMBOL    EDATA    BYTE      bmp_data
      00000C06H   SYMBOL    EDATA    BYTE      y
      00000C07H   SYMBOL    EDATA    BYTE      x
      00000C08H   SYMBOL    EDATA    BYTE      x
      00000C09H   SYMBOL    EDATA    BYTE      y
      00000C0AH   SYMBOL    EDATA    BYTE      data1
      00000C4DH   SYMBOL    EDATA    BYTE      x
      00000C4EH   SYMBOL    EDATA    BYTE      y
      000009F9H   SYMBOL    EDATA    BYTE      x
      000009FAH   SYMBOL    EDATA    BYTE      y
      000009FBH   SYMBOL    EDATA    ---       ch
      000009FFH   SYMBOL    EDATA    BYTE      c
      00000A00H   SYMBOL    EDATA    BYTE      i
      00000A01H   SYMBOL    EDATA    BYTE      j
      00000A02H   SYMBOL    EDATA    BYTE      x
      00000A03H   SYMBOL    EDATA    BYTE      y
      00000A04H   SYMBOL    EDATA    ---       ch
      00000A08H   SYMBOL    EDATA    BYTE      c
      00000A09H   SYMBOL    EDATA    BYTE      i
      00000A0AH   SYMBOL    EDATA    BYTE      j
L251 LINKER/LOCATER V4.66.93.0                                                        10/07/2023  15:37:24  PAGE 83


      000008C1H   SYMBOL    EDATA    BYTE      x
      000008C2H   SYMBOL    EDATA    BYTE      y
      000008C3H   SYMBOL    EDATA    WORD      num
      000008C5H   SYMBOL    EDATA    ---       ch
      000008CCH   SYMBOL    EDATA    BYTE      x
      000008CDH   SYMBOL    EDATA    BYTE      y
      000008CEH   SYMBOL    EDATA    INT       num
      000008D0H   SYMBOL    EDATA    ---       ch
      000005E9H   SYMBOL    EDATA    WORD      x
      000005EBH   SYMBOL    EDATA    WORD      y
      000005EDH   SYMBOL    EDATA    LONG      dat
      000005F1H   SYMBOL    EDATA    BYTE      num
      000005F2H   SYMBOL    EDATA    ---       buff
      00000614H   SYMBOL    EDATA    BYTE      length
      000004AEH   SYMBOL    EDATA    WORD      x
      000004B0H   SYMBOL    EDATA    WORD      y
      000004B2H   SYMBOL    EDATA    FLOAT     dat
      000004B6H   SYMBOL    EDATA    BYTE      num
      000004B7H   SYMBOL    EDATA    BYTE      pointnum
      000004B8H   SYMBOL    EDATA    BYTE      length
      000004B9H   SYMBOL    EDATA    ---       buff
      000004DBH   SYMBOL    EDATA    CHAR      start
      000004DCH   SYMBOL    EDATA    CHAR      end
      000004DDH   SYMBOL    EDATA    CHAR      point
      00000729H   SYMBOL    EDATA    WORD      high
      0000072BH   SYMBOL    EDATA    WORD      width
      0000072DH   SYMBOL    EDATA    ---       p
      00000731H   SYMBOL    EDATA    BYTE      value
      00000732H   SYMBOL    EDATA    WORD      i
      00000734H   SYMBOL    EDATA    WORD      j
      00000736H   SYMBOL    EDATA    WORD      temp
      00000738H   SYMBOL    EDATA    WORD      temp1
      0000073AH   SYMBOL    EDATA    BYTE      dat
      00000785H   SYMBOL    EDATA    BYTE      x
      00000786H   SYMBOL    EDATA    BYTE      y
      00000787H   SYMBOL    EDATA    BYTE      size
      00000788H   SYMBOL    EDATA    ---       p
      0000078CH   SYMBOL    EDATA    BYTE      len
      0000078DH   SYMBOL    EDATA    WORD      i
      0000078FH   SYMBOL    EDATA    WORD      j
      00000791H   SYMBOL    EDATA    WORD      k

      ---         MODULE    ---      ---       SEEKFREE_PRINTF
      000006B6H   PUBLIC    EDATA    BYTE      ?number_conversion_ascii?BYTE
      00000246H   PUBLIC    EDATA    BYTE      ?zf_sprintf?BYTE
      000000D0H   SFRSYM    DATA     BYTE      PSW
      0000009DH   SFRSYM    DATA     BYTE      IRCBAND
      00000097H   SFRSYM    DATA     BYTE      AUXR2
      000000EFH   SFRSYM    DATA     BYTE      AUXINTIF
      000000FDH   SFRSYM    DATA     BYTE      S4CON
      000000ACH   SFRSYM    DATA     BYTE      S3CON
      0000009AH   SFRSYM    DATA     BYTE      S2CON
      000000B7H   SFRSYM    DATA     BYTE      IPH
      000000CDH   SFRSYM    DATA     BYTE      SPSTAT
      000000DDH   SFRSYM    DATA     BYTE      T4T3M
      000000C1H   SFRSYM    DATA     BYTE      WDT_CONTR
      000000DFH   SFRSYM    DATA     BYTE      IP3
      000000F4H   SFRSYM    DATA     BYTE      USBCON
      000000B5H   SFRSYM    DATA     BYTE      IP2
      000000FFH   SFRSYM    DATA     BYTE      RSTCFG
      000000F9H   SFRSYM    DATA     BYTE      LINICR
      0000008EH   SFRSYM    DATA     BYTE      AUXR
      000000AFH   SFRSYM    DATA     BYTE      IE2
      00000088H   SFRSYM    DATA     BYTE      TCON
      00000098H   SFRSYM    DATA     BYTE      SCON
L251 LINKER/LOCATER V4.66.93.0                                                        10/07/2023  15:37:24  PAGE 84


      000000F1H   SFRSYM    DATA     BYTE      CANICR
      00000087H   SFRSYM    DATA     BYTE      PCON
      000000BCH   SFRSYM    DATA     BYTE      ADC_CONTR
      000000E7H   SFRSYM    DATA     BYTE      CMPCR2
      000000E6H   SFRSYM    DATA     BYTE      CMPCR1
      000000B8H   SFRSYM    DATA     BYTE      IP
      0000008FH   SFRSYM    DATA     BYTE      INTCLKO
      000000EEH   SFRSYM    DATA     BYTE      IP3H
      000000B6H   SFRSYM    DATA     BYTE      IP2H
      000000A8H   SFRSYM    DATA     BYTE      IE
      000000BBH   SFRSYM    DATA     BYTE      P_SW3
      000000BAH   SFRSYM    DATA     BYTE      P_SW2
      000000A2H   SFRSYM    DATA     BYTE      P_SW1
      000000CEH   SFRSYM    DATA     BYTE      SPCTL
      000000F8H   SFRSYM    DATA     BYTE      P7
      000000E8H   SFRSYM    DATA     BYTE      P6
      000000C8H   SFRSYM    DATA     BYTE      P5
      000000C0H   SFRSYM    DATA     BYTE      P4
      000000B0H   SFRSYM    DATA     BYTE      P3
      000000A0H   SFRSYM    DATA     BYTE      P2
      00000090H   SFRSYM    DATA     BYTE      P1
      00000080H   SFRSYM    DATA     BYTE      P0
      000006B6H   SYMBOL    EDATA    DWORD     dat
      000006BAH   SYMBOL    EDATA    ---       p
      000006BEH   SYMBOL    EDATA    BYTE      neg_type
      000006BFH   SYMBOL    EDATA    BYTE      radix
      000006C0H   SYMBOL    EDATA    LONG      neg_dat
      000006C4H   SYMBOL    EDATA    DWORD     pos_dat
      000006C8H   SYMBOL    EDATA    BYTE      temp_data
      000006C9H   SYMBOL    EDATA    BYTE      valid_num
      000007AEH   SYMBOL    EDATA    ---       d_buff
      000007B2H   SYMBOL    EDATA    DWORD     len
      000007B6H   SYMBOL    EDATA    DWORD     i
      000007BAH   SYMBOL    EDATA    CHAR      temp_data
      00000246H   SYMBOL    EDATA    ---       buff
      0000024AH   SYMBOL    EDATA    ---       format
      0000024EH   SYMBOL    EDATA    DWORD     buff_len
      00000252H   SYMBOL    EDATA    ---       arg
      00000256H   SYMBOL    EDATA    CHAR      ret
      00000257H   SYMBOL    EDATA    CHAR      ch
      00000257H   SYMBOL    EDATA    ---       vstr
      00000278H   SYMBOL    EDATA    LONG      ival
      0000027CH   SYMBOL    EDATA    BYTE      vlen
      00000257H   SYMBOL    EDATA    ---       vstr
      00000278H   SYMBOL    EDATA    FLOAT     ival
      0000027CH   SYMBOL    EDATA    BYTE      vlen
      00000257H   SYMBOL    EDATA    ---       vstr
      00000278H   SYMBOL    EDATA    DWORD     ival
      0000027CH   SYMBOL    EDATA    BYTE      vlen
      00000257H   SYMBOL    EDATA    ---       vstr
      00000278H   SYMBOL    EDATA    DWORD     ival
      0000027CH   SYMBOL    EDATA    BYTE      vlen
      00000257H   SYMBOL    EDATA    ---       vstr
      00000278H   SYMBOL    EDATA    DWORD     ival
      0000027CH   SYMBOL    EDATA    BYTE      vlen
      00000257H   SYMBOL    EDATA    ---       pc
      00000257H   SYMBOL    EDATA    ---       vstr
      00000278H   SYMBOL    EDATA    DWORD     ival

      ---         MODULE    ---      ---       SEEKFREE_VIRSCO
      0000093BH   PUBLIC    EDATA    ---       virtual_scope_data
      00000793H   PUBLIC    EDATA    BYTE      ?data_conversion?BYTE
      000000D0H   SFRSYM    DATA     BYTE      PSW
      0000009DH   SFRSYM    DATA     BYTE      IRCBAND
      00000097H   SFRSYM    DATA     BYTE      AUXR2
L251 LINKER/LOCATER V4.66.93.0                                                        10/07/2023  15:37:24  PAGE 85


      000000EFH   SFRSYM    DATA     BYTE      AUXINTIF
      000000FDH   SFRSYM    DATA     BYTE      S4CON
      000000ACH   SFRSYM    DATA     BYTE      S3CON
      0000009AH   SFRSYM    DATA     BYTE      S2CON
      000000B7H   SFRSYM    DATA     BYTE      IPH
      000000CDH   SFRSYM    DATA     BYTE      SPSTAT
      000000DDH   SFRSYM    DATA     BYTE      T4T3M
      000000C1H   SFRSYM    DATA     BYTE      WDT_CONTR
      000000DFH   SFRSYM    DATA     BYTE      IP3
      000000F4H   SFRSYM    DATA     BYTE      USBCON
      000000B5H   SFRSYM    DATA     BYTE      IP2
      000000FFH   SFRSYM    DATA     BYTE      RSTCFG
      000000F9H   SFRSYM    DATA     BYTE      LINICR
      0000008EH   SFRSYM    DATA     BYTE      AUXR
      000000AFH   SFRSYM    DATA     BYTE      IE2
      00000088H   SFRSYM    DATA     BYTE      TCON
      00000098H   SFRSYM    DATA     BYTE      SCON
      000000F1H   SFRSYM    DATA     BYTE      CANICR
      00000087H   SFRSYM    DATA     BYTE      PCON
      000000BCH   SFRSYM    DATA     BYTE      ADC_CONTR
      000000E7H   SFRSYM    DATA     BYTE      CMPCR2
      000000E6H   SFRSYM    DATA     BYTE      CMPCR1
      000000B8H   SFRSYM    DATA     BYTE      IP
      0000008FH   SFRSYM    DATA     BYTE      INTCLKO
      000000EEH   SFRSYM    DATA     BYTE      IP3H
      000000B6H   SFRSYM    DATA     BYTE      IP2H
      000000A8H   SFRSYM    DATA     BYTE      IE
      000000BBH   SFRSYM    DATA     BYTE      P_SW3
      000000BAH   SFRSYM    DATA     BYTE      P_SW2
      000000A2H   SFRSYM    DATA     BYTE      P_SW1
      000000CEH   SFRSYM    DATA     BYTE      SPCTL
      000000F8H   SFRSYM    DATA     BYTE      P7
      000000E8H   SFRSYM    DATA     BYTE      P6
      000000C8H   SFRSYM    DATA     BYTE      P5
      000000C0H   SFRSYM    DATA     BYTE      P4
      000000B0H   SFRSYM    DATA     BYTE      P3
      000000A0H   SFRSYM    DATA     BYTE      P2
      00000090H   SFRSYM    DATA     BYTE      P1
      00000080H   SFRSYM    DATA     BYTE      P0
      00000A0BH   SYMBOL    EDATA    ---       Buf
      00000A0FH   SYMBOL    EDATA    BYTE      CRC_CNT
      00000A10H   SYMBOL    EDATA    WORD      CRC_Temp
      00000A12H   SYMBOL    EDATA    BYTE      i
      00000A13H   SYMBOL    EDATA    BYTE      j
      00000793H   SYMBOL    EDATA    INT       data1
      00000795H   SYMBOL    EDATA    INT       data2
      00000797H   SYMBOL    EDATA    INT       data3
      00000799H   SYMBOL    EDATA    INT       data4
      0000079BH   SYMBOL    EDATA    ---       dat
      0000079FH   SYMBOL    EDATA    WORD      CRC16

      ---         MODULE    ---      ---       SEEKFREE_WIRELESS
      00FF8270H   PUBLIC    CODE     ---       wireless_uart_callback
      000000D0H   SFRSYM    DATA     BYTE      PSW
      0000009DH   SFRSYM    DATA     BYTE      IRCBAND
      00000097H   SFRSYM    DATA     BYTE      AUXR2
      000000EFH   SFRSYM    DATA     BYTE      AUXINTIF
      000000FDH   SFRSYM    DATA     BYTE      S4CON
      000000ACH   SFRSYM    DATA     BYTE      S3CON
      0000009AH   SFRSYM    DATA     BYTE      S2CON
      000000FEH   SFRSYM    DATA     BYTE      S4BUF
      000000B7H   SFRSYM    DATA     BYTE      IPH
      000000CDH   SFRSYM    DATA     BYTE      SPSTAT
      000000DDH   SFRSYM    DATA     BYTE      T4T3M
      000000C1H   SFRSYM    DATA     BYTE      WDT_CONTR
L251 LINKER/LOCATER V4.66.93.0                                                        10/07/2023  15:37:24  PAGE 86


      000000DFH   SFRSYM    DATA     BYTE      IP3
      000000F4H   SFRSYM    DATA     BYTE      USBCON
      000000B5H   SFRSYM    DATA     BYTE      IP2
      000000FFH   SFRSYM    DATA     BYTE      RSTCFG
      000000F9H   SFRSYM    DATA     BYTE      LINICR
      0000008EH   SFRSYM    DATA     BYTE      AUXR
      000000AFH   SFRSYM    DATA     BYTE      IE2
      00000080H.7 SFRSYM    DATA     BIT       P07
      00000088H   SFRSYM    DATA     BYTE      TCON
      00000098H   SFRSYM    DATA     BYTE      SCON
      000000F1H   SFRSYM    DATA     BYTE      CANICR
      00000087H   SFRSYM    DATA     BYTE      PCON
      000000BCH   SFRSYM    DATA     BYTE      ADC_CONTR
      000000E7H   SFRSYM    DATA     BYTE      CMPCR2
      000000E6H   SFRSYM    DATA     BYTE      CMPCR1
      000000B8H   SFRSYM    DATA     BYTE      IP
      0000008FH   SFRSYM    DATA     BYTE      INTCLKO
      000000EEH   SFRSYM    DATA     BYTE      IP3H
      000000B6H   SFRSYM    DATA     BYTE      IP2H
      000000A8H   SFRSYM    DATA     BYTE      IE
      000000BBH   SFRSYM    DATA     BYTE      P_SW3
      000000BAH   SFRSYM    DATA     BYTE      P_SW2
      000000A2H   SFRSYM    DATA     BYTE      P_SW1
      000000CEH   SFRSYM    DATA     BYTE      SPCTL
      000000F8H   SFRSYM    DATA     BYTE      P7
      000000E8H   SFRSYM    DATA     BYTE      P6
      000000C8H   SFRSYM    DATA     BYTE      P5
      000000C0H   SFRSYM    DATA     BYTE      P4
      000000B0H   SFRSYM    DATA     BYTE      P3
      000000A0H   SFRSYM    DATA     BYTE      P2
      00000090H   SFRSYM    DATA     BYTE      P1
      00000080H   SFRSYM    DATA     BYTE      P0
      000002D2H   SYMBOL    EDATA    BYTE      wireless_uart_data
      000002D3H   SYMBOL    EDATA    ---       wireless_uart_fifo
      000002E7H   SYMBOL    EDATA    ---       wireless_uart_buffer

      00FF8270H   BLOCK     CODE     ---       LVL=0
      00FF8270H   LINE      CODE     ---       #48
      00FF8270H   LINE      CODE     ---       #51
      00FF8276H   LINE      CODE     ---       #52
      00FF8289H   LINE      CODE     ---       #53
      ---         BLOCKEND  ---      ---       LVL=0
      00000B46H   SYMBOL    EDATA    ---       buff
      00000B4AH   SYMBOL    EDATA    WORD      len
      0000087BH   SYMBOL    EDATA    ---       buff
      0000087FH   SYMBOL    EDATA    DWORD     len
      00000883H   SYMBOL    EDATA    DWORD     data_len

      ---         MODULE    ---      ---       SEEKFREE_WIRELESS_CH573
      00FF828AH   PUBLIC    CODE     ---       wireless_ch573_callback
      000000D0H   SFRSYM    DATA     BYTE      PSW
      0000009DH   SFRSYM    DATA     BYTE      IRCBAND
      00000097H   SFRSYM    DATA     BYTE      AUXR2
      000000EFH   SFRSYM    DATA     BYTE      AUXINTIF
      000000FDH   SFRSYM    DATA     BYTE      S4CON
      000000ACH   SFRSYM    DATA     BYTE      S3CON
      0000009AH   SFRSYM    DATA     BYTE      S2CON
      000000FEH   SFRSYM    DATA     BYTE      S4BUF
      000000B7H   SFRSYM    DATA     BYTE      IPH
      000000CDH   SFRSYM    DATA     BYTE      SPSTAT
      000000DDH   SFRSYM    DATA     BYTE      T4T3M
      000000C1H   SFRSYM    DATA     BYTE      WDT_CONTR
      000000DFH   SFRSYM    DATA     BYTE      IP3
      000000F4H   SFRSYM    DATA     BYTE      USBCON
      000000B5H   SFRSYM    DATA     BYTE      IP2
L251 LINKER/LOCATER V4.66.93.0                                                        10/07/2023  15:37:24  PAGE 87


      000000FFH   SFRSYM    DATA     BYTE      RSTCFG
      000000F9H   SFRSYM    DATA     BYTE      LINICR
      0000008EH   SFRSYM    DATA     BYTE      AUXR
      000000AFH   SFRSYM    DATA     BYTE      IE2
      00000080H.7 SFRSYM    DATA     BIT       P07
      00000088H   SFRSYM    DATA     BYTE      TCON
      00000098H   SFRSYM    DATA     BYTE      SCON
      000000F1H   SFRSYM    DATA     BYTE      CANICR
      00000087H   SFRSYM    DATA     BYTE      PCON
      000000BCH   SFRSYM    DATA     BYTE      ADC_CONTR
      000000E7H   SFRSYM    DATA     BYTE      CMPCR2
      000000E6H   SFRSYM    DATA     BYTE      CMPCR1
      000000B8H   SFRSYM    DATA     BYTE      IP
      0000008FH   SFRSYM    DATA     BYTE      INTCLKO
      000000EEH   SFRSYM    DATA     BYTE      IP3H
      000000B6H   SFRSYM    DATA     BYTE      IP2H
      000000A8H   SFRSYM    DATA     BYTE      IE
      000000BBH   SFRSYM    DATA     BYTE      P_SW3
      000000BAH   SFRSYM    DATA     BYTE      P_SW2
      000000A2H   SFRSYM    DATA     BYTE      P_SW1
      000000CEH   SFRSYM    DATA     BYTE      SPCTL
      000000F8H   SFRSYM    DATA     BYTE      P7
      000000E8H   SFRSYM    DATA     BYTE      P6
      000000C8H   SFRSYM    DATA     BYTE      P5
      000000C0H   SFRSYM    DATA     BYTE      P4
      000000B0H   SFRSYM    DATA     BYTE      P3
      000000A0H   SFRSYM    DATA     BYTE      P2
      00000090H   SFRSYM    DATA     BYTE      P1
      00000080H   SFRSYM    DATA     BYTE      P0
      00000327H   SYMBOL    EDATA    ---       wireless_ch573_buffer
      00000367H   SYMBOL    EDATA    BYTE      wireless_ch573_data
      00000368H   SYMBOL    EDATA    ---       wireless_ch573_fifo

      00FF828AH   BLOCK     CODE     ---       LVL=0
      00FF828AH   LINE      CODE     ---       #47
      00FF828AH   LINE      CODE     ---       #50
      00FF8290H   LINE      CODE     ---       #51
      00FF82A3H   LINE      CODE     ---       #52
      ---         BLOCKEND  ---      ---       LVL=0
      00000B4CH   SYMBOL    EDATA    ---       buff
      00000B50H   SYMBOL    EDATA    WORD      len
      00000887H   SYMBOL    EDATA    ---       buff
      0000088BH   SYMBOL    EDATA    DWORD     len
      0000088FH   SYMBOL    EDATA    DWORD     data_len

      ---         MODULE    ---      ---       isr
      00FF7CD5H   PUBLIC    CODE     ---       UART1_Isr
      00FF81E3H   PUBLIC    CODE     ---       UART2_Isr
      00FF8201H   PUBLIC    CODE     ---       UART3_Isr
      00FF7274H   PUBLIC    CODE     ---       UART4_Isr
      00FF0046H   PUBLIC    CODE     ---       INT0_Isr
      00FF000AH   PUBLIC    CODE     ---       INT1_Isr
      00FF83C4H   PUBLIC    CODE     ---       INT2_Isr
      00FF83CCH   PUBLIC    CODE     ---       INT3_Isr
      00FF83D4H   PUBLIC    CODE     ---       INT4_Isr
      00FF000EH   PUBLIC    CODE     ---       TM0_Isr
      00FF7DE3H   PUBLIC    CODE     ---       TM1_Isr
      00FF83DCH   PUBLIC    CODE     ---       TM2_Isr
      00FF83E4H   PUBLIC    CODE     ---       TM3_Isr
      00FF83ECH   PUBLIC    CODE     ---       TM4_Isr
      000000D0H   SFRSYM    DATA     BYTE      PSW
      0000009DH   SFRSYM    DATA     BYTE      IRCBAND
      00000097H   SFRSYM    DATA     BYTE      AUXR2
      000000EFH   SFRSYM    DATA     BYTE      AUXINTIF
      000000FDH   SFRSYM    DATA     BYTE      S4CON
L251 LINKER/LOCATER V4.66.93.0                                                        10/07/2023  15:37:24  PAGE 88


      000000ACH   SFRSYM    DATA     BYTE      S3CON
      0000009AH   SFRSYM    DATA     BYTE      S2CON
      000000B7H   SFRSYM    DATA     BYTE      IPH
      000000CDH   SFRSYM    DATA     BYTE      SPSTAT
      000000DDH   SFRSYM    DATA     BYTE      T4T3M
      000000C1H   SFRSYM    DATA     BYTE      WDT_CONTR
      000000DFH   SFRSYM    DATA     BYTE      IP3
      000000F4H   SFRSYM    DATA     BYTE      USBCON
      000000B5H   SFRSYM    DATA     BYTE      IP2
      000000FFH   SFRSYM    DATA     BYTE      RSTCFG
      000000C7H   SFRSYM    DATA     BYTE      IAP_CONTR
      000000F9H   SFRSYM    DATA     BYTE      LINICR
      0000008EH   SFRSYM    DATA     BYTE      AUXR
      000000AFH   SFRSYM    DATA     BYTE      IE2
      000000C8H.2 SFRSYM    DATA     BIT       P52
      00000088H   SFRSYM    DATA     BYTE      TCON
      00000098H   SFRSYM    DATA     BYTE      SCON
      000000F1H   SFRSYM    DATA     BYTE      CANICR
      00000087H   SFRSYM    DATA     BYTE      PCON
      00000099H   SFRSYM    DATA     BYTE      SBUF
      000000BCH   SFRSYM    DATA     BYTE      ADC_CONTR
      000000E7H   SFRSYM    DATA     BYTE      CMPCR2
      000000E6H   SFRSYM    DATA     BYTE      CMPCR1
      000000B8H   SFRSYM    DATA     BYTE      IP
      0000008FH   SFRSYM    DATA     BYTE      INTCLKO
      000000EEH   SFRSYM    DATA     BYTE      IP3H
      000000B6H   SFRSYM    DATA     BYTE      IP2H
      000000A8H   SFRSYM    DATA     BYTE      IE
      000000BBH   SFRSYM    DATA     BYTE      P_SW3
      000000BAH   SFRSYM    DATA     BYTE      P_SW2
      000000A2H   SFRSYM    DATA     BYTE      P_SW1
      000000CEH   SFRSYM    DATA     BYTE      SPCTL
      000000F8H   SFRSYM    DATA     BYTE      P7
      000000E8H   SFRSYM    DATA     BYTE      P6
      000000C8H   SFRSYM    DATA     BYTE      P5
      000000C0H   SFRSYM    DATA     BYTE      P4
      000000B0H   SFRSYM    DATA     BYTE      P3
      000000A0H   SFRSYM    DATA     BYTE      P2
      00000090H   SFRSYM    DATA     BYTE      P1
      00000080H   SFRSYM    DATA     BYTE      P0

      00FF7CD5H   BLOCK     CODE     ---       LVL=0
      00FF7CD9H   BLOCK     CODE     NEAR LAB  LVL=1
      00000C62H   SYMBOL    EDATA    BYTE      res
      00000C63H   SYMBOL    EDATA    BYTE      dwon_count
      ---         BLOCKEND  ---      ---       LVL=1
      00FF7CD5H   LINE      CODE     ---       #29
      00FF7CD9H   LINE      CODE     ---       #30
      00FF7CD9H   LINE      CODE     ---       #33
      00FF7CDEH   LINE      CODE     ---       #35
      00FF7CE1H   LINE      CODE     ---       #36
      00FF7CE6H   LINE      CODE     ---       #37
      00FF7CE6H   LINE      CODE     ---       #38
      00FF7CEBH   LINE      CODE     ---       #40
      00FF7CEEH   LINE      CODE     ---       #41
      00FF7CF4H   LINE      CODE     ---       #43
      00FF7CF9H   LINE      CODE     ---       #45
      00FF7D0BH   LINE      CODE     ---       #46
      00FF7D0FH   LINE      CODE     ---       #47
      00FF7D11H   LINE      CODE     ---       #50
      00FF7D16H   LINE      CODE     ---       #51
      00FF7D16H   LINE      CODE     ---       #52
      ---         BLOCKEND  ---      ---       LVL=0

      00FF81E3H   BLOCK     CODE     ---       LVL=0
L251 LINKER/LOCATER V4.66.93.0                                                        10/07/2023  15:37:24  PAGE 89


      00FF81E3H   LINE      CODE     ---       #56
      00FF81E7H   LINE      CODE     ---       #58
      00FF81ECH   LINE      CODE     ---       #60
      00FF81EFH   LINE      CODE     ---       #61
      00FF81F4H   LINE      CODE     ---       #62
      00FF81F4H   LINE      CODE     ---       #63
      00FF81F9H   LINE      CODE     ---       #65
      00FF81FCH   LINE      CODE     ---       #68
      ---         BLOCKEND  ---      ---       LVL=0

      00FF8201H   BLOCK     CODE     ---       LVL=0
      00FF8201H   LINE      CODE     ---       #73
      00FF8205H   LINE      CODE     ---       #75
      00FF820AH   LINE      CODE     ---       #77
      00FF820DH   LINE      CODE     ---       #78
      00FF8212H   LINE      CODE     ---       #79
      00FF8212H   LINE      CODE     ---       #80
      00FF8217H   LINE      CODE     ---       #82
      00FF821AH   LINE      CODE     ---       #85
      ---         BLOCKEND  ---      ---       LVL=0

      00FF7274H   BLOCK     CODE     ---       LVL=0
      00FF7274H   LINE      CODE     ---       #90
      00FF728AH   LINE      CODE     ---       #92
      00FF728FH   LINE      CODE     ---       #94
      00FF7292H   LINE      CODE     ---       #95
      00FF7297H   LINE      CODE     ---       #96
      00FF7297H   LINE      CODE     ---       #97
      00FF729CH   LINE      CODE     ---       #99
      00FF729FH   LINE      CODE     ---       #102
      00FF72ABH   LINE      CODE     ---       #104
      00FF72AEH   LINE      CODE     ---       #105
      00FF72B0H   LINE      CODE     ---       #106
      00FF72BCH   LINE      CODE     ---       #108
      00FF72BFH   LINE      CODE     ---       #109
      00FF72C1H   LINE      CODE     ---       #110
      00FF72CDH   LINE      CODE     ---       #112
      00FF72D0H   LINE      CODE     ---       #113
      00FF72D0H   LINE      CODE     ---       #115
      ---         BLOCKEND  ---      ---       LVL=0

      00FF0046H   BLOCK     CODE     ---       LVL=0
      00FF0046H   LINE      CODE     ---       #118
      00FF0048H   LINE      CODE     ---       #120
      00FF004BH   LINE      CODE     ---       #121
      ---         BLOCKEND  ---      ---       LVL=0

      00FF000AH   BLOCK     CODE     ---       LVL=0
      00FF000AH   LINE      CODE     ---       #122
      00FF000AH   LINE      CODE     ---       #125
      ---         BLOCKEND  ---      ---       LVL=0

      00FF83C4H   BLOCK     CODE     ---       LVL=0
      00FF83C4H   LINE      CODE     ---       #126
      00FF83C6H   LINE      CODE     ---       #128
      00FF83C9H   LINE      CODE     ---       #129
      ---         BLOCKEND  ---      ---       LVL=0

      00FF83CCH   BLOCK     CODE     ---       LVL=0
      00FF83CCH   LINE      CODE     ---       #130
      00FF83CEH   LINE      CODE     ---       #132
      00FF83D1H   LINE      CODE     ---       #133
      ---         BLOCKEND  ---      ---       LVL=0

      00FF83D4H   BLOCK     CODE     ---       LVL=0
L251 LINKER/LOCATER V4.66.93.0                                                        10/07/2023  15:37:24  PAGE 90


      00FF83D4H   LINE      CODE     ---       #135
      00FF83D6H   LINE      CODE     ---       #137
      00FF83D9H   LINE      CODE     ---       #138
      ---         BLOCKEND  ---      ---       LVL=0

      00FF000EH   BLOCK     CODE     ---       LVL=0
      00FF000EH   LINE      CODE     ---       #139
      00FF000EH   LINE      CODE     ---       #141
      ---         BLOCKEND  ---      ---       LVL=0

      00FF7DE3H   BLOCK     CODE     ---       LVL=0
      00FF7DE3H   LINE      CODE     ---       #142
      00FF7DF9H   LINE      CODE     ---       #144
      00FF7DFCH   LINE      CODE     ---       #145
      00FF7E03H   LINE      CODE     ---       #146
      00FF7E06H   LINE      CODE     ---       #147
      00FF7E09H   LINE      CODE     ---       #148
      00FF7E0CH   LINE      CODE     ---       #149
      ---         BLOCKEND  ---      ---       LVL=0

      00FF83DCH   BLOCK     CODE     ---       LVL=0
      00FF83DCH   LINE      CODE     ---       #150
      00FF83DEH   LINE      CODE     ---       #152
      00FF83E1H   LINE      CODE     ---       #153
      ---         BLOCKEND  ---      ---       LVL=0

      00FF83E4H   BLOCK     CODE     ---       LVL=0
      00FF83E4H   LINE      CODE     ---       #154
      00FF83E6H   LINE      CODE     ---       #156
      00FF83E9H   LINE      CODE     ---       #157
      ---         BLOCKEND  ---      ---       LVL=0

      00FF83ECH   BLOCK     CODE     ---       LVL=0
      00FF83ECH   LINE      CODE     ---       #160
      00FF83EEH   LINE      CODE     ---       #162
      00FF83F1H   LINE      CODE     ---       #167
      ---         BLOCKEND  ---      ---       LVL=0

      ---         MODULE    ---      ---       main
      00FF7788H   PUBLIC    CODE     ---       main
      00000C4FH   PUBLIC    EDATA    INT       protect_motor
      000000D0H   SFRSYM    DATA     BYTE      PSW
      0000009DH   SFRSYM    DATA     BYTE      IRCBAND
      00000097H   SFRSYM    DATA     BYTE      AUXR2
      000000EFH   SFRSYM    DATA     BYTE      AUXINTIF
      000000FDH   SFRSYM    DATA     BYTE      S4CON
      000000ACH   SFRSYM    DATA     BYTE      S3CON
      0000009AH   SFRSYM    DATA     BYTE      S2CON
      000000B7H   SFRSYM    DATA     BYTE      IPH
      000000CDH   SFRSYM    DATA     BYTE      SPSTAT
      000000DDH   SFRSYM    DATA     BYTE      T4T3M
      000000C1H   SFRSYM    DATA     BYTE      WDT_CONTR
      000000DFH   SFRSYM    DATA     BYTE      IP3
      000000F4H   SFRSYM    DATA     BYTE      USBCON
      000000B5H   SFRSYM    DATA     BYTE      IP2
      000000FFH   SFRSYM    DATA     BYTE      RSTCFG
      000000F9H   SFRSYM    DATA     BYTE      LINICR
      0000008EH   SFRSYM    DATA     BYTE      AUXR
      000000AFH   SFRSYM    DATA     BYTE      IE2
      00000088H   SFRSYM    DATA     BYTE      TCON
      00000098H   SFRSYM    DATA     BYTE      SCON
      000000F1H   SFRSYM    DATA     BYTE      CANICR
      00000087H   SFRSYM    DATA     BYTE      PCON
      000000BCH   SFRSYM    DATA     BYTE      ADC_CONTR
      000000E7H   SFRSYM    DATA     BYTE      CMPCR2
L251 LINKER/LOCATER V4.66.93.0                                                        10/07/2023  15:37:24  PAGE 91


      000000E6H   SFRSYM    DATA     BYTE      CMPCR1
      000000B8H   SFRSYM    DATA     BYTE      IP
      0000008FH   SFRSYM    DATA     BYTE      INTCLKO
      000000EEH   SFRSYM    DATA     BYTE      IP3H
      000000B6H   SFRSYM    DATA     BYTE      IP2H
      000000A8H   SFRSYM    DATA     BYTE      IE
      000000BBH   SFRSYM    DATA     BYTE      P_SW3
      000000BAH   SFRSYM    DATA     BYTE      P_SW2
      000000A2H   SFRSYM    DATA     BYTE      P_SW1
      000000CEH   SFRSYM    DATA     BYTE      SPCTL
      000000F8H   SFRSYM    DATA     BYTE      P7
      000000E8H   SFRSYM    DATA     BYTE      P6
      000000C8H   SFRSYM    DATA     BYTE      P5
      000000C0H   SFRSYM    DATA     BYTE      P4
      000000B0H   SFRSYM    DATA     BYTE      P3
      000000A0H   SFRSYM    DATA     BYTE      P2
      00000090H   SFRSYM    DATA     BYTE      P1
      00000080H   SFRSYM    DATA     BYTE      P0

      00FF7788H   BLOCK     CODE     ---       LVL=0
      00FF7788H   LINE      CODE     ---       #38
      00FF7788H   LINE      CODE     ---       #40
      00FF778BH   LINE      CODE     ---       #43
      00FF778EH   LINE      CODE     ---       #44
      00FF7791H   LINE      CODE     ---       #45
      00FF7791H   LINE      CODE     ---       #48
      00FF7798H   LINE      CODE     ---       #51
      00FF77AAH   LINE      CODE     ---       #52
      00FF77BEH   LINE      CODE     ---       #58
      00FF77C8H   LINE      CODE     ---       #59
      00FF77D5H   LINE      CODE     ---       #60
      00FF77DCH   LINE      CODE     ---       #62
      00FF77DEH   LINE      CODE     ---       #63
      ---         BLOCKEND  ---      ---       LVL=0

      ---         MODULE    ---      ---       allinit
      00FF8120H   PUBLIC    CODE     ---       all_init
      00FF82A4H   PUBLIC    CODE     ---       Timer_Init
      000000D0H   SFRSYM    DATA     BYTE      PSW
      0000009DH   SFRSYM    DATA     BYTE      IRCBAND
      00000097H   SFRSYM    DATA     BYTE      AUXR2
      000000EFH   SFRSYM    DATA     BYTE      AUXINTIF
      000000FDH   SFRSYM    DATA     BYTE      S4CON
      000000ACH   SFRSYM    DATA     BYTE      S3CON
      0000009AH   SFRSYM    DATA     BYTE      S2CON
      000000B7H   SFRSYM    DATA     BYTE      IPH
      000000CDH   SFRSYM    DATA     BYTE      SPSTAT
      000000DDH   SFRSYM    DATA     BYTE      T4T3M
      000000C1H   SFRSYM    DATA     BYTE      WDT_CONTR
      000000DFH   SFRSYM    DATA     BYTE      IP3
      000000F4H   SFRSYM    DATA     BYTE      USBCON
      000000B5H   SFRSYM    DATA     BYTE      IP2
      000000FFH   SFRSYM    DATA     BYTE      RSTCFG
      000000F9H   SFRSYM    DATA     BYTE      LINICR
      0000008EH   SFRSYM    DATA     BYTE      AUXR
      000000AFH   SFRSYM    DATA     BYTE      IE2
      00000088H   SFRSYM    DATA     BYTE      TCON
      00000098H   SFRSYM    DATA     BYTE      SCON
      000000F1H   SFRSYM    DATA     BYTE      CANICR
      00000087H   SFRSYM    DATA     BYTE      PCON
      000000BCH   SFRSYM    DATA     BYTE      ADC_CONTR
      000000E7H   SFRSYM    DATA     BYTE      CMPCR2
      000000E6H   SFRSYM    DATA     BYTE      CMPCR1
      000000B8H   SFRSYM    DATA     BYTE      IP
      0000008FH   SFRSYM    DATA     BYTE      INTCLKO
L251 LINKER/LOCATER V4.66.93.0                                                        10/07/2023  15:37:24  PAGE 92


      000000EEH   SFRSYM    DATA     BYTE      IP3H
      000000B6H   SFRSYM    DATA     BYTE      IP2H
      000000A8H   SFRSYM    DATA     BYTE      IE
      000000BBH   SFRSYM    DATA     BYTE      P_SW3
      000000BAH   SFRSYM    DATA     BYTE      P_SW2
      000000A2H   SFRSYM    DATA     BYTE      P_SW1
      000000CEH   SFRSYM    DATA     BYTE      SPCTL
      000000F8H   SFRSYM    DATA     BYTE      P7
      000000E8H   SFRSYM    DATA     BYTE      P6
      000000C8H   SFRSYM    DATA     BYTE      P5
      000000C0H   SFRSYM    DATA     BYTE      P4
      000000B0H   SFRSYM    DATA     BYTE      P3
      000000A0H   SFRSYM    DATA     BYTE      P2
      00000090H   SFRSYM    DATA     BYTE      P1
      00000080H   SFRSYM    DATA     BYTE      P0

      00FF82A4H   BLOCK     CODE     ---       LVL=0
      00FF82A4H   LINE      CODE     ---       #5
      00FF82A4H   LINE      CODE     ---       #6
      00FF82A9H   LINE      CODE     ---       #7
      00FF82B0H   LINE      CODE     ---       #8
      00FF82BBH   LINE      CODE     ---       #9
      ---         BLOCKEND  ---      ---       LVL=0

      00FF8120H   BLOCK     CODE     ---       LVL=0
      00FF8120H   LINE      CODE     ---       #13
      00FF8120H   LINE      CODE     ---       #15
      00FF8123H   LINE      CODE     ---       #16
      00FF8126H   LINE      CODE     ---       #17
      00FF8129H   LINE      CODE     ---       #18
      00FF812CH   LINE      CODE     ---       #19
      00FF812FH   LINE      CODE     ---       #20
      00FF8138H   LINE      CODE     ---       #21
      00FF8141H   LINE      CODE     ---       #22
      ---         BLOCKEND  ---      ---       LVL=0

      ---         MODULE    ---      ---       EM
      00FF54FFH   PUBLIC    CODE     ---       EM_adc
      00FF6193H   PUBLIC    CODE     ---       ADC_Normalization1
      00000008H   PUBLIC    EDATA    FLOAT     distance_R
      0000000CH   PUBLIC    EDATA    FLOAT     ADC_ALL
      00000010H   PUBLIC    EDATA    ---       AD_MinValue
      00000020H   PUBLIC    EDATA    ---       AD_MaxValue
      00000030H   PUBLIC    EDATA    FLOAT     AD_M_Right
      00000034H   PUBLIC    EDATA    ---       ADC_Final
      00000054H   PUBLIC    EDATA    FLOAT     AD_M_Lift
      00000058H   PUBLIC    EDATA    ---       adc
      00000068H   PUBLIC    EDATA    FLOAT     ADC_LD
      0000006CH   PUBLIC    EDATA    FLOAT     ADC_MD
      00000070H   PUBLIC    EDATA    FLOAT     ADC_RD
      00000074H   PUBLIC    EDATA    FLOAT     RightAverage
      00000078H   PUBLIC    EDATA    FLOAT     ADC_LM
      0000007CH   PUBLIC    EDATA    FLOAT     ADC_RM
      00000080H   PUBLIC    EDATA    ---       RightADC
      000000A8H   PUBLIC    EDATA    FLOAT     LeftAverage
      000000ACH   PUBLIC    EDATA    FLOAT     distance
      000000B0H   PUBLIC    EDATA    ---       LeftADC
      000000D8H   PUBLIC    EDATA    FLOAT     ADC_L
      000000DCH   PUBLIC    EDATA    FLOAT     ADC_M
      000000E0H   PUBLIC    EDATA    FLOAT     ADC_R
      000000E4H   PUBLIC    EDATA    FLOAT     distance_L
      000000D0H   SFRSYM    DATA     BYTE      PSW
      0000009DH   SFRSYM    DATA     BYTE      IRCBAND
      00000097H   SFRSYM    DATA     BYTE      AUXR2
      000000EFH   SFRSYM    DATA     BYTE      AUXINTIF
L251 LINKER/LOCATER V4.66.93.0                                                        10/07/2023  15:37:24  PAGE 93


      000000FDH   SFRSYM    DATA     BYTE      S4CON
      000000ACH   SFRSYM    DATA     BYTE      S3CON
      0000009AH   SFRSYM    DATA     BYTE      S2CON
      000000B7H   SFRSYM    DATA     BYTE      IPH
      000000CDH   SFRSYM    DATA     BYTE      SPSTAT
      000000DDH   SFRSYM    DATA     BYTE      T4T3M
      000000C1H   SFRSYM    DATA     BYTE      WDT_CONTR
      000000DFH   SFRSYM    DATA     BYTE      IP3
      000000F4H   SFRSYM    DATA     BYTE      USBCON
      000000B5H   SFRSYM    DATA     BYTE      IP2
      000000FFH   SFRSYM    DATA     BYTE      RSTCFG
      000000F9H   SFRSYM    DATA     BYTE      LINICR
      0000008EH   SFRSYM    DATA     BYTE      AUXR
      000000AFH   SFRSYM    DATA     BYTE      IE2
      00000088H   SFRSYM    DATA     BYTE      TCON
      00000098H   SFRSYM    DATA     BYTE      SCON
      000000F1H   SFRSYM    DATA     BYTE      CANICR
      00000087H   SFRSYM    DATA     BYTE      PCON
      000000BCH   SFRSYM    DATA     BYTE      ADC_CONTR
      000000E7H   SFRSYM    DATA     BYTE      CMPCR2
      000000E6H   SFRSYM    DATA     BYTE      CMPCR1
      000000B8H   SFRSYM    DATA     BYTE      IP
      0000008FH   SFRSYM    DATA     BYTE      INTCLKO
      000000EEH   SFRSYM    DATA     BYTE      IP3H
      000000B6H   SFRSYM    DATA     BYTE      IP2H
      000000A8H   SFRSYM    DATA     BYTE      IE
      000000BBH   SFRSYM    DATA     BYTE      P_SW3
      000000BAH   SFRSYM    DATA     BYTE      P_SW2
      000000A2H   SFRSYM    DATA     BYTE      P_SW1
      000000CEH   SFRSYM    DATA     BYTE      SPCTL
      000000F8H   SFRSYM    DATA     BYTE      P7
      000000E8H   SFRSYM    DATA     BYTE      P6
      000000C8H   SFRSYM    DATA     BYTE      P5
      000000C0H   SFRSYM    DATA     BYTE      P4
      000000B0H   SFRSYM    DATA     BYTE      P3
      000000A0H   SFRSYM    DATA     BYTE      P2
      00000090H   SFRSYM    DATA     BYTE      P1
      00000080H   SFRSYM    DATA     BYTE      P0

      00FF54FFH   BLOCK     CODE     ---       LVL=0
      0000037CH   SYMBOL    EDATA    WORD      i
      0000037EH   SYMBOL    EDATA    WORD      j
      00000380H   SYMBOL    EDATA    INT       filter_temp
      00000382H   SYMBOL    EDATA    ---       Left_Middle
      00000396H   SYMBOL    EDATA    ---       Right_Middle
      000003AAH   SYMBOL    EDATA    ---       Middle
      000000E8H   SYMBOL    EDATA    ---       adc_last
      00FF54FFH   LINE      CODE     ---       #12
      00FF54FFH   LINE      CODE     ---       #13
      00FF54FFH   LINE      CODE     ---       #23
      00FF5507H   LINE      CODE     ---       #26
      00FF5521H   LINE      CODE     ---       #29
      00FF553BH   LINE      CODE     ---       #31
      00FF5555H   LINE      CODE     ---       #33
      00FF556FH   LINE      CODE     ---       #52
      00FF5578H   LINE      CODE     ---       #54
      00FF5580H   LINE      CODE     ---       #56
      00FF55A2H   LINE      CODE     ---       #58
      00FF55B5H   LINE      CODE     ---       #59
      00FF55D3H   LINE      CODE     ---       #60
      00FF55E6H   LINE      CODE     ---       #61
      00FF5609H   LINE      CODE     ---       #63
      00FF5626H   LINE      CODE     ---       #78
      00FF562FH   LINE      CODE     ---       #80
      00FF5637H   LINE      CODE     ---       #82
L251 LINKER/LOCATER V4.66.93.0                                                        10/07/2023  15:37:24  PAGE 94


      00FF5659H   LINE      CODE     ---       #84
      00FF566CH   LINE      CODE     ---       #85
      00FF568AH   LINE      CODE     ---       #86
      00FF569DH   LINE      CODE     ---       #87
      00FF56C0H   LINE      CODE     ---       #89
      00FF56DDH   LINE      CODE     ---       #117
      00FF56E6H   LINE      CODE     ---       #119
      00FF56EEH   LINE      CODE     ---       #121
      00FF5710H   LINE      CODE     ---       #123
      00FF5723H   LINE      CODE     ---       #124
      00FF5741H   LINE      CODE     ---       #125
      00FF5754H   LINE      CODE     ---       #126
      00FF5777H   LINE      CODE     ---       #128
      00FF5794H   LINE      CODE     ---       #146
      00FF579EH   LINE      CODE     ---       #149
      00FF57B7H   LINE      CODE     ---       #152
      00FF57D0H   LINE      CODE     ---       #154
      00FF57E9H   LINE      CODE     ---       #156
      00FF5803H   LINE      CODE     ---       #158
      00FF5812H   LINE      CODE     ---       #161
      00FF5821H   LINE      CODE     ---       #163
      00FF5830H   LINE      CODE     ---       #171
      ---         BLOCKEND  ---      ---       LVL=0

      00FF6193H   BLOCK     CODE     ---       LVL=0
      00000615H   SYMBOL    EDATA    ---       AD_Sensor
      00FF6197H   BLOCK     CODE     NEAR LAB  LVL=1
      00000619H   SYMBOL    EDATA    ---       AD_Normalized
      00000639H   SYMBOL    EDATA    BYTE      i
      ---         BLOCKEND  ---      ---       LVL=1
      00FF6193H   LINE      CODE     ---       #172
      00FF6197H   LINE      CODE     ---       #173
      00FF6197H   LINE      CODE     ---       #176
      00FF619FH   LINE      CODE     ---       #178
      00FF6212H   LINE      CODE     ---       #179
      00FF622FH   LINE      CODE     ---       #181
      00FF624DH   LINE      CODE     ---       #182
      00FF624DH   LINE      CODE     ---       #183
      00FF626EH   LINE      CODE     ---       #185
      00FF628AH   LINE      CODE     ---       #186
      00FF628AH   LINE      CODE     ---       #187
      00FF62C1H   LINE      CODE     ---       #188
      00FF62EDH   LINE      CODE     ---       #189
      00FF6307H   LINE      CODE     ---       #190
      00FF630FH   LINE      CODE     ---       #191
      00FF6317H   LINE      CODE     ---       #192
      00FF631FH   LINE      CODE     ---       #193
      00FF6327H   LINE      CODE     ---       #194
      00FF632FH   LINE      CODE     ---       #195
      00FF6337H   LINE      CODE     ---       #196
      00FF633FH   LINE      CODE     ---       #197
      00FF6347H   LINE      CODE     ---       #204
      00FF635DH   LINE      CODE     ---       #206
      ---         BLOCKEND  ---      ---       LVL=0
      00000B52H   SYMBOL    EDATA    INT       i
      00000B54H   SYMBOL    EDATA    INT       Right_Sum
      00000B56H   SYMBOL    EDATA    INT       Left_Sum
      0000063AH   SYMBOL    EDATA    INT       adcn
      0000063CH   SYMBOL    EDATA    INT       resolution
      0000063EH   SYMBOL    EDATA    INT       i
      00000640H   SYMBOL    EDATA    INT       j
      00000642H   SYMBOL    EDATA    INT       filter_temp
      00000644H   SYMBOL    EDATA    INT       filter_sum
      00000646H   SYMBOL    EDATA    ---       filter_buf

L251 LINKER/LOCATER V4.66.93.0                                                        10/07/2023  15:37:24  PAGE 95


      ---         MODULE    ---      ---       encoder
      00FF7188H   PUBLIC    CODE     ---       EncoderCount
      000006CAH   PUBLIC    EDATA    FLOAT     encoder_integral
      000006CEH   PUBLIC    EDATA    INT       right_speed_in
      000006D0H   PUBLIC    EDATA    FLOAT     encoder_integral1
      000006D4H   PUBLIC    EDATA    FLOAT     encoder_integral2
      000006D8H   PUBLIC    EDATA    INT       left_speed_in
      000006DAH   PUBLIC    EDATA    FLOAT     encoder
      000000D0H   SFRSYM    DATA     BYTE      PSW
      0000009DH   SFRSYM    DATA     BYTE      IRCBAND
      00000097H   SFRSYM    DATA     BYTE      AUXR2
      000000EFH   SFRSYM    DATA     BYTE      AUXINTIF
      000000FDH   SFRSYM    DATA     BYTE      S4CON
      000000ACH   SFRSYM    DATA     BYTE      S3CON
      0000009AH   SFRSYM    DATA     BYTE      S2CON
      000000B7H   SFRSYM    DATA     BYTE      IPH
      000000CDH   SFRSYM    DATA     BYTE      SPSTAT
      000000DDH   SFRSYM    DATA     BYTE      T4T3M
      000000C1H   SFRSYM    DATA     BYTE      WDT_CONTR
      000000DFH   SFRSYM    DATA     BYTE      IP3
      000000F4H   SFRSYM    DATA     BYTE      USBCON
      000000B5H   SFRSYM    DATA     BYTE      IP2
      000000FFH   SFRSYM    DATA     BYTE      RSTCFG
      000000F9H   SFRSYM    DATA     BYTE      LINICR
      0000008EH   SFRSYM    DATA     BYTE      AUXR
      000000AFH   SFRSYM    DATA     BYTE      IE2
      00000088H   SFRSYM    DATA     BYTE      TCON
      00000098H   SFRSYM    DATA     BYTE      SCON
      000000F1H   SFRSYM    DATA     BYTE      CANICR
      00000087H   SFRSYM    DATA     BYTE      PCON
      000000BCH   SFRSYM    DATA     BYTE      ADC_CONTR
      000000E7H   SFRSYM    DATA     BYTE      CMPCR2
      000000E6H   SFRSYM    DATA     BYTE      CMPCR1
      000000B8H   SFRSYM    DATA     BYTE      IP
      0000008FH   SFRSYM    DATA     BYTE      INTCLKO
      000000EEH   SFRSYM    DATA     BYTE      IP3H
      000000B6H   SFRSYM    DATA     BYTE      IP2H
      000000A8H   SFRSYM    DATA     BYTE      IE
      000000BBH   SFRSYM    DATA     BYTE      P_SW3
      000000BAH   SFRSYM    DATA     BYTE      P_SW2
      000000A2H   SFRSYM    DATA     BYTE      P_SW1
      000000CEH   SFRSYM    DATA     BYTE      SPCTL
      000000F8H   SFRSYM    DATA     BYTE      P7
      000000E8H   SFRSYM    DATA     BYTE      P6
      000000C8H   SFRSYM    DATA     BYTE      P5
      000000C0H   SFRSYM    DATA     BYTE      P4
      000000B0H   SFRSYM    DATA     BYTE      P3
      000000A0H   SFRSYM    DATA     BYTE      P2
      00000090H   SFRSYM    DATA     BYTE      P1
      00000080H   SFRSYM    DATA     BYTE      P0

      00FF7188H   BLOCK     CODE     ---       LVL=0
      00FF7188H   LINE      CODE     ---       #13
      00FF7188H   LINE      CODE     ---       #16
      00FF7193H   LINE      CODE     ---       #17
      00FF719CH   LINE      CODE     ---       #19
      00FF71A3H   LINE      CODE     ---       #20
      00FF71A8H   LINE      CODE     ---       #21
      00FF71C4H   LINE      CODE     ---       #22
      00FF71E0H   LINE      CODE     ---       #25
      00FF71EFH   LINE      CODE     ---       #26
      00FF71FEH   LINE      CODE     ---       #27
      ---         BLOCKEND  ---      ---       LVL=0

      ---         MODULE    ---      ---       motor
L251 LINKER/LOCATER V4.66.93.0                                                        10/07/2023  15:37:24  PAGE 96


      00FF7D1BH   PUBLIC    CODE     ---       motor_init
      00FF6A9FH   PUBLIC    CODE     ---       PWMSetMotor2
      000000D0H   SFRSYM    DATA     BYTE      PSW
      0000009DH   SFRSYM    DATA     BYTE      IRCBAND
      00000097H   SFRSYM    DATA     BYTE      AUXR2
      000000EFH   SFRSYM    DATA     BYTE      AUXINTIF
      000000FDH   SFRSYM    DATA     BYTE      S4CON
      000000ACH   SFRSYM    DATA     BYTE      S3CON
      0000009AH   SFRSYM    DATA     BYTE      S2CON
      000000B7H   SFRSYM    DATA     BYTE      IPH
      000000CDH   SFRSYM    DATA     BYTE      SPSTAT
      000000DDH   SFRSYM    DATA     BYTE      T4T3M
      000000C1H   SFRSYM    DATA     BYTE      WDT_CONTR
      000000DFH   SFRSYM    DATA     BYTE      IP3
      000000F4H   SFRSYM    DATA     BYTE      USBCON
      000000B5H   SFRSYM    DATA     BYTE      IP2
      000000FFH   SFRSYM    DATA     BYTE      RSTCFG
      000000F9H   SFRSYM    DATA     BYTE      LINICR
      0000008EH   SFRSYM    DATA     BYTE      AUXR
      000000AFH   SFRSYM    DATA     BYTE      IE2
      00000088H   SFRSYM    DATA     BYTE      TCON
      00000098H   SFRSYM    DATA     BYTE      SCON
      000000F1H   SFRSYM    DATA     BYTE      CANICR
      00000087H   SFRSYM    DATA     BYTE      PCON
      000000BCH   SFRSYM    DATA     BYTE      ADC_CONTR
      000000E7H   SFRSYM    DATA     BYTE      CMPCR2
      000000E6H   SFRSYM    DATA     BYTE      CMPCR1
      000000B8H   SFRSYM    DATA     BYTE      IP
      0000008FH   SFRSYM    DATA     BYTE      INTCLKO
      000000EEH   SFRSYM    DATA     BYTE      IP3H
      000000B6H   SFRSYM    DATA     BYTE      IP2H
      000000A8H   SFRSYM    DATA     BYTE      IE
      000000BBH   SFRSYM    DATA     BYTE      P_SW3
      000000BAH   SFRSYM    DATA     BYTE      P_SW2
      000000A2H   SFRSYM    DATA     BYTE      P_SW1
      000000CEH   SFRSYM    DATA     BYTE      SPCTL
      000000F8H   SFRSYM    DATA     BYTE      P7
      000000E8H   SFRSYM    DATA     BYTE      P6
      000000C8H   SFRSYM    DATA     BYTE      P5
      000000C0H   SFRSYM    DATA     BYTE      P4
      000000B0H   SFRSYM    DATA     BYTE      P3
      000000A0H   SFRSYM    DATA     BYTE      P2
      00000090H   SFRSYM    DATA     BYTE      P1
      00000080H   SFRSYM    DATA     BYTE      P0

      00FF7D1BH   BLOCK     CODE     ---       LVL=0
      00FF7D1BH   LINE      CODE     ---       #13
      00FF7D1BH   LINE      CODE     ---       #16
      00FF7D2CH   LINE      CODE     ---       #17
      00FF7D3DH   LINE      CODE     ---       #19
      00FF7D4EH   LINE      CODE     ---       #20
      00FF7D5FH   LINE      CODE     ---       #22
      ---         BLOCKEND  ---      ---       LVL=0

      00FF6A9FH   BLOCK     CODE     ---       LVL=0
      00000BCEH   SYMBOL    EDATA    INT       speed_pwmL
      00000BD0H   SYMBOL    EDATA    INT       speed_pwmR
      00FF6A9FH   LINE      CODE     ---       #88
      00FF6AA7H   LINE      CODE     ---       #90
      00FF6AB3H   LINE      CODE     ---       #92
      00FF6ABBH   LINE      CODE     ---       #93
      00FF6ABBH   LINE      CODE     ---       #94
      00FF6AC7H   LINE      CODE     ---       #96
      00FF6ACFH   LINE      CODE     ---       #97
      00FF6ACFH   LINE      CODE     ---       #99
L251 LINKER/LOCATER V4.66.93.0                                                        10/07/2023  15:37:24  PAGE 97


      00FF6ADBH   LINE      CODE     ---       #101
      00FF6AE3H   LINE      CODE     ---       #102
      00FF6AE3H   LINE      CODE     ---       #103
      00FF6AEFH   LINE      CODE     ---       #105
      00FF6AF7H   LINE      CODE     ---       #106
      00FF6AF7H   LINE      CODE     ---       #108
      00FF6B01H   LINE      CODE     ---       #110
      00FF6B10H   LINE      CODE     ---       #111
      00FF6B1BH   LINE      CODE     ---       #112
      00FF6B1DH   LINE      CODE     ---       #115
      00FF6B2BH   LINE      CODE     ---       #119
      00FF6B3AH   LINE      CODE     ---       #120
      00FF6B43H   LINE      CODE     ---       #121
      00FF6B43H   LINE      CODE     ---       #123
      00FF6B4DH   LINE      CODE     ---       #126
      00FF6B5CH   LINE      CODE     ---       #127
      00FF6B67H   LINE      CODE     ---       #128
      00FF6B69H   LINE      CODE     ---       #131
      00FF6B77H   LINE      CODE     ---       #132
      00FF6B86H   LINE      CODE     ---       #133
      00FF6B8FH   LINE      CODE     ---       #134
      00FF6B8FH   LINE      CODE     ---       #135
      ---         BLOCKEND  ---      ---       LVL=0

      ---         MODULE    ---      ---       pidcc
      00FF5AE3H   PUBLIC    CODE     ---       speedright_pid_realize
      00FF81A5H   PUBLIC    CODE     ---       speed_pid
      00FF5D38H   PUBLIC    CODE     ---       speedleft_pid_realize
      00FF7F3EH   PUBLIC    CODE     ---       pid_steers
      00FF3AB5H   PUBLIC    CODE     ---       ele_direction_control
      00FF6773H   PUBLIC    CODE     ---       PID_param_init
      000000F8H   PUBLIC    EDATA    ---       toipid_speed_right
      000000FCH   PUBLIC    EDATA    FLOAT     setpoint_left
      00000100H   PUBLIC    EDATA    ---       toipid_speed_left
      00000104H   PUBLIC    EDATA    ---       ipid_speed_right
      00000126H   PUBLIC    EDATA    INT       adc_right_edge
      00000128H   PUBLIC    EDATA    INT       status
      0000012AH   PUBLIC    EDATA    ---       ipid_speed_left
      0000014CH   PUBLIC    EDATA    INT       adc_left_edge
      0000014EH   PUBLIC    EDATA    INT       speedflag
      00000150H   PUBLIC    EDATA    INT       adc_mid
      00000152H   PUBLIC    EDATA    ---       pid_steer
      0000018AH   PUBLIC    EDATA    INT       adc_right_mid
      0000018CH   PUBLIC    EDATA    INT       adc_left_mid
      0000018EH   PUBLIC    EDATA    FLOAT     setpoint_right
      00000893H   PUBLIC    EDATA    BYTE      ?judge_circle_in?BYTE
      0000089FH   PUBLIC    EDATA    BYTE      ?judge_circle_out?BYTE
      000006DEH   PUBLIC    EDATA    BYTE      ?ele_direction_control?BYTE
      000000D0H   SFRSYM    DATA     BYTE      PSW
      0000009DH   SFRSYM    DATA     BYTE      IRCBAND
      00000097H   SFRSYM    DATA     BYTE      AUXR2
      000000EFH   SFRSYM    DATA     BYTE      AUXINTIF
      000000FDH   SFRSYM    DATA     BYTE      S4CON
      000000ACH   SFRSYM    DATA     BYTE      S3CON
      0000009AH   SFRSYM    DATA     BYTE      S2CON
      000000B7H   SFRSYM    DATA     BYTE      IPH
      000000CDH   SFRSYM    DATA     BYTE      SPSTAT
      000000DDH   SFRSYM    DATA     BYTE      T4T3M
      000000C1H   SFRSYM    DATA     BYTE      WDT_CONTR
      000000DFH   SFRSYM    DATA     BYTE      IP3
      000000F4H   SFRSYM    DATA     BYTE      USBCON
      000000B5H   SFRSYM    DATA     BYTE      IP2
      000000FFH   SFRSYM    DATA     BYTE      RSTCFG
      000000F9H   SFRSYM    DATA     BYTE      LINICR
      0000008EH   SFRSYM    DATA     BYTE      AUXR
L251 LINKER/LOCATER V4.66.93.0                                                        10/07/2023  15:37:24  PAGE 98


      000000AFH   SFRSYM    DATA     BYTE      IE2
      00000088H   SFRSYM    DATA     BYTE      TCON
      00000098H   SFRSYM    DATA     BYTE      SCON
      000000F1H   SFRSYM    DATA     BYTE      CANICR
      00000087H   SFRSYM    DATA     BYTE      PCON
      000000BCH   SFRSYM    DATA     BYTE      ADC_CONTR
      000000E7H   SFRSYM    DATA     BYTE      CMPCR2
      000000E6H   SFRSYM    DATA     BYTE      CMPCR1
      000000B8H   SFRSYM    DATA     BYTE      IP
      0000008FH   SFRSYM    DATA     BYTE      INTCLKO
      000000EEH   SFRSYM    DATA     BYTE      IP3H
      000000B6H   SFRSYM    DATA     BYTE      IP2H
      000000A8H   SFRSYM    DATA     BYTE      IE
      000000BBH   SFRSYM    DATA     BYTE      P_SW3
      000000BAH   SFRSYM    DATA     BYTE      P_SW2
      000000A2H   SFRSYM    DATA     BYTE      P_SW1
      000000CEH   SFRSYM    DATA     BYTE      SPCTL
      000000F8H   SFRSYM    DATA     BYTE      P7
      000000E8H   SFRSYM    DATA     BYTE      P6
      000000C8H   SFRSYM    DATA     BYTE      P5
      000000C0H   SFRSYM    DATA     BYTE      P4
      000000B0H   SFRSYM    DATA     BYTE      P3
      000000A0H   SFRSYM    DATA     BYTE      P2
      00000090H   SFRSYM    DATA     BYTE      P1
      00000080H   SFRSYM    DATA     BYTE      P0

      00FF6773H   BLOCK     CODE     ---       LVL=0
      00FF6773H   LINE      CODE     ---       #47
      00FF6773H   LINE      CODE     ---       #50
      00FF6779H   LINE      CODE     ---       #51
      00FF6783H   LINE      CODE     ---       #52
      00FF6789H   LINE      CODE     ---       #53
      00FF678FH   LINE      CODE     ---       #54
      00FF6795H   LINE      CODE     ---       #56
      00FF67A1H   LINE      CODE     ---       #57
      00FF67A7H   LINE      CODE     ---       #58
      00FF67ADH   LINE      CODE     ---       #59
      00FF67B3H   LINE      CODE     ---       #60
      00FF67B9H   LINE      CODE     ---       #61
      00FF67BFH   LINE      CODE     ---       #62
      00FF67C5H   LINE      CODE     ---       #64
      00FF67CDH   LINE      CODE     ---       #65
      00FF67D3H   LINE      CODE     ---       #66
      00FF67D9H   LINE      CODE     ---       #67
      00FF67DFH   LINE      CODE     ---       #69
      00FF67E5H   LINE      CODE     ---       #70
      00FF67EBH   LINE      CODE     ---       #71
      00FF67F1H   LINE      CODE     ---       #73
      00FF67FBH   LINE      CODE     ---       #74
      00FF6805H   LINE      CODE     ---       #75
      00FF680FH   LINE      CODE     ---       #76
      00FF6815H   LINE      CODE     ---       #77
      00FF681BH   LINE      CODE     ---       #79
      00FF6823H   LINE      CODE     ---       #80
      00FF6829H   LINE      CODE     ---       #81
      00FF682FH   LINE      CODE     ---       #82
      00FF6835H   LINE      CODE     ---       #84
      00FF683BH   LINE      CODE     ---       #85
      00FF6841H   LINE      CODE     ---       #86
      00FF6847H   LINE      CODE     ---       #88
      00FF684DH   LINE      CODE     ---       #90
      00FF6857H   LINE      CODE     ---       #91
      00FF6861H   LINE      CODE     ---       #92
      00FF686BH   LINE      CODE     ---       #93
      00FF6871H   LINE      CODE     ---       #96
L251 LINKER/LOCATER V4.66.93.0                                                        10/07/2023  15:37:24  PAGE 99


      00FF6879H   LINE      CODE     ---       #97
      00FF6881H   LINE      CODE     ---       #98
      00FF6889H   LINE      CODE     ---       #99
      00FF6891H   LINE      CODE     ---       #100
      ---         BLOCKEND  ---      ---       LVL=0
      00000893H   SYMBOL    EDATA    FLOAT     adc_left_edge
      00000897H   SYMBOL    EDATA    FLOAT     adc_right_edge
      0000089BH   SYMBOL    EDATA    FLOAT     adc_mid
      0000089FH   SYMBOL    EDATA    FLOAT     adc_left_edge
      000008A3H   SYMBOL    EDATA    FLOAT     adc_right_edge
      000008A7H   SYMBOL    EDATA    FLOAT     adc_mid

      00FF7F3EH   BLOCK     CODE     ---       LVL=0
      00FF7F3EH   LINE      CODE     ---       #150
      00FF7F3EH   LINE      CODE     ---       #154
      00FF7F6BH   LINE      CODE     ---       #155
      ---         BLOCKEND  ---      ---       LVL=0

      00FF3AB5H   BLOCK     CODE     ---       LVL=0
      000006DEH   SYMBOL    EDATA    ---       topid_steer
      000006E2H   SYMBOL    EDATA    ---       toipid_speed_left
      000006E6H   SYMBOL    EDATA    ---       toipid_speed_right
      000006EAH   SYMBOL    EDATA    FLOAT     adc_left_mid
      000006EEH   SYMBOL    EDATA    FLOAT     adc_right_mid
      00FF3AB5H   LINE      CODE     ---       #157
      00FF3ABDH   LINE      CODE     ---       #169
      00FF3AEAH   LINE      CODE     ---       #174
      00FF3B07H   LINE      CODE     ---       #176
      00FF3B18H   LINE      CODE     ---       #177
      00FF3B46H   LINE      CODE     ---       #178
      00FF3B52H   LINE      CODE     ---       #180
      00FF3B77H   LINE      CODE     ---       #181
      00FF3B81H   LINE      CODE     ---       #182
      00FF3B84H   LINE      CODE     ---       #183
      00FF3B90H   LINE      CODE     ---       #185
      00FF3BB5H   LINE      CODE     ---       #186
      00FF3BBFH   LINE      CODE     ---       #187
      00FF3BC2H   LINE      CODE     ---       #188
      00FF3BD1H   LINE      CODE     ---       #190
      00FF3BDDH   LINE      CODE     ---       #191
      00FF3BFBH   LINE      CODE     ---       #192
      00FF3BFEH   LINE      CODE     ---       #195
      00FF3C38H   LINE      CODE     ---       #197
      00FF3C49H   LINE      CODE     ---       #198
      00FF3C77H   LINE      CODE     ---       #199
      00FF3C83H   LINE      CODE     ---       #201
      00FF3C9FH   LINE      CODE     ---       #202
      00FF3CA9H   LINE      CODE     ---       #203
      00FF3CACH   LINE      CODE     ---       #204
      00FF3CB8H   LINE      CODE     ---       #206
      00FF3CD4H   LINE      CODE     ---       #207
      00FF3CDEH   LINE      CODE     ---       #208
      00FF3CE1H   LINE      CODE     ---       #209
      00FF3CF0H   LINE      CODE     ---       #211
      00FF3CFCH   LINE      CODE     ---       #212
      00FF3D1AH   LINE      CODE     ---       #213
      00FF3D1DH   LINE      CODE     ---       #215
      00FF3D57H   LINE      CODE     ---       #217
      00FF3D68H   LINE      CODE     ---       #218
      00FF3D96H   LINE      CODE     ---       #219
      00FF3DA2H   LINE      CODE     ---       #221
      00FF3DBEH   LINE      CODE     ---       #222
      00FF3DC8H   LINE      CODE     ---       #223
      00FF3DCBH   LINE      CODE     ---       #224
      00FF3DD7H   LINE      CODE     ---       #226
L251 LINKER/LOCATER V4.66.93.0                                                        10/07/2023  15:37:24  PAGE 100


      00FF3DF3H   LINE      CODE     ---       #227
      00FF3DFDH   LINE      CODE     ---       #228
      00FF3E00H   LINE      CODE     ---       #229
      00FF3E0FH   LINE      CODE     ---       #231
      00FF3E1BH   LINE      CODE     ---       #232
      00FF3E39H   LINE      CODE     ---       #233
      00FF3E3CH   LINE      CODE     ---       #235
      00FF3E72H   LINE      CODE     ---       #237
      00FF3E83H   LINE      CODE     ---       #238
      00FF3EB1H   LINE      CODE     ---       #239
      00FF3EBDH   LINE      CODE     ---       #241
      00FF3ED1H   LINE      CODE     ---       #242
      00FF3ED4H   LINE      CODE     ---       #243
      00FF3EE3H   LINE      CODE     ---       #245
      00FF3EF7H   LINE      CODE     ---       #246
      00FF3EFAH   LINE      CODE     ---       #249
      00FF3F30H   LINE      CODE     ---       #251
      00FF3F41H   LINE      CODE     ---       #252
      00FF3F6FH   LINE      CODE     ---       #253
      00FF3F7BH   LINE      CODE     ---       #255
      00FF3F8FH   LINE      CODE     ---       #256
      00FF3F92H   LINE      CODE     ---       #257
      00FF3FA1H   LINE      CODE     ---       #259
      00FF3FB5H   LINE      CODE     ---       #260
      00FF3FB8H   LINE      CODE     ---       #263
      00FF3FF2H   LINE      CODE     ---       #265
      00FF4003H   LINE      CODE     ---       #266
      00FF4031H   LINE      CODE     ---       #267
      00FF403DH   LINE      CODE     ---       #269
      00FF4059H   LINE      CODE     ---       #270
      00FF4063H   LINE      CODE     ---       #271
      00FF4066H   LINE      CODE     ---       #272
      00FF4072H   LINE      CODE     ---       #274
      00FF408EH   LINE      CODE     ---       #275
      00FF4098H   LINE      CODE     ---       #276
      00FF409BH   LINE      CODE     ---       #277
      00FF40AAH   LINE      CODE     ---       #279
      00FF40C8H   LINE      CODE     ---       #280
      00FF40D4H   LINE      CODE     ---       #281
      00FF40D7H   LINE      CODE     ---       #283
      00FF4111H   LINE      CODE     ---       #285
      00FF4122H   LINE      CODE     ---       #286
      00FF4150H   LINE      CODE     ---       #287
      00FF415CH   LINE      CODE     ---       #289
      00FF4178H   LINE      CODE     ---       #290
      00FF4182H   LINE      CODE     ---       #291
      00FF4185H   LINE      CODE     ---       #292
      00FF4191H   LINE      CODE     ---       #294
      00FF41ADH   LINE      CODE     ---       #295
      00FF41B7H   LINE      CODE     ---       #296
      00FF41BAH   LINE      CODE     ---       #297
      00FF41C9H   LINE      CODE     ---       #299
      00FF41E7H   LINE      CODE     ---       #300
      00FF41F3H   LINE      CODE     ---       #301
      00FF41F6H   LINE      CODE     ---       #302
      00FF4213H   LINE      CODE     ---       #304
      00FF4224H   LINE      CODE     ---       #305
      00FF4252H   LINE      CODE     ---       #306
      00FF425EH   LINE      CODE     ---       #308
      00FF4285H   LINE      CODE     ---       #309
      00FF428FH   LINE      CODE     ---       #310
      00FF4291H   LINE      CODE     ---       #311
      00FF429DH   LINE      CODE     ---       #313
      00FF42C4H   LINE      CODE     ---       #314
      00FF42CEH   LINE      CODE     ---       #315
L251 LINKER/LOCATER V4.66.93.0                                                        10/07/2023  15:37:24  PAGE 101


      00FF42DCH   LINE      CODE     ---       #317
      00FF42FAH   LINE      CODE     ---       #318
      00FF4306H   LINE      CODE     ---       #319
      00FF4306H   LINE      CODE     ---       #323
      00FF4335H   LINE      CODE     ---       #324
      00FF4364H   LINE      CODE     ---       #328
      00FF4379H   LINE      CODE     ---       #329
      00FF43BFH   LINE      CODE     ---       #331
      00FF43FBH   LINE      CODE     ---       #332
      00FF4419H   LINE      CODE     ---       #336
      00FF442DH   LINE      CODE     ---       #337
      00FF4441H   LINE      CODE     ---       #339
      00FF445FH   LINE      CODE     ---       #340
      ---         BLOCKEND  ---      ---       LVL=0

      00FF5D38H   BLOCK     CODE     ---       LVL=0
      00000A7CH   SYMBOL    EDATA    ---       toipid_left_speed
      00000A80H   SYMBOL    EDATA    INT       actual_val_left
      00FF5D40H   BLOCK     CODE     NEAR LAB  LVL=1
      00000A82H   SYMBOL    EDATA    INT       error_left
      ---         BLOCKEND  ---      ---       LVL=1
      00FF5D38H   LINE      CODE     ---       #343
      00FF5D40H   LINE      CODE     ---       #345
      00FF5D55H   LINE      CODE     ---       #346
      00FF5D64H   LINE      CODE     ---       #348
      00FF5D6EH   LINE      CODE     ---       #350
      00FF5D7FH   LINE      CODE     ---       #351
      00FF5D81H   LINE      CODE     ---       #354
      00FF5D92H   LINE      CODE     ---       #355
      00FF5D92H   LINE      CODE     ---       #359
      00FF5DC8H   LINE      CODE     ---       #361
      00FF5DD5H   LINE      CODE     ---       #362
      00FF5DE2H   LINE      CODE     ---       #363
      00FF5DEFH   LINE      CODE     ---       #364
      00FF5DEFH   LINE      CODE     ---       #368
      00FF5E15H   LINE      CODE     ---       #369
      00FF5E30H   LINE      CODE     ---       #371
      00FF5E43H   LINE      CODE     ---       #373
      00FF5E52H   LINE      CODE     ---       #374
      00FF5E54H   LINE      CODE     ---       #375
      00FF5E67H   LINE      CODE     ---       #377
      00FF5E76H   LINE      CODE     ---       #378
      00FF5E76H   LINE      CODE     ---       #382
      00FF5E90H   LINE      CODE     ---       #383
      00FF5EA8H   LINE      CODE     ---       #384
      00FF5EC2H   LINE      CODE     ---       #385
      00FF5ED8H   LINE      CODE     ---       #388
      00FF5F6BH   LINE      CODE     ---       #389
      00FF5F81H   LINE      CODE     ---       #390
      00FF5F8CH   LINE      CODE     ---       #392
      ---         BLOCKEND  ---      ---       LVL=0

      00FF5AE3H   BLOCK     CODE     ---       LVL=0
      00000A84H   SYMBOL    EDATA    ---       toipid_right_speed
      00000A88H   SYMBOL    EDATA    INT       actual_val_right
      00FF5AEBH   BLOCK     CODE     NEAR LAB  LVL=1
      00000A8AH   SYMBOL    EDATA    INT       error_right
      ---         BLOCKEND  ---      ---       LVL=1
      00FF5AE3H   LINE      CODE     ---       #393
      00FF5AEBH   LINE      CODE     ---       #395
      00FF5B00H   LINE      CODE     ---       #396
      00FF5B0FH   LINE      CODE     ---       #398
      00FF5B19H   LINE      CODE     ---       #400
      00FF5B2AH   LINE      CODE     ---       #401
      00FF5B2CH   LINE      CODE     ---       #404
L251 LINKER/LOCATER V4.66.93.0                                                        10/07/2023  15:37:24  PAGE 102


      00FF5B3DH   LINE      CODE     ---       #405
      00FF5B3DH   LINE      CODE     ---       #408
      00FF5B73H   LINE      CODE     ---       #410
      00FF5B80H   LINE      CODE     ---       #411
      00FF5B8DH   LINE      CODE     ---       #412
      00FF5B9AH   LINE      CODE     ---       #413
      00FF5B9AH   LINE      CODE     ---       #417
      00FF5BC0H   LINE      CODE     ---       #418
      00FF5BDBH   LINE      CODE     ---       #420
      00FF5BEEH   LINE      CODE     ---       #422
      00FF5BFDH   LINE      CODE     ---       #423
      00FF5BFFH   LINE      CODE     ---       #424
      00FF5C12H   LINE      CODE     ---       #426
      00FF5C21H   LINE      CODE     ---       #427
      00FF5C21H   LINE      CODE     ---       #431
      00FF5C3BH   LINE      CODE     ---       #432
      00FF5C53H   LINE      CODE     ---       #433
      00FF5C6DH   LINE      CODE     ---       #434
      00FF5C83H   LINE      CODE     ---       #437
      00FF5D16H   LINE      CODE     ---       #438
      00FF5D2CH   LINE      CODE     ---       #439
      00FF5D37H   LINE      CODE     ---       #440
      ---         BLOCKEND  ---      ---       LVL=0

      00FF81A5H   BLOCK     CODE     ---       LVL=0
      00FF81A5H   LINE      CODE     ---       #441
      00FF81A5H   LINE      CODE     ---       #442
      00FF81C4H   LINE      CODE     ---       #443
      ---         BLOCKEND  ---      ---       LVL=0

      ---         MODULE    ---      ---       steer
      00FF7E62H   PUBLIC    CODE     ---       PWMSetSteer
      00FF8366H   PUBLIC    CODE     ---       steer_init
      000000D0H   SFRSYM    DATA     BYTE      PSW
      0000009DH   SFRSYM    DATA     BYTE      IRCBAND
      00000097H   SFRSYM    DATA     BYTE      AUXR2
      000000EFH   SFRSYM    DATA     BYTE      AUXINTIF
      000000FDH   SFRSYM    DATA     BYTE      S4CON
      000000ACH   SFRSYM    DATA     BYTE      S3CON
      0000009AH   SFRSYM    DATA     BYTE      S2CON
      000000B7H   SFRSYM    DATA     BYTE      IPH
      000000CDH   SFRSYM    DATA     BYTE      SPSTAT
      000000DDH   SFRSYM    DATA     BYTE      T4T3M
      000000C1H   SFRSYM    DATA     BYTE      WDT_CONTR
      000000DFH   SFRSYM    DATA     BYTE      IP3
      000000F4H   SFRSYM    DATA     BYTE      USBCON
      000000B5H   SFRSYM    DATA     BYTE      IP2
      000000FFH   SFRSYM    DATA     BYTE      RSTCFG
      000000F9H   SFRSYM    DATA     BYTE      LINICR
      0000008EH   SFRSYM    DATA     BYTE      AUXR
      000000AFH   SFRSYM    DATA     BYTE      IE2
      00000088H   SFRSYM    DATA     BYTE      TCON
      00000098H   SFRSYM    DATA     BYTE      SCON
      000000F1H   SFRSYM    DATA     BYTE      CANICR
      00000087H   SFRSYM    DATA     BYTE      PCON
      000000BCH   SFRSYM    DATA     BYTE      ADC_CONTR
      000000E7H   SFRSYM    DATA     BYTE      CMPCR2
      000000E6H   SFRSYM    DATA     BYTE      CMPCR1
      000000B8H   SFRSYM    DATA     BYTE      IP
      0000008FH   SFRSYM    DATA     BYTE      INTCLKO
      000000EEH   SFRSYM    DATA     BYTE      IP3H
      000000B6H   SFRSYM    DATA     BYTE      IP2H
      000000A8H   SFRSYM    DATA     BYTE      IE
      000000BBH   SFRSYM    DATA     BYTE      P_SW3
      000000BAH   SFRSYM    DATA     BYTE      P_SW2
L251 LINKER/LOCATER V4.66.93.0                                                        10/07/2023  15:37:24  PAGE 103


      000000A2H   SFRSYM    DATA     BYTE      P_SW1
      000000CEH   SFRSYM    DATA     BYTE      SPCTL
      000000F8H   SFRSYM    DATA     BYTE      P7
      000000E8H   SFRSYM    DATA     BYTE      P6
      000000C8H   SFRSYM    DATA     BYTE      P5
      000000C0H   SFRSYM    DATA     BYTE      P4
      000000B0H   SFRSYM    DATA     BYTE      P3
      000000A0H   SFRSYM    DATA     BYTE      P2
      00000090H   SFRSYM    DATA     BYTE      P1
      00000080H   SFRSYM    DATA     BYTE      P0

      00FF8366H   BLOCK     CODE     ---       LVL=0
      00FF8366H   LINE      CODE     ---       #10
      00FF8366H   LINE      CODE     ---       #13
      00FF8379H   LINE      CODE     ---       #18
      ---         BLOCKEND  ---      ---       LVL=0

      00FF7E62H   BLOCK     CODE     ---       LVL=0
      00000C51H   SYMBOL    EDATA    INT       angle_pwm
      00FF7E62H   LINE      CODE     ---       #27
      00FF7E66H   LINE      CODE     ---       #32
      00FF7E72H   LINE      CODE     ---       #33
      00FF7E7AH   LINE      CODE     ---       #34
      00FF7E86H   LINE      CODE     ---       #35
      00FF7E8EH   LINE      CODE     ---       #37
      00FF7E9DH   LINE      CODE     ---       #38
      ---         BLOCKEND  ---      ---       LVL=0

      ---         MODULE    ---      ---       SEEKFREE_CONFIG
      00FF00A6H   PUBLIC    CODE     ---       dl1b_default_configuration
      00FF012DH   PUBLIC    CODE     ---       imu660ra_config_file

      ---         MODULE    ---      ---       ?C?FPADD
      00FF2F3BH   PUBLIC    CODE     ---       ?C?FPADD
      00FF2F38H   PUBLIC    CODE     ---       ?C?FPSUB

      ---         MODULE    ---      ---       ?C?FPMUL
      00FF2FF3H   PUBLIC    CODE     ---       ?C?FPMUL

      ---         MODULE    ---      ---       ?C?FPDIV
      00FF3093H   PUBLIC    CODE     ---       ?C?FPDIV

      ---         MODULE    ---      ---       ?C?FPCMP
      00FF3116H   PUBLIC    CODE     ---       ?C?FPCMP
      00FF3114H   PUBLIC    CODE     ---       ?C?FPCMP3

      ---         MODULE    ---      ---       ?C?FCAST
      00FF3164H   PUBLIC    CODE     NEAR LAB  ?C?FCASTC
      00FF315FH   PUBLIC    CODE     NEAR LAB  ?C?FCASTI
      00FF315AH   PUBLIC    CODE     NEAR LAB  ?C?FCASTL

      ---         MODULE    ---      ---       ?C?CASTF
      00FF3197H   PUBLIC    CODE     NEAR LAB  ?C?CASTF

      ---         MODULE    ---      ---       PRINTF
      00FF31D4H   PUBLIC    CODE     NEAR LAB  PRINTF

      ---         MODULE    ---      ---       pow

      ---         MODULE    ---      ---       ?C?FPGETOPN
      00FF3200H   PUBLIC    CODE     ---       ?C?FPGETOPN2
      00FF323DH   PUBLIC    CODE     ---       ?C?FPNANRESULT
      00FF3245H   PUBLIC    CODE     ---       ?C?FPOVERFLOW
      00FF3219H   PUBLIC    CODE     ---       ?C?FPRESULT
      00FF322FH   PUBLIC    CODE     ---       ?C?FPRESULT2
L251 LINKER/LOCATER V4.66.93.0                                                        10/07/2023  15:37:24  PAGE 104


      00FF3242H   PUBLIC    CODE     ---       ?C?FPUNDERFLOW

      ---         MODULE    ---      ---       _CHKFLOAT_?_
      00FF3251H   PUBLIC    CODE     ---       _CHKFLOAT_?_

      ---         MODULE    ---      ---       ?C?FPNEG
      00FF326EH   PUBLIC    CODE     ---       ?C?FPNEG

      ---         MODULE    ---      ---       ?C?PRNFMT
      00FF32A9H   PUBLIC    CODE     ---       ?C?PRNFMT

      ---         MODULE    ---      ---       EXP?_
      00FF36F1H   PUBLIC    CODE     ---       EXP?_

      ---         MODULE    ---      ---       LOG?_
      00FF3780H   PUBLIC    CODE     NEAR LAB  LOG?_

      ---         MODULE    ---      ---       ?C?FPCONVERT
      00FF3853H   PUBLIC    CODE     ---       ?C?FPCONVERT
      00FF390BH   PUBLIC    CODE     ---       ?C?FPROUND

      ---         MODULE    ---      ---       ?C?FPSERIES
      00FF394EH   PUBLIC    CODE     ---       ?C?FP2SERIES
      00FF3957H   PUBLIC    CODE     ---       ?C?FPSERIES

      ---         MODULE    ---      ---       ?C?FTNPWR
      00FF39ABH   PUBLIC    CODE     ---       ?C?FTNPWR

      ---         MODULE    ---      ---       ?C_START
      00FF0000H   PUBLIC    CODE     ---       ?C?STARTUP
      00FF0000H   PUBLIC    CODE     ---       ?C_STARTUP

      ---         MODULE    ---      ---       ?C?INITEDATA
      00FF7E36H   PUBLIC    CODE     ---       ?C?INITEDATA

      ---         MODULE    ---      ---       ?C?SIDIV
      00FF39E2H   PUBLIC    CODE     ---       ?C?SIDIV

      ---         MODULE    ---      ---       ?C?LMUL
      00FF3A14H   PUBLIC    CODE     ---       ?C?LMUL

      ---         MODULE    ---      ---       ?C?LIMUL
      00FF3A25H   PUBLIC    CODE     ---       ?C?LIMUL

      ---         MODULE    ---      ---       ?C?ULDIV
      00FF3A30H   PUBLIC    CODE     NEAR LAB  ?C?ULDIV
      00FF3A2EH   PUBLIC    CODE     NEAR LAB  ?C?ULIDIV

      ---         MODULE    ---      ---       ?C?SLDIV
      00FF3A81H   PUBLIC    CODE     NEAR LAB  ?C?SLDIV

      ---         MODULE    ---      ---       memcpy
      00FF80B6H   PUBLIC    CODE     ---       memcpy?_

      ---         MODULE    ---      ---       memset

      ---         MODULE    ---      ---       ?C?INITEDATA_END
      00FF8542H   PUBLIC    HCONST   WORD      ?C?INITEDATA_END

Program Size: data=8.0 edata+hdata=3420 xdata=0 const=669 code=33731
L251 RUN COMPLETE.  0 WARNING(S),  0 ERROR(S)
