L251 LINKER/LOCATER V4.66.93.0                                                          10/06/2023  19:39:35  PAGE 1


L251 LINKER/LOCATER V4.66.93.0, INVOKED BY:
C:\PROGRAM FILES\KEIL-5\C251\BIN\L251.EXE .\Out_File\board.obj, .\Out_File\common.obj, .\Out_File\zf_adc.obj, .\Out_File
>> \zf_delay.obj, .\Out_File\zf_eeprom.obj, .\Out_File\zf_exti.obj, .\Out_File\zf_gpio.obj, .\Out_File\zf_nvic.obj, .\Ou
>> t_File\zf_pwm.obj, .\Out_File\zf_spi.obj, .\Out_File\zf_tim.obj, .\Out_File\zf_uart.obj, .\Out_File\zf_fifo.obj, .\Ou
>> t_File\SEEKFREE_18TFT.obj, .\Out_File\SEEKFREE_BLUETOOTH_CH9141.obj, ..\..\Libraries\seekfree_peripheral\SEEKFREE_CON
>> FIG.LIB, .\Out_File\SEEKFREE_DL1A.obj, .\Out_File\SEEKFREE_DL1B.obj, .\Out_File\SEEKFREE_FONT.obj, .\Out_File\SEEKFRE
>> E_ICM20602.obj, .\Out_File\SEEKFREE_IMU660RA.obj, .\Out_File\SEEKFREE_IMU963RA.obj, .\Out_File\SEEKFREE_IPS114_SPI.ob
>> j, .\Out_File\SEEKFREE_MPU6050.obj, .\Out_File\SEEKFREE_OLED.obj, .\Out_File\SEEKFREE_PRINTF.obj, .\Out_File\SEEKFREE
>> _VIRSCO.obj, .\Out_File\SEEKFREE_WIRELESS.obj, .\Out_File\SEEKFREE_WIRELESS_CH573.obj, .\Out_File\isr.obj, .\Out_File
>> \main.obj, .\Out_File\allinit.obj, .\Out_File\EM.obj, .\Out_File\encoder.obj, .\Out_File\motor.obj, .\Out_File\pid.ob
>> j, .\Out_File\pidcc.obj, .\Out_File\steer.obj TO .\Out_File\SEEKFREE PRINT (.\Out_File\SEEKFREE.map) CASE DISABLEWARN
>> ING (15, 16, 57) REMOVEUNUSED CLASSES (EDATA (0X0-0XFFF), HDATA (0X0-0XFFF))


CPU MODE:     251 SOURCE MODE
INTR FRAME:   2 BYTES SAVED ON INTERRUPT
MEMORY MODEL: XSMALL WITH FLOATING POINT ARITHMETIC


INPUT MODULES INCLUDED:
  .\Out_File\board.obj (board)
         COMMENT TYPE 0: C251 V5.60.0
  .\Out_File\common.obj (common)
         COMMENT TYPE 0: C251 V5.60.0
  .\Out_File\zf_adc.obj (zf_adc)
         COMMENT TYPE 0: C251 V5.60.0
  .\Out_File\zf_delay.obj (zf_delay)
         COMMENT TYPE 0: C251 V5.60.0
  .\Out_File\zf_eeprom.obj (zf_eeprom)
         COMMENT TYPE 0: C251 V5.60.0
  .\Out_File\zf_exti.obj (zf_exti)
         COMMENT TYPE 0: C251 V5.60.0
  .\Out_File\zf_gpio.obj (zf_gpio)
         COMMENT TYPE 0: C251 V5.60.0
  .\Out_File\zf_nvic.obj (zf_nvic)
         COMMENT TYPE 0: C251 V5.60.0
  .\Out_File\zf_pwm.obj (zf_pwm)
         COMMENT TYPE 0: C251 V5.60.0
  .\Out_File\zf_spi.obj (zf_spi)
         COMMENT TYPE 0: C251 V5.60.0
  .\Out_File\zf_tim.obj (zf_tim)
         COMMENT TYPE 0: C251 V5.60.0
  .\Out_File\zf_uart.obj (zf_uart)
         COMMENT TYPE 0: C251 V5.60.0
  .\Out_File\zf_fifo.obj (zf_fifo)
         COMMENT TYPE 0: C251 V5.60.0
  .\Out_File\SEEKFREE_18TFT.obj (SEEKFREE_18TFT)
         COMMENT TYPE 0: C251 V5.60.0
  .\Out_File\SEEKFREE_BLUETOOTH_CH9141.obj (SEEKFREE_BLUETOOTH_CH9141)
         COMMENT TYPE 0: C251 V5.60.0
  .\Out_File\SEEKFREE_DL1A.obj (SEEKFREE_DL1A)
         COMMENT TYPE 0: C251 V5.60.0
  .\Out_File\SEEKFREE_DL1B.obj (SEEKFREE_DL1B)
         COMMENT TYPE 0: C251 V5.60.0
  .\Out_File\SEEKFREE_FONT.obj (SEEKFREE_FONT)
         COMMENT TYPE 0: C251 V5.60.0
  .\Out_File\SEEKFREE_ICM20602.obj (SEEKFREE_ICM20602)
         COMMENT TYPE 0: C251 V5.60.0
  .\Out_File\SEEKFREE_IMU660RA.obj (SEEKFREE_IMU660RA)
         COMMENT TYPE 0: C251 V5.60.0
  .\Out_File\SEEKFREE_IMU963RA.obj (SEEKFREE_IMU963RA)
         COMMENT TYPE 0: C251 V5.60.0
  .\Out_File\SEEKFREE_IPS114_SPI.obj (SEEKFREE_IPS114_SPI)
         COMMENT TYPE 0: C251 V5.60.0
  .\Out_File\SEEKFREE_MPU6050.obj (SEEKFREE_MPU6050)
         COMMENT TYPE 0: C251 V5.60.0
L251 LINKER/LOCATER V4.66.93.0                                                        10/06/2023  19:39:35  PAGE 2


  .\Out_File\SEEKFREE_OLED.obj (SEEKFREE_OLED)
         COMMENT TYPE 0: C251 V5.60.0
  .\Out_File\SEEKFREE_PRINTF.obj (SEEKFREE_PRINTF)
         COMMENT TYPE 0: C251 V5.60.0
  .\Out_File\SEEKFREE_VIRSCO.obj (SEEKFREE_VIRSCO)
         COMMENT TYPE 0: C251 V5.60.0
  .\Out_File\SEEKFREE_WIRELESS.obj (SEEKFREE_WIRELESS)
         COMMENT TYPE 0: C251 V5.60.0
  .\Out_File\SEEKFREE_WIRELESS_CH573.obj (SEEKFREE_WIRELESS_CH573)
         COMMENT TYPE 0: C251 V5.60.0
  .\Out_File\isr.obj (isr)
         COMMENT TYPE 0: C251 V5.60.0
  .\Out_File\main.obj (main)
         COMMENT TYPE 0: C251 V5.60.0
  .\Out_File\allinit.obj (allinit)
         COMMENT TYPE 0: C251 V5.60.0
  .\Out_File\EM.obj (EM)
         COMMENT TYPE 0: C251 V5.60.0
  .\Out_File\encoder.obj (encoder)
         COMMENT TYPE 0: C251 V5.60.0
  .\Out_File\motor.obj (motor)
         COMMENT TYPE 0: C251 V5.60.0
  .\Out_File\pid.obj (pid)
         COMMENT TYPE 0: C251 V5.60.0
  .\Out_File\pidcc.obj (pidcc)
         COMMENT TYPE 0: C251 V5.60.0
  .\Out_File\steer.obj (steer)
         COMMENT TYPE 0: C251 V5.60.0
  ..\..\Libraries\seekfree_peripheral\SEEKFREE_CONFIG.LIB (SEEKFREE_CONFIG)
         COMMENT TYPE 0: C251 V5.60.0
  C:\PROGRAM FILES\KEIL-5\C251\LIB\C2SFPXS.LIB (?C?FPADD)
         COMMENT TYPE 0: A251 V4.69.6.0
  C:\PROGRAM FILES\KEIL-5\C251\LIB\C2SFPXS.LIB (?C?FPMUL)
         COMMENT TYPE 0: A251 V4.69.6.0
  C:\PROGRAM FILES\KEIL-5\C251\LIB\C2SFPXS.LIB (?C?FPDIV)
         COMMENT TYPE 0: A251 V4.69.6.0
  C:\PROGRAM FILES\KEIL-5\C251\LIB\C2SFPXS.LIB (?C?FPCMP)
         COMMENT TYPE 0: A251 V4.69.6.0
  C:\PROGRAM FILES\KEIL-5\C251\LIB\C2SFPXS.LIB (?C?FCAST)
         COMMENT TYPE 0: A251 V4.69.6.0
  C:\PROGRAM FILES\KEIL-5\C251\LIB\C2SFPXS.LIB (?C?CASTF)
         COMMENT TYPE 0: A251 V4.69.6.0
  C:\PROGRAM FILES\KEIL-5\C251\LIB\C2SFPXS.LIB (PRINTF)
         COMMENT TYPE 0: A251 V4.69.6.0
  C:\PROGRAM FILES\KEIL-5\C251\LIB\C2SFPXS.LIB (pow)
         COMMENT TYPE 0: C251 V5.58.7
  C:\PROGRAM FILES\KEIL-5\C251\LIB\C2SFPXS.LIB (?C?FPGETOPN)
         COMMENT TYPE 0: A251 V4.69.6.0
  C:\PROGRAM FILES\KEIL-5\C251\LIB\C2SFPXS.LIB (_CHKFLOAT_?_)
         COMMENT TYPE 0: A251 V4.69.6.0
  C:\PROGRAM FILES\KEIL-5\C251\LIB\C2SFPXS.LIB (?C?FPNEG)
         COMMENT TYPE 0: A251 V4.69.6.0
  C:\PROGRAM FILES\KEIL-5\C251\LIB\C2SFPXS.LIB (?C?PRNFMT)
         COMMENT TYPE 0: A251 V4.69.6.0
  C:\PROGRAM FILES\KEIL-5\C251\LIB\C2SFPXS.LIB (EXP?_)
         COMMENT TYPE 0: A251 V4.69.6.0
  C:\PROGRAM FILES\KEIL-5\C251\LIB\C2SFPXS.LIB (LOG?_)
         COMMENT TYPE 0: A251 V4.69.6.0
  C:\PROGRAM FILES\KEIL-5\C251\LIB\C2SFPXS.LIB (?C?FPCONVERT)
         COMMENT TYPE 0: A251 V4.69.6.0
  C:\PROGRAM FILES\KEIL-5\C251\LIB\C2SFPXS.LIB (?C?FPSERIES)
         COMMENT TYPE 0: A251 V4.69.6.0
  C:\PROGRAM FILES\KEIL-5\C251\LIB\C2SFPXS.LIB (?C?FTNPWR)
         COMMENT TYPE 0: A251 V4.69.6.0
  C:\PROGRAM FILES\KEIL-5\C251\LIB\C2SXS.LIB (?C_START)
L251 LINKER/LOCATER V4.66.93.0                                                        10/06/2023  19:39:35  PAGE 3


         COMMENT TYPE 0: A251 V4.69.6.0
  C:\PROGRAM FILES\KEIL-5\C251\LIB\C2SXS.LIB (?C?INITEDATA)
         COMMENT TYPE 0: A251 V4.69.6.0
  C:\PROGRAM FILES\KEIL-5\C251\LIB\C2SXS.LIB (?C?SIDIV)
         COMMENT TYPE 0: A251 V4.69.6.0
  C:\PROGRAM FILES\KEIL-5\C251\LIB\C2SXS.LIB (?C?LMUL)
         COMMENT TYPE 0: A251 V4.69.6.0
  C:\PROGRAM FILES\KEIL-5\C251\LIB\C2SXS.LIB (?C?LIMUL)
         COMMENT TYPE 0: A251 V4.69.6.0
  C:\PROGRAM FILES\KEIL-5\C251\LIB\C2SXS.LIB (?C?ULDIV)
         COMMENT TYPE 0: A251 V4.69.6.0
  C:\PROGRAM FILES\KEIL-5\C251\LIB\C2SXS.LIB (?C?SLDIV)
         COMMENT TYPE 0: A251 V4.69.6.0
  C:\PROGRAM FILES\KEIL-5\C251\LIB\C2SXS.LIB (memcpy)
         COMMENT TYPE 0: C251 V5.58.7
  C:\PROGRAM FILES\KEIL-5\C251\LIB\C2SXS.LIB (memset)
         COMMENT TYPE 0: C251 V5.58.7
  C:\PROGRAM FILES\KEIL-5\C251\LIB\C2SXS.LIB (?C?INITEDATA_END)
         COMMENT TYPE 0: A251 V4.69.6.0


ACTIVE MEMORY CLASSES OF MODULE:  .\Out_File\SEEKFREE (board)

BASE        START       END         USED      MEMORY CLASS
==========================================================
000000H     000000H     000FFFH     000E0EH   EDATA
000000H     000000H     000FFFH               HDATA
FF0000H     FF0000H     FFFFFFH     007F02H   CODE
000000H     FF0000H     FFFFFFH     000307H   HCONST
FF0000H     FF0000H     FFFFFFH     000004H   CONST
000000H     000000H     00007FH     000008H   DATA


MEMORY MAP OF MODULE:  .\Out_File\SEEKFREE (board)


START     STOP      LENGTH    ALIGN  RELOC    MEMORY CLASS   SEGMENT NAME
=========================================================================
000000H   000007H   000008H   ---    AT..     DATA           "REG BANK 0"
000008H   0000F7H   0000F0H   BYTE   UNIT     EDATA          ?ED?EM
0000F8H   00019DH   0000A6H   BYTE   UNIT     EDATA          ?ED?EM_ADC?EM
00019EH   000237H   00009AH   BYTE   UNIT     EDATA          ?ED?PIDCC
000238H   0002C3H   00008CH   BYTE   UNIT     EDATA          ?ED?DL1B_INIT?SEEKFREE_DL1B
0002C4H   000322H   00005FH   BYTE   UNIT     EDATA          ?ED?ZF_SPRINTF?SEEKFREE_PRINTF
000323H   000377H   000055H   BYTE   UNIT     EDATA          ?ED?SEEKFREE_BLUETOOTH_CH9141
000378H   0003CCH   000055H   BYTE   UNIT     EDATA          ?ED?SEEKFREE_WIRELESS
0003CDH   000421H   000055H   BYTE   UNIT     EDATA          ?ED?SEEKFREE_WIRELESS_CH573
000422H   00046FH   00004EH   BYTE   UNIT     EDATA          ?ED?PID
000470H   00049FH   000030H   BYTE   UNIT     EDATA          ?ED?LCD_SHOWFLOAT_SIMSPI?SEEKFREE_18TFT
0004A0H   0004CFH   000030H   BYTE   UNIT     EDATA          ?ED?LCD_SHOWFLOAT?SEEKFREE_18TFT
0004D0H   0004FFH   000030H   BYTE   UNIT     EDATA          ?ED?IPS114_SHOWFLOAT_SIMSPI?SEEKFREE_IPS114_SPI
000500H   00052FH   000030H   BYTE   UNIT     EDATA          ?ED?IPS114_SHOWFLOAT?SEEKFREE_IPS114_SPI
000530H   00055FH   000030H   BYTE   UNIT     EDATA          ?ED?OLED_PRINTF_FLOAT?SEEKFREE_OLED
000560H   00058FH   000030H   BYTE   UNIT     EDATA          ?ED?OLED_PRINTF_FLOAT_SPI?SEEKFREE_OLED
000590H   0005BEH   00002FH   BYTE   UNIT     EDATA          ?ED?DL1A_SET_MEASUREMENT_TIMING_BUDGET?SEEKFREE_DL1A
0005BFH   0005EAH   00002CH   BYTE   UNIT     EDATA          ?ED?LCD_SHOWINT32_SIMSPI?SEEKFREE_18TFT
0005EBH   000616H   00002CH   BYTE   UNIT     EDATA          ?ED?LCD_SHOWINT32?SEEKFREE_18TFT
000617H   000642H   00002CH   BYTE   UNIT     EDATA          ?ED?IPS114_SHOWINT32_SIMSPI?SEEKFREE_IPS114_SPI
000643H   00066EH   00002CH   BYTE   UNIT     EDATA          ?ED?IPS114_SHOWINT32?SEEKFREE_IPS114_SPI
00066FH   00069AH   00002CH   BYTE   UNIT     EDATA          ?ED?OLED_PRINTF_INT32?SEEKFREE_OLED
00069BH   0006C6H   00002CH   BYTE   UNIT     EDATA          ?ED?OLED_PRINTF_INT32_SPI?SEEKFREE_OLED
0006C7H   0006EBH   000025H   BYTE   UNIT     EDATA          ?ED?ADC_NORMALIZATION1?EM
0006ECH   00070BH   000020H   BYTE   UNIT     EDATA          ?ED?FILTER?ZF_ADC
00070CH   00072AH   00001FH   BYTE   UNIT     EDATA          ?ED?DL1A_GET_MEASUREMENT_TIMING_BUDGET?SEEKFREE_DL1A
00072BH   00073FH   000015H   BYTE   UNIT     EDATA          ?ED?DL1A_INIT?SEEKFREE_DL1A
L251 LINKER/LOCATER V4.66.93.0                                                        10/06/2023  19:39:35  PAGE 4


000740H   000753H   000014H   BYTE   UNIT     EDATA          ?ED?PWM_INIT?ZF_PWM
000754H   000767H   000014H   BYTE   UNIT     EDATA          ?ED?PWM_FREQ?ZF_PWM
000768H   00077BH   000014H   BYTE   UNIT     EDATA          ?ED?NUMBER_CONVERSION_ASCII?SEEKFREE_PRINTF
00077CH   00078FH   000014H   BYTE   UNIT     EDATA          ?ED?ENCODER
000790H   0007A3H   000014H   BYTE   UNIT     EDATA          ?ED?ELE_DIRECTION_CONTROL?PIDCC
0007A4H   0007B6H   000013H   BYTE   UNIT     EDATA          ?ED?FIFO_READ_BUFFER?ZF_FIFO
0007B7H   0007C8H   000012H   BYTE   UNIT     EDATA          ?ED?SEEKFREE_IMU963RA
0007C9H   0007DAH   000012H   BYTE   UNIT     EDATA          ?ED?OLED_DIS_BMP?SEEKFREE_OLED
0007DBH   0007ECH   000012H   BYTE   UNIT     EDATA          ?ED?OLED_DIS_BMP_SPI?SEEKFREE_OLED
0007EDH   0007FCH   000010H   BYTE   UNIT     EDATA          ?ED?FIFO_WRITE_BUFFER?ZF_FIFO
0007FDH   00080CH   000010H   BYTE   UNIT     EDATA          ?ED?DL1B_IIC_TRANSFER_8BIT_ARRAY?SEEKFREE_DL1B
00080DH   00081AH   00000EH   BYTE   UNIT     EDATA          ?ED?PWM_DUTY?ZF_PWM
00081BH   000828H   00000EH   BYTE   UNIT     EDATA          ?ED?UART_INIT?ZF_UART
000829H   000836H   00000EH   BYTE   UNIT     EDATA          ?ED?OLED_PRINT_CHINESE?SEEKFREE_OLED
000837H   000844H   00000EH   BYTE   UNIT     EDATA          ?ED?OLED_PRINT_CHINESE_SPI?SEEKFREE_OLED
000845H   000852H   00000EH   BYTE   UNIT     EDATA          ?ED?DATA_CONVERSION?SEEKFREE_VIRSCO
000853H   00085FH   00000DH   BYTE   UNIT     EDATA          ?ED?ICM20602_SIMSPI_R_REG_BYTES?SEEKFREE_ICM20602
000860H   00086CH   00000DH   BYTE   UNIT     EDATA          ?ED?PRINTF_REVERSE_ORDER?SEEKFREE_PRINTF
00086DH   000878H   00000CH   BYTE   UNIT     EDATA          ?ED?FIFO_INIT?ZF_FIFO
000879H   000884H   00000CH   BYTE   UNIT     EDATA          ?ED?LCD_SHOWINT16_SIMSPI?SEEKFREE_18TFT
000885H   000890H   00000CH   BYTE   UNIT     EDATA          ?ED?LCD_SHOWUINT16_SIMSPI?SEEKFREE_18TFT
000891H   00089CH   00000CH   BYTE   UNIT     EDATA          ?ED?LCD_SHOWINT16?SEEKFREE_18TFT
00089DH   0008A8H   00000CH   BYTE   UNIT     EDATA          ?ED?LCD_SHOWUINT16?SEEKFREE_18TFT
0008A9H   0008B4H   00000CH   BYTE   UNIT     EDATA          ?ED?SHOWIMAGE?SEEKFREE_18TFT
0008B5H   0008C0H   00000CH   BYTE   UNIT     EDATA          ?ED?BLUETOOTH_CH9141_READ_BUFF?SEEKFREE_BLUETOOTH_CH9141
0008C1H   0008CCH   00000CH   BYTE   UNIT     EDATA          ?ED?DL1A_GET_SPAD_INFO?SEEKFREE_DL1A
0008CDH   0008D8H   00000CH   BYTE   UNIT     EDATA          ?ED?DL1A_GET_SEQUENCE_STEP_TIMEOUTS?SEEKFREE_DL1A
0008D9H   0008E4H   00000CH   BYTE   UNIT     EDATA          ?ED?SEEKFREE_ICM20602
0008E5H   0008F0H   00000CH   BYTE   UNIT     EDATA          ?ED?SEEKFREE_IMU660RA
0008F1H   0008FCH   00000CH   BYTE   UNIT     EDATA          ?ED?IPS114_SHOWINT16_SIMSPI?SEEKFREE_IPS114_SPI
0008FDH   000908H   00000CH   BYTE   UNIT     EDATA          ?ED?IPS114_SHOWUINT16_SIMSPI?SEEKFREE_IPS114_SPI
000909H   000914H   00000CH   BYTE   UNIT     EDATA          ?ED?IPS114_SHOWINT16?SEEKFREE_IPS114_SPI
000915H   000920H   00000CH   BYTE   UNIT     EDATA          ?ED?IPS114_SHOWUINT16?SEEKFREE_IPS114_SPI
000921H   00092CH   00000CH   BYTE   UNIT     EDATA          ?ED?SEEKFREE_MPU6050
00092DH   000938H   00000CH   BYTE   UNIT     EDATA          ?ED?WIRELESS_UART_READ_BUFF?SEEKFREE_WIRELESS
000939H   000944H   00000CH   BYTE   UNIT     EDATA          ?ED?WIRELESS_CH573_READ_BUFF?SEEKFREE_WIRELESS_CH573
000945H   000950H   00000CH   BYTE   UNIT     EDATA          ?ED?JUDGE_CIRCLE_IN?PIDCC
000951H   00095CH   00000CH   BYTE   UNIT     EDATA          ?ED?JUDGE_CIRCLE_OUT?PIDCC
00095DH   000967H   00000BH   BYTE   UNIT     EDATA          ?ED?OLED_UINT16?SEEKFREE_OLED
000968H   000972H   00000BH   BYTE   UNIT     EDATA          ?ED?OLED_INT16?SEEKFREE_OLED
000973H   00097DH   00000BH   BYTE   UNIT     EDATA          ?ED?OLED_UINT16_SPI?SEEKFREE_OLED
00097EH   000988H   00000BH   BYTE   UNIT     EDATA          ?ED?OLED_INT16_SPI?SEEKFREE_OLED
000989H   000992H   00000AH   BYTE   UNIT     EDATA          ?ED?IAP_READ_BYTES?ZF_EEPROM
000993H   00099CH   00000AH   BYTE   UNIT     EDATA          ?ED?IAP_WRITE_BYTES?ZF_EEPROM
00099DH   0009A6H   00000AH   BYTE   UNIT     EDATA          ?ED?LCD_SHOWSTR_SIMSPI?SEEKFREE_18TFT
0009A7H   0009B0H   00000AH   BYTE   UNIT     EDATA          ?ED?LCD_SHOWSTR?SEEKFREE_18TFT
0009B1H   0009BAH   00000AH   BYTE   UNIT     EDATA          ?ED?BLUETOOTH_CH9141_SEND_BUFF?SEEKFREE_BLUETOOTH_CH9141
0009BBH   0009C4H   00000AH   BYTE   UNIT     EDATA          ?ED?DL1A_SIMIIC_READ_REGS?SEEKFREE_DL1A
0009C5H   0009CEH   00000AH   BYTE   UNIT     EDATA          ?ED?DL1A_SIMIIC_READ_REGS_1?SEEKFREE_DL1A
0009CFH   0009D8H   00000AH   BYTE   UNIT     EDATA          ?ED?DL1A_ENCODE_TIMEOUT?SEEKFREE_DL1A
0009D9H   0009E2H   00000AH   BYTE   UNIT     EDATA          ?ED?IPS114_SHOWSTR_SIMSPI?SEEKFREE_IPS114_SPI
0009E3H   0009ECH   00000AH   BYTE   UNIT     EDATA          ?ED?IPS114_SHOWSTR?SEEKFREE_IPS114_SPI
0009EDH   0009F6H   00000AH   BYTE   UNIT     EDATA          ?ED?SEEKFREE_VIRSCO
0009F7H   0009FFH   000009H   BYTE   UNIT     EDATA          ?ED?LCD_SHOWINT8_SIMSPI?SEEKFREE_18TFT
000A00H   000A08H   000009H   BYTE   UNIT     EDATA          ?ED?LCD_SHOWUINT8_SIMSPI?SEEKFREE_18TFT
000A09H   000A11H   000009H   BYTE   UNIT     EDATA          ?ED?LCD_SHOWINT8?SEEKFREE_18TFT
000A12H   000A1AH   000009H   BYTE   UNIT     EDATA          ?ED?LCD_SHOWUINT8?SEEKFREE_18TFT
000A1BH   000A23H   000009H   BYTE   UNIT     EDATA          ?ED?DL1A_SIMIIC_WRITE_DATS?SEEKFREE_DL1A
000A24H   000A2CH   000009H   BYTE   UNIT     EDATA          ?ED?DL1A_TIMEOUT_MICROSECONDS_TO_MCLKS?SEEKFREE_DL1A
000A2DH   000A35H   000009H   BYTE   UNIT     EDATA          ?ED?DL1A_SET_SIGNAL_RATE_LIMIT?SEEKFREE_DL1A
000A36H   000A3EH   000009H   BYTE   UNIT     EDATA          ?ED?ICM20602_READ_REGISTERS?SEEKFREE_ICM20602
000A3FH   000A47H   000009H   BYTE   UNIT     EDATA          ?ED?IMU660RA_SIMSPI_W_REG_BYTES?SEEKFREE_IMU660RA
000A48H   000A50H   000009H   BYTE   UNIT     EDATA          ?ED?IMU660RA_SIMSPI_R_REG_BYTES?SEEKFREE_IMU660RA
000A51H   000A59H   000009H   BYTE   UNIT     EDATA          ?ED?IMU660RA_WRITE_REGISTERS?SEEKFREE_IMU660RA
000A5AH   000A62H   000009H   BYTE   UNIT     EDATA          ?ED?IMU660RA_READ_REGISTERS?SEEKFREE_IMU660RA
L251 LINKER/LOCATER V4.66.93.0                                                        10/06/2023  19:39:35  PAGE 5


000A63H   000A6BH   000009H   BYTE   UNIT     EDATA          ?ED?IMU963RA_SIMSPI_R_REG_BYTES?SEEKFREE_IMU963RA
000A6CH   000A74H   000009H   BYTE   UNIT     EDATA          ?ED?IMU963RA_READ_ACC_GYRO_REGISTERS?SEEKFREE_IMU963RA
000A75H   000A7DH   000009H   BYTE   UNIT     EDATA          ?ED?IPS114_SHOWINT8_SIMSPI?SEEKFREE_IPS114_SPI
000A7EH   000A86H   000009H   BYTE   UNIT     EDATA          ?ED?IPS114_SHOWUINT8_SIMSPI?SEEKFREE_IPS114_SPI
000A87H   000A8FH   000009H   BYTE   UNIT     EDATA          ?ED?IPS114_SHOWINT8?SEEKFREE_IPS114_SPI
000A90H   000A98H   000009H   BYTE   UNIT     EDATA          ?ED?IPS114_SHOWUINT8?SEEKFREE_IPS114_SPI
000A99H   000AA1H   000009H   BYTE   UNIT     EDATA          ?ED?OLED_P6X8STR?SEEKFREE_OLED
000AA2H   000AAAH   000009H   BYTE   UNIT     EDATA          ?ED?OLED_P8X16STR?SEEKFREE_OLED
000AABH   000AB3H   000009H   BYTE   UNIT     EDATA          ?ED?OLED_P6X8STR_SPI?SEEKFREE_OLED
000AB4H   000ABCH   000009H   BYTE   UNIT     EDATA          ?ED?OLED_P8X16STR_SPI?SEEKFREE_OLED
000ABDH   000AC5H   000009H   BYTE   UNIT     EDATA          ?ED?CRC_CHECK?SEEKFREE_VIRSCO
000AC6H   000ACDH   000008H   BYTE   UNIT     EDATA          ?ED?UART_PUTBUFF?ZF_UART
000ACEH   000AD5H   000008H   BYTE   UNIT     EDATA          ?ED?FIFO_HEAD_OFFSET?ZF_FIFO
000AD6H   000ADDH   000008H   BYTE   UNIT     EDATA          ?ED?FIFO_END_OFFSET?ZF_FIFO
000ADEH   000AE5H   000008H   BYTE   UNIT     EDATA          ?ED?LCD_SET_REGION_SIMSPI?SEEKFREE_18TFT
000AE6H   000AEDH   000008H   BYTE   UNIT     EDATA          ?ED?LCD_SHOWCHAR_SIMSPI?SEEKFREE_18TFT
000AEEH   000AF5H   000008H   BYTE   UNIT     EDATA          ?ED?LCD_SET_REGION?SEEKFREE_18TFT
000AF6H   000AFDH   000008H   BYTE   UNIT     EDATA          ?ED?LCD_SHOWCHAR?SEEKFREE_18TFT
000AFEH   000B05H   000008H   BYTE   UNIT     EDATA          ?ED?IPS114_SET_REGION_SIMSPI?SEEKFREE_IPS114_SPI
000B06H   000B0DH   000008H   BYTE   UNIT     EDATA          ?ED?IPS114_SHOWCHAR_SIMSPI?SEEKFREE_IPS114_SPI
000B0EH   000B15H   000008H   BYTE   UNIT     EDATA          ?ED?IPS114_SET_REGION?SEEKFREE_IPS114_SPI
000B16H   000B1DH   000008H   BYTE   UNIT     EDATA          ?ED?IPS114_SHOWCHAR?SEEKFREE_IPS114_SPI
000B1EH   000B25H   000008H   BYTE   UNIT     EDATA          ?ED?OLED_HEXASCII?SEEKFREE_OLED
000B26H   000B2DH   000008H   BYTE   UNIT     EDATA          ?ED?OLED_HEXASCII_SPI?SEEKFREE_OLED
000B2EH   000B35H   000008H   BYTE   UNIT     EDATA          ?ED?SPEEDLEFT_PID_REALIZE?PIDCC
000B36H   000B3DH   000008H   BYTE   UNIT     EDATA          ?ED?SPEEDRIGHT_PID_REALIZE?PIDCC
000B3EH   000B44H   000007H   BYTE   UNIT     EDATA          ?ED?SPI_INIT?ZF_SPI
000B45H   000B4BH   000007H   BYTE   UNIT     EDATA          ?ED?DL1A_TIMEOUT_MCLKS_TO_MICROSECONDS?SEEKFREE_DL1A
000B4CH   000B52H   000007H   BYTE   UNIT     EDATA          ?ED?IMU660RA_GET_ACC?SEEKFREE_IMU660RA
000B53H   000B59H   000007H   BYTE   UNIT     EDATA          ?ED?IMU660RA_GET_GYRO?SEEKFREE_IMU660RA
000B5AH   000B60H   000007H   BYTE   UNIT     EDATA          ?ED?IMU963RA_GET_MAG?SEEKFREE_IMU963RA
000B61H   000B67H   000007H   BYTE   UNIT     EDATA          ?ED?MPU6050_SIMIIC_READ_REGS?SEEKFREE_MPU6050
000B68H   000B6DH   000006H   BYTE   UNIT     EDATA          ?ED?ADC_ONCE?ZF_ADC
000B6EH   000B73H   000006H   BYTE   UNIT     EDATA          ?ED?DELAY_US?ZF_DELAY
000B74H   000B79H   000006H   BYTE   UNIT     EDATA          ?ED?PIT_TIMER_MS?ZF_TIM
000B7AH   000B7FH   000006H   BYTE   UNIT     EDATA          ?ED?UART_PUTSTR?ZF_UART
000B80H   000B85H   000006H   BYTE   UNIT     EDATA          ?ED?LCD_DRAWPOINT_SIMSPI?SEEKFREE_18TFT
000B86H   000B8BH   000006H   BYTE   UNIT     EDATA          ?ED?LCD_DRAWPOINT?SEEKFREE_18TFT
000B8CH   000B91H   000006H   BYTE   UNIT     EDATA          ?ED?ICM20602_GET_ACC?SEEKFREE_ICM20602
000B92H   000B97H   000006H   BYTE   UNIT     EDATA          ?ED?ICM20602_GET_GYRO?SEEKFREE_ICM20602
000B98H   000B9DH   000006H   BYTE   UNIT     EDATA          ?ED?ICM20602_ACC_TRANSITION?SEEKFREE_ICM20602
000B9EH   000BA3H   000006H   BYTE   UNIT     EDATA          ?ED?ICM20602_GYRO_TRANSITION?SEEKFREE_ICM20602
000BA4H   000BA9H   000006H   BYTE   UNIT     EDATA          ?ED?IMU660RA_ACC_TRANSITION?SEEKFREE_IMU660RA
000BAAH   000BAFH   000006H   BYTE   UNIT     EDATA          ?ED?IMU660RA_GYRO_TRANSITION?SEEKFREE_IMU660RA
000BB0H   000BB5H   000006H   BYTE   UNIT     EDATA          ?ED?IMU963RA_WRITE_MAG_REGISTER?SEEKFREE_IMU963RA
000BB6H   000BBBH   000006H   BYTE   UNIT     EDATA          ?ED?IMU963RA_GET_ACC?SEEKFREE_IMU963RA
000BBCH   000BC1H   000006H   BYTE   UNIT     EDATA          ?ED?IMU963RA_GET_GYRO?SEEKFREE_IMU963RA
000BC2H   000BC7H   000006H   BYTE   UNIT     EDATA          ?ED?IMU963RA_ACC_TRANSITION?SEEKFREE_IMU963RA
000BC8H   000BCDH   000006H   BYTE   UNIT     EDATA          ?ED?IMU963RA_GYRO_TRANSITION?SEEKFREE_IMU963RA
000BCEH   000BD3H   000006H   BYTE   UNIT     EDATA          ?ED?IMU963RA_MAG_TRANSITION?SEEKFREE_IMU963RA
000BD4H   000BD9H   000006H   BYTE   UNIT     EDATA          ?ED?IPS114_CLEAR_SIMSPI?SEEKFREE_IPS114_SPI
000BDAH   000BDFH   000006H   BYTE   UNIT     EDATA          ?ED?IPS114_DRAWPOINT_SIMSPI?SEEKFREE_IPS114_SPI
000BE0H   000BE5H   000006H   BYTE   UNIT     EDATA          ?ED?IPS114_CLEAR?SEEKFREE_IPS114_SPI
000BE6H   000BEBH   000006H   BYTE   UNIT     EDATA          ?ED?IPS114_DRAWPOINT?SEEKFREE_IPS114_SPI
000BECH   000BF1H   000006H   BYTE   UNIT     EDATA          ?ED?MPU6050_GET_ACCDATA?SEEKFREE_MPU6050
000BF2H   000BF7H   000006H   BYTE   UNIT     EDATA          ?ED?MPU6050_GET_GYRO?SEEKFREE_MPU6050
000BF8H   000BFDH   000006H   BYTE   UNIT     EDATA          ?ED?WIRELESS_UART_SEND_BUFF?SEEKFREE_WIRELESS
000BFEH   000C03H   000006H   BYTE   UNIT     EDATA          ?ED?WIRELESS_CH573_SEND_BUFF?SEEKFREE_WIRELESS_CH573
000C04H   000C09H   000006H   BYTE   UNIT     EDATA          ?ED?INFRARED_DETECTION?EM
000C0AH   000C0EH   000005H   BYTE   UNIT     EDATA          ?ED?ZF_UART
000C0FH   000C13H   000005H   BYTE   UNIT     EDATA          ?ED?DL1A_GET_SEQUENCE_STEP_ENABLES?SEEKFREE_DL1A
000C14H   000C18H   000005H   BYTE   UNIT     EDATA          ?ED?DL1A_PERFORM_SINGLE_REF_CALIBRATION?SEEKFREE_DL1A
000C19H   000C1DH   000005H   BYTE   UNIT     EDATA          ?ED?DL1B_GET_DISTANCE?SEEKFREE_DL1B
000C1EH   000C22H   000005H   BYTE   UNIT     EDATA          ?ED?ICM20602_SIMSPI_R_REG_BYTE?SEEKFREE_ICM20602
000C23H   000C27H   000005H   BYTE   UNIT     EDATA          ?ED?IMU963RA_SIMSPI_R_REG_BYTE?SEEKFREE_IMU963RA
L251 LINKER/LOCATER V4.66.93.0                                                        10/06/2023  19:39:35  PAGE 6


000C28H   000C2BH   000004H   BYTE   UNIT     EDATA          ?ED?BOARD
000C2CH   000C2FH   000004H   BYTE   UNIT     EDATA          ?ED?ADC_INIT?ZF_ADC
000C30H   000C33H   000004H   BYTE   UNIT     EDATA          ?ED?ZF_DELAY
000C34H   000C37H   000004H   BYTE   UNIT     EDATA          ?ED?DELAY_MS?ZF_DELAY
000C38H   000C3BH   000004H   BYTE   UNIT     EDATA          ?ED?IAP_ERASE_PAGE?ZF_EEPROM
000C3CH   000C3FH   000004H   BYTE   UNIT     EDATA          ?ED?EXIT_INIT?ZF_EXTI
000C40H   000C43H   000004H   BYTE   UNIT     EDATA          ?ED?GPIO_PULL_SET?ZF_GPIO
000C44H   000C47H   000004H   BYTE   UNIT     EDATA          ?ED?GPIO_MODE?ZF_GPIO
000C48H   000C4BH   000004H   BYTE   UNIT     EDATA          ?ED?CTIMER_COUNT_READ?ZF_TIM
000C4CH   000C4FH   000004H   BYTE   UNIT     EDATA          ?ED?FIFO_CLEAR?ZF_FIFO
000C50H   000C53H   000004H   BYTE   UNIT     EDATA          ?ED?FIFO_USED?ZF_FIFO
000C54H   000C57H   000004H   BYTE   UNIT     EDATA          ?ED?LCD_CLEAR_SIMSPI?SEEKFREE_18TFT
000C58H   000C5BH   000004H   BYTE   UNIT     EDATA          ?ED?LCD_WRITEDATA_16BIT?SEEKFREE_18TFT
000C5CH   000C5FH   000004H   BYTE   UNIT     EDATA          ?ED?LCD_CLEAR?SEEKFREE_18TFT
000C60H   000C63H   000004H   BYTE   UNIT     EDATA          ?ED?SEEKFREE_DL1B
000C64H   000C67H   000004H   BYTE   UNIT     EDATA          ?ED?ICM20602_SELF_CHECK?SEEKFREE_ICM20602
000C68H   000C6BH   000004H   BYTE   UNIT     EDATA          ?ED?ICM20602_INIT?SEEKFREE_ICM20602
000C6CH   000C6FH   000004H   BYTE   UNIT     EDATA          ?ED?IMU660RA_SELF_CHECK?SEEKFREE_IMU660RA
000C70H   000C73H   000004H   BYTE   UNIT     EDATA          ?ED?IMU963RA_READ_MAG_REGISTER?SEEKFREE_IMU963RA
000C74H   000C77H   000004H   BYTE   UNIT     EDATA          ?ED?IMU963RA_ACC_GYRO_SELF_CHECK?SEEKFREE_IMU963RA
000C78H   000C7BH   000004H   BYTE   UNIT     EDATA          ?ED?IMU963RA_MAG_SELF_CHECK?SEEKFREE_IMU963RA
000C7CH   000C7FH   000004H   BYTE   UNIT     EDATA          ?ED?IPS114_WRITEDATA_16BIT?SEEKFREE_IPS114_SPI
000C80H   000C83H   000004H   BYTE   UNIT     EDATA          ?ED?PWMSETMOTOR2?MOTOR
000C84H   000C86H   000003H   BYTE   UNIT     EDATA          ?ED?NVIC_SETPRIORITY?ZF_NVIC
000C87H   000C89H   000003H   BYTE   UNIT     EDATA          ?ED?UART_PUTCHAR?ZF_UART
000C8AH   000C8CH   000003H   BYTE   UNIT     EDATA          ?ED?LCD_WRITEDATA_16BIT_SIMSPI?SEEKFREE_18TFT
000C8DH   000C8FH   000003H   BYTE   UNIT     EDATA          ?ED?SEEKFREE_DL1A
000C90H   000C92H   000003H   BYTE   UNIT     EDATA          ?ED?DL1A_READ_CH?SEEKFREE_DL1A
000C93H   000C95H   000003H   BYTE   UNIT     EDATA          ?ED?DL1A_SIMIIC_WRITE_REG?SEEKFREE_DL1A
000C96H   000C98H   000003H   BYTE   UNIT     EDATA          ?ED?DL1A_SIMIIC_READ_REG?SEEKFREE_DL1A
000C99H   000C9BH   000003H   BYTE   UNIT     EDATA          ?ED?DL1A_GET_VCSEL_PULSE_PERIOD?SEEKFREE_DL1A
000C9CH   000C9EH   000003H   BYTE   UNIT     EDATA          ?ED?DL1A_GET_DISTANCE?SEEKFREE_DL1A
000C9FH   000CA1H   000003H   BYTE   UNIT     EDATA          ?ED?DL1B_READ_CH?SEEKFREE_DL1B
000CA2H   000CA4H   000003H   BYTE   UNIT     EDATA          ?ED?IMU660RA_READ_REGISTER?SEEKFREE_IMU660RA
000CA5H   000CA7H   000003H   BYTE   UNIT     EDATA          ?ED?IPS114_WRITEDATAI_16BIT_SIMSPI?SEEKFREE_IPS114_SPI
000CA8H   000CAAH   000003H   BYTE   UNIT     EDATA          ?ED?MPU6050_READ_CH?SEEKFREE_MPU6050
000CABH   000CADH   000003H   BYTE   UNIT     EDATA          ?ED?MPU6050_SIMIIC_WRITE_REG?SEEKFREE_MPU6050
000CAEH   000CB0H   000003H   BYTE   UNIT     EDATA          ?ED?MPU6050_SIMIIC_READ_REG?SEEKFREE_MPU6050
000CB1H   000CB3H   000003H   BYTE   UNIT     EDATA          ?ED?OLED_FILL?SEEKFREE_OLED
000CB4H   000CB6H   000003H   BYTE   UNIT     EDATA          ?ED?OLED_PUTPIXEL?SEEKFREE_OLED
000CB7H   000CB9H   000003H   BYTE   UNIT     EDATA          ?ED?OLED_FILL_SPI?SEEKFREE_OLED
000CBAH   000CBCH   000003H   BYTE   UNIT     EDATA          ?ED?OLED_PUTPIXEL_SPI?SEEKFREE_OLED
000CBDH   000CBEH   000002H   BYTE   UNIT     EDATA          ?ED?COMMON
000CBFH   000CC0H   000002H   BYTE   UNIT     EDATA          ?ED?PWM_SET_GPIO?ZF_PWM
000CC1H   000CC2H   000002H   BYTE   UNIT     EDATA          ?ED?SPI_CHANGE_PIN?ZF_SPI
000CC3H   000CC4H   000002H   BYTE   UNIT     EDATA          ?ED?CTIMER_COUNT_INIT?ZF_TIM
000CC5H   000CC6H   000002H   BYTE   UNIT     EDATA          ?ED?CTIMER_COUNT_CLEAN?ZF_TIM
000CC7H   000CC8H   000002H   BYTE   UNIT     EDATA          ?ED?LCD_WRITEINDEX_SIMSPI?SEEKFREE_18TFT
000CC9H   000CCAH   000002H   BYTE   UNIT     EDATA          ?ED?LCD_WRITEDATA_SIMSPI?SEEKFREE_18TFT
000CCBH   000CCCH   000002H   BYTE   UNIT     EDATA          ?ED?DL1A_SIMIIC_DELAY?SEEKFREE_DL1A
000CCDH   000CCEH   000002H   BYTE   UNIT     EDATA          ?ED?DL1A_SEND_CH?SEEKFREE_DL1A
000CCFH   000CD0H   000002H   BYTE   UNIT     EDATA          ?ED?DL1A_DECODE_TIMEOUT?SEEKFREE_DL1A
000CD1H   000CD2H   000002H   BYTE   UNIT     EDATA          ?ED?DL1B_SIMIIC_DELAY?SEEKFREE_DL1B
000CD3H   000CD4H   000002H   BYTE   UNIT     EDATA          ?ED?DL1B_SEND_CH?SEEKFREE_DL1B
000CD5H   000CD6H   000002H   BYTE   UNIT     EDATA          ?ED?ICM20602_SIMSPI_WR_BYTE?SEEKFREE_ICM20602
000CD7H   000CD8H   000002H   BYTE   UNIT     EDATA          ?ED?ICM20602_SIMSPI_W_REG_BYTE?SEEKFREE_ICM20602
000CD9H   000CDAH   000002H   BYTE   UNIT     EDATA          ?ED?ICM20602_WRITE_REGISTER?SEEKFREE_ICM20602
000CDBH   000CDCH   000002H   BYTE   UNIT     EDATA          ?ED?ICM20602_READ_REGISTER?SEEKFREE_ICM20602
000CDDH   000CDEH   000002H   BYTE   UNIT     EDATA          ?ED?IMU660RA_SIMSPI_WR_BYTE?SEEKFREE_IMU660RA
000CDFH   000CE0H   000002H   BYTE   UNIT     EDATA          ?ED?IMU660RA_SIMSPI_W_REG_BYTE?SEEKFREE_IMU660RA
000CE1H   000CE2H   000002H   BYTE   UNIT     EDATA          ?ED?IMU660RA_WRITE_REGISTER?SEEKFREE_IMU660RA
000CE3H   000CE4H   000002H   BYTE   UNIT     EDATA          ?ED?IMU963RA_SIMSPI_WR_BYTE?SEEKFREE_IMU963RA
000CE5H   000CE6H   000002H   BYTE   UNIT     EDATA          ?ED?IMU963RA_SIMSPI_W_REG_BYTE?SEEKFREE_IMU963RA
000CE7H   000CE8H   000002H   BYTE   UNIT     EDATA          ?ED?IMU963RA_WRITE_ACC_GYRO_REGISTER?SEEKFREE_IMU963RA
000CE9H   000CEAH   000002H   BYTE   UNIT     EDATA          ?ED?IMU963RA_READ_ACC_GYRO_REGISTER?SEEKFREE_IMU963RA
L251 LINKER/LOCATER V4.66.93.0                                                        10/06/2023  19:39:35  PAGE 7


000CEBH   000CECH   000002H   BYTE   UNIT     EDATA          ?ED?IMU963RA_CONNECT_MAG?SEEKFREE_IMU963RA
000CEDH   000CEEH   000002H   BYTE   UNIT     EDATA          ?ED?IPS114_WRITEINDEX_SIMSPI?SEEKFREE_IPS114_SPI
000CEFH   000CF0H   000002H   BYTE   UNIT     EDATA          ?ED?IPS114_WRITEDATA_SIMSPI?SEEKFREE_IPS114_SPI
000CF1H   000CF2H   000002H   BYTE   UNIT     EDATA          ?ED?MPU6050_SIMIIC_DELAY?SEEKFREE_MPU6050
000CF3H   000CF4H   000002H   BYTE   UNIT     EDATA          ?ED?MPU6050_SEND_CH?SEEKFREE_MPU6050
000CF5H   000CF6H   000002H   BYTE   UNIT     EDATA          ?ED?OLED_WRDAT?SEEKFREE_OLED
000CF7H   000CF8H   000002H   BYTE   UNIT     EDATA          ?ED?OLED_WRCMD?SEEKFREE_OLED
000CF9H   000CFAH   000002H   BYTE   UNIT     EDATA          ?ED?OLED_SET_POS?SEEKFREE_OLED
000CFBH   000CFCH   000002H   BYTE   UNIT     EDATA          ?ED?OLED_CLRPIXEL?SEEKFREE_OLED
000CFDH   000CFEH   000002H   BYTE   UNIT     EDATA          ?ED?OLED_SET_POS_SPI?SEEKFREE_OLED
000CFFH   000D00H   000002H   BYTE   UNIT     EDATA          ?ED?OLED_CLRPIXEL_SPI?SEEKFREE_OLED
000D01H   000D02H   000002H   BYTE   UNIT     EDATA          ?ED?MAIN
000D03H   000D04H   000002H   BYTE   UNIT     EDATA          ?ED?PWMSETSTEER?STEER
000D05H   000D05H   000001H   BYTE   UNIT     EDATA          ?ED?PUTCHAR?BOARD
000D06H   000D06H   000001H   BYTE   UNIT     EDATA          ?ED?IAP_SET_TPS?ZF_EEPROM
000D07H   000D07H   000001H   BYTE   UNIT     EDATA          ?ED?SPI_MOSI?ZF_SPI
000D08H   000D08H   000001H   BYTE   UNIT     EDATA          ?ED?SPI_CHANGE_MODE?ZF_SPI
000D09H   000D09H   000001H   BYTE   UNIT     EDATA          ?ED?LCD_WRITEINDEX?SEEKFREE_18TFT
000D0AH   000D0AH   000001H   BYTE   UNIT     EDATA          ?ED?LCD_WRITEDATA?SEEKFREE_18TFT
000D0BH   000D0BH   000001H   BYTE   UNIT     EDATA          ?ED?DL1A_SIMIIC_SENDACK?SEEKFREE_DL1A
000D0CH   000D0CH   000001H   BYTE   UNIT     EDATA          ?ED?DL1B_SIMIIC_SENDACK?SEEKFREE_DL1B
000D0DH   000D0DH   000001H   BYTE   UNIT     EDATA          ?ED?IMU660RA_INIT?SEEKFREE_IMU660RA
000D0EH   000D0EH   000001H   BYTE   UNIT     EDATA          ?ED?IMU963RA_INIT?SEEKFREE_IMU963RA
000D0FH   000D0FH   000001H   BYTE   UNIT     EDATA          ?ED?IPS114_WRITEINDEX?SEEKFREE_IPS114_SPI
000D10H   000D10H   000001H   BYTE   UNIT     EDATA          ?ED?IPS114_WRITEDATA?SEEKFREE_IPS114_SPI
000D11H   000D11H   000001H   BYTE   UNIT     EDATA          ?ED?MPU6050_SIMIIC_SENDACK?SEEKFREE_MPU6050
000D12H   000D12H   000001H   BYTE   UNIT     EDATA          ?ED?OLED_WRDAT_SPI?SEEKFREE_OLED
000D13H   000D13H   000001H   BYTE   UNIT     EDATA          ?ED?OLED_WRCMD_SPI?SEEKFREE_OLED
000D14H   000D14H   000001H   BYTE   UNIT     EDATA          ?ED?UART1_ISR?ISR
000D15H   000D15H   000001H   BYTE   UNIT     EDATA          ?ED?ISR
000D16H   000E15H   000100H   BYTE   UNIT     EDATA          ?STACK
000E16H   FEFFFFH   FEF1EAH   ---    ---      **GAP**
FF0000H   FF0002H   000003H   ---    OFFS..   CODE           ?CO?start251?4
FF0003H   FF0005H   000003H   ---    OFFS..   CODE           ?PR?IV?0
FF0006H   FF0009H   000004H   BYTE   INSEG    CODE           ?PR?ENABLEGLOBALIRQ?BOARD
FF000AH   FF000AH   000001H   BYTE   INSEG    CODE           ?PR?INT1_ISR?ISR
FF000BH   FF000DH   000003H   ---    OFFS..   CODE           ?PR?IV?1
FF000EH   FF000EH   000001H   BYTE   INSEG    CODE           ?PR?TM0_ISR?ISR
FF000FH   FF0012H   000004H   BYTE   UNIT     CONST          ?CO?PRINTF
FF0013H   FF0015H   000003H   ---    OFFS..   CODE           ?PR?IV?2
FF0016H   FF001AH   000005H   ---    ---      **GAP**
FF001BH   FF001DH   000003H   ---    OFFS..   CODE           ?PR?IV?3
FF001EH   FF0022H   000005H   ---    ---      **GAP**
FF0023H   FF0025H   000003H   ---    OFFS..   CODE           ?PR?IV?4
FF0026H   FF0042H   00001DH   BYTE   INSEG    CODE           ?PR?DL1A_SIMIIC_DELAY?SEEKFREE_DL1A
FF0043H   FF0045H   000003H   ---    OFFS..   CODE           ?PR?IV?8
FF0046H   FF004DH   000008H   BYTE   INSEG    CODE           ?PR?INT0_ISR?ISR
FF004EH   FF0052H   000005H   ---    ---      **GAP**
FF0053H   FF0055H   000003H   ---    OFFS..   CODE           ?PR?IV?10
FF0056H   FF005AH   000005H   ---    ---      **GAP**
FF005BH   FF005DH   000003H   ---    OFFS..   CODE           ?PR?IV?11
FF005EH   FF0062H   000005H   ---    ---      **GAP**
FF0063H   FF0065H   000003H   ---    OFFS..   CODE           ?PR?IV?12
FF0066H   FF0082H   00001DH   BYTE   INSEG    CODE           ?PR?DL1B_SIMIIC_DELAY?SEEKFREE_DL1B
FF0083H   FF0085H   000003H   ---    OFFS..   CODE           ?PR?IV?16
FF0086H   FF008AH   000005H   ---    ---      **GAP**
FF008BH   FF008DH   000003H   ---    OFFS..   CODE           ?PR?IV?17
FF008EH   FF0092H   000005H   ---    ---      **GAP**
FF0093H   FF0095H   000003H   ---    OFFS..   CODE           ?PR?IV?18
FF0096H   FF009AH   000005H   ---    ---      **GAP**
FF009BH   FF009DH   000003H   ---    OFFS..   CODE           ?PR?IV?19
FF009EH   FF00A2H   000005H   ---    ---      **GAP**
FF00A3H   FF00A5H   000003H   ---    OFFS..   CODE           ?PR?IV?20
FF00A6H   FF212CH   002087H   BYTE   UNIT     CODE           ?CO?SEEKFREE_CONFIG
FF212DH   FF2F34H   000E08H   BYTE   UNIT     CODE           ?CO?SEEKFREE_FONT
L251 LINKER/LOCATER V4.66.93.0                                                        10/06/2023  19:39:35  PAGE 8


FF2F35H   FF3AB4H   000B80H   BYTE   UNIT     CODE           ?C?LIB_CODE
FF3AB5H   FF445FH   0009ABH   BYTE   INSEG    CODE           ?PR?ELE_DIRECTION_CONTROL?PIDCC
FF4460H   FF4D6CH   00090DH   BYTE   INSEG    CODE           ?PR?GPIO_MODE?ZF_GPIO
FF4D6DH   FF5146H   0003DAH   BYTE   INSEG    CODE           ?PR?PWM_INIT?ZF_PWM
FF5147H   FF54FEH   0003B8H   BYTE   INSEG    CODE           ?PR?PWM_SET_GPIO?ZF_PWM
FF54FFH   FF57B0H   0002B2H   BYTE   INSEG    CODE           ?PR?UART_INIT?ZF_UART
FF57B1H   FF5A05H   000255H   BYTE   INSEG    CODE           ?PR?SPEEDRIGHT_PID_REALIZE?PIDCC
FF5A06H   FF5C5AH   000255H   BYTE   INSEG    CODE           ?PR?SPEEDLEFT_PID_REALIZE?PIDCC
FF5C5BH   FF5E60H   000206H   BYTE   INSEG    CODE           ?PR?SET_CLK?BOARD
FF5E61H   FF5FD4H   000174H   BYTE   INSEG    CODE           ?PR?IPS114_INIT?SEEKFREE_IPS114_SPI
FF5FD5H   FF613DH   000169H   BYTE   INSEG    CODE           ?PR?DL1A_GET_SEQUENCE_STEP_TIMEOUTS?SEEKFREE_DL1A
FF613EH   FF6290H   000153H   BYTE   INSEG    CODE           ?PR?FILTER?ZF_ADC
FF6291H   FF63C8H   000138H   BYTE   INSEG    CODE           ?PR?FIFO_WRITE_BUFFER?ZF_FIFO
FF63C9H   FF64E0H   000118H   BYTE   INSEG    CODE           ?PR?PWM_DUTY?ZF_PWM
FF64E1H   FF65D5H   0000F5H   BYTE   INSEG    CODE           ?PR?SPI_INIT?ZF_SPI
FF65D6H   FF66C6H   0000F1H   BYTE   INSEG    CODE           ?PR?PWMSETMOTOR2?MOTOR
FF66C7H   FF67ABH   0000E5H   BYTE   INSEG    CODE           ?PR?PIT_TIMER_MS?ZF_TIM
FF67ACH   FF6878H   0000CDH   BYTE   INSEG    CODE           ?PR?IPS114_SHOWUINT16?SEEKFREE_IPS114_SPI
FF6879H   FF6937H   0000BFH   BYTE   INSEG    CODE           ?PR?IPS114_SHOWCHAR?SEEKFREE_IPS114_SPI
FF6938H   FF69ECH   0000B5H   BYTE   INSEG    CODE           ?PR?ADC_INIT?ZF_ADC
FF69EDH   FF6AA0H   0000B4H   BYTE   INSEG    CODE           ?PR?CTIMER_COUNT_READ?ZF_TIM
FF6AA1H   FF6B37H   000097H   BYTE   INSEG    CODE           ?PR?BOARD_INIT?BOARD
FF6B38H   FF6BC5H   00008EH   BYTE   INSEG    CODE           ?PR?DL1A_GET_SEQUENCE_STEP_ENABLES?SEEKFREE_DL1A
FF6BC6H   FF6C48H   000083H   BYTE   INSEG    CODE           ?PR?MAIN?MAIN
FF6C49H   FF6CC7H   00007FH   BYTE   INSEG    CODE           ?PR?DL1A_ENCODE_TIMEOUT?SEEKFREE_DL1A
FF6CC8H   FF6D41H   00007AH   BYTE   INSEG    CODE           ?PR?DL1A_GET_VCSEL_PULSE_PERIOD?SEEKFREE_DL1A
FF6D42H   FF6DB8H   000077H   BYTE   INSEG    CODE           ?PR?ENCODERCOUNT?ENCODER
FF6DB9H   FF6E2DH   000075H   BYTE   INSEG    CODE           ?PR?UART_PUTCHAR?ZF_UART
FF6E2EH   FF6EA0H   000073H   BYTE   INSEG    CODE           ?PR?UART4_ISR?ISR
FF6EA1H   FF6F0CH   00006CH   BYTE   INSEG    CODE           ?PR?IMU963RA_READ_MAG_REGISTER?SEEKFREE_IMU963RA
FF6F0DH   FF6F76H   00006AH   BYTE   INSEG    CODE           ?PR?FIFO_HEAD_OFFSET?ZF_FIFO
FF6F77H   FF6FE0H   00006AH   BYTE   INSEG    CODE           ?PR?DL1A_READ_CH?SEEKFREE_DL1A
FF6FE1H   FF704AH   00006AH   BYTE   INSEG    CODE           ?PR?DL1B_READ_CH?SEEKFREE_DL1B
FF704BH   FF70B2H   000068H   BYTE   INSEG    CODE           ?PR?DL1A_SIMIIC_READ_REGS?SEEKFREE_DL1A
FF70B3H   FF7116H   000064H   BYTE   INSEG    CODE           ?PR?LCD_SET_REGION_SIMSPI?SEEKFREE_18TFT
FF7117H   FF717AH   000064H   BYTE   INSEG    CODE           ?PR?LCD_SET_REGION?SEEKFREE_18TFT
FF717BH   FF71D9H   00005FH   BYTE   INSEG    CODE           ?PR?IPS114_CLEAR?SEEKFREE_IPS114_SPI
FF71DAH   FF7236H   00005DH   BYTE   INSEG    CODE           ?PR?CTIMER_COUNT_CLEAN?ZF_TIM
FF7237H   FF728FH   000059H   BYTE   INSEG    CODE           ?PR?ICM20602_SIMSPI_WR_BYTE?SEEKFREE_ICM20602
FF7290H   FF72E8H   000059H   BYTE   INSEG    CODE           ?PR?IMU660RA_SIMSPI_WR_BYTE?SEEKFREE_IMU660RA
FF72E9H   FF7341H   000059H   BYTE   INSEG    CODE           ?PR?IMU963RA_SIMSPI_WR_BYTE?SEEKFREE_IMU963RA
FF7342H   FF7397H   000056H   BYTE   INSEG    CODE           ?PR?ADC_ONCE?ZF_ADC
FF7398H   FF73ECH   000055H   BYTE   INSEG    CODE           ?PR?LCD_WRITEDATA_16BIT_SIMSPI?SEEKFREE_18TFT
FF73EDH   FF7441H   000055H   BYTE   INSEG    CODE           ?PR?IPS114_WRITEDATAI_16BIT_SIMSPI?SEEKFREE_IPS114_SPI
FF7442H   FF7495H   000054H   BYTE   INSEG    CODE           ?PR?CTIMER_COUNT_INIT?ZF_TIM
FF7496H   FF74E9H   000054H   BYTE   INSEG    CODE           ?PR?IPS114_SET_REGION?SEEKFREE_IPS114_SPI
FF74EAH   FF753CH   000053H   BYTE   INSEG    CODE           ?PR?DL1A_TIMEOUT_MCLKS_TO_MICROSECONDS?SEEKFREE_DL1A
FF753DH   FF758DH   000051H   BYTE   INSEG    CODE           ?PR?DL1A_TIMEOUT_MICROSECONDS_TO_MCLKS?SEEKFREE_DL1A
FF758EH   FF75DEH   000051H   BYTE   INSEG    CODE           ?PR?ICM20602_SIMSPI_R_REG_BYTES?SEEKFREE_ICM20602
FF75DFH   FF762CH   00004EH   BYTE   INSEG    CODE           ?PR?PID_STEERS?PIDCC
FF762DH   FF7678H   00004CH   BYTE   INSEG    CODE           ?PR?LCD_WRITEINDEX_SIMSPI?SEEKFREE_18TFT
FF7679H   FF76C4H   00004CH   BYTE   INSEG    CODE           ?PR?LCD_WRITEDATA_SIMSPI?SEEKFREE_18TFT
FF76C5H   FF7710H   00004CH   BYTE   INSEG    CODE           ?PR?IPS114_WRITEINDEX_SIMSPI?SEEKFREE_IPS114_SPI
FF7711H   FF775CH   00004CH   BYTE   INSEG    CODE           ?PR?OLED_WRCMD?SEEKFREE_OLED
FF775DH   FF77A8H   00004CH   BYTE   INSEG    CODE           ?PR?OLED_WRDAT?SEEKFREE_OLED
FF77A9H   FF77F3H   00004BH   BYTE   INSEG    CODE           ?PR?IMU660RA_SIMSPI_R_REG_BYTES?SEEKFREE_IMU660RA
FF77F4H   FF783CH   000049H   BYTE   INSEG    CODE           ?PR?DL1A_SEND_CH?SEEKFREE_DL1A
FF783DH   FF7885H   000049H   BYTE   INSEG    CODE           ?PR?DL1B_SEND_CH?SEEKFREE_DL1B
FF7886H   FF78CBH   000046H   BYTE   INSEG    CODE           ?PR?UART1_ISR?ISR
FF78CCH   FF7910H   000045H   BYTE   INSEG    CODE           ?PR?MOTOR_INIT?MOTOR
FF7911H   FF7952H   000042H   BYTE   INSEG    CODE           ?PR?DL1A_SIMIIC_WRITE_DATS?SEEKFREE_DL1A
FF7953H   FF7993H   000041H   BYTE   INSEG    CODE           ?PR?DELAY_INIT?ZF_DELAY
FF7994H   FF79A6H   000013H   BYTE   UNIT     CODE           ?C_C51STARTUP
FF79A7H   FF79CFH   000029H   BYTE   UNIT     CODE           ?C_C51STARTUP?2
FF79D0H   FF79D2H   000003H   BYTE   UNIT     CODE           ?C_C51STARTUP?3
L251 LINKER/LOCATER V4.66.93.0                                                        10/06/2023  19:39:35  PAGE 9


FF79D3H   FF7A0EH   00003CH   BYTE   INSEG    CODE           ?PR?PWMSETSTEER?STEER
FF7A0FH   FF7A44H   000036H   BYTE   INSEG    CODE           ?PR?OLED_SET_POS_SPI?SEEKFREE_OLED
FF7A45H   FF7A7AH   000036H   BYTE   INSEG    CODE           ?PR?TM1_ISR?ISR
FF7A7BH   FF7AAFH   000035H   BYTE   INSEG    CODE           ?PR?DELAY_MS?ZF_DELAY
FF7AB0H   FF7AE4H   000035H   BYTE   INSEG    CODE           ?PR?OLED_SET_POS?SEEKFREE_OLED
FF7AE5H   FF7B11H   00002DH   BYTE   INSEG    CODE           ?PR?IMU963RA_SIMSPI_R_REG_BYTE?SEEKFREE_IMU963RA
FF7B12H   FF7B3BH   00002AH   BYTE   INSEG    CODE           ?PR?LCD_WRITEDATA_16BIT?SEEKFREE_18TFT
FF7B3CH   FF7B65H   00002AH   BYTE   INSEG    CODE           ?PR?DL1A_DECODE_TIMEOUT?SEEKFREE_DL1A
FF7B66H   FF7B8FH   00002AH   BYTE   INSEG    CODE           ?PR?IPS114_WRITEDATA_16BIT?SEEKFREE_IPS114_SPI
FF7B90H   FF7BB7H   000028H   BYTE   INSEG    CODE           ?PR?DL1A_SIMIIC_SENDACK?SEEKFREE_DL1A
FF7BB8H   FF7BDFH   000028H   BYTE   INSEG    CODE           ?PR?DL1B_SIMIIC_SENDACK?SEEKFREE_DL1B
FF7BE0H   FF7C07H   000028H   BYTE   INSEG    CODE           ?PR?MPU6050_SIMIIC_SENDACK?SEEKFREE_MPU6050
FF7C08H   FF7C2EH   000027H   BYTE   INSEG    CODE           ?PR?ICM20602_SIMSPI_R_REG_BYTE?SEEKFREE_ICM20602
FF7C2FH   FF7C53H   000025H   BYTE   INSEG    CODE           ?PR?MEMCPY?_?MEMCPY
FF7C54H   FF7C76H   000023H   BYTE   INSEG    CODE           ?PR?IMU963RA_READ_ACC_GYRO_REGISTER?SEEKFREE_IMU963RA
FF7C77H   FF7C98H   000022H   BYTE   INSEG    CODE           ?PR?IMU660RA_READ_REGISTER?SEEKFREE_IMU660RA
FF7C99H   FF7CB9H   000021H   BYTE   INSEG    CODE           ?PR?DL1A_SCCB_WAITACK?SEEKFREE_DL1A
FF7CBAH   FF7CDAH   000021H   BYTE   INSEG    CODE           ?PR?DL1B_SCCB_WAITACK?SEEKFREE_DL1B
FF7CDBH   FF7CFBH   000021H   BYTE   INSEG    CODE           ?PR?IMU963RA_SIMSPI_W_REG_BYTE?SEEKFREE_IMU963RA
FF7CFCH   FF7D1BH   000020H   BYTE   INSEG    CODE           ?PR?SPEED_PID?PIDCC
FF7D1CH   FF7D39H   00001EH   BYTE   INSEG    CODE           ?PR?ICM20602_READ_REGISTER?SEEKFREE_ICM20602
FF7D3AH   FF7D57H   00001EH   BYTE   INSEG    CODE           ?PR?UART2_ISR?ISR
FF7D58H   FF7D75H   00001EH   BYTE   INSEG    CODE           ?PR?UART3_ISR?ISR
FF7D76H   FF7D92H   00001DH   BYTE   INSEG    CODE           ?PR?MPU6050_SIMIIC_DELAY?SEEKFREE_MPU6050
FF7D93H   FF7DACH   00001AH   BYTE   INSEG    CODE           ?PR?BLUETOOTH_CH9141_UART_CALLBACK?SEEKFREE_BLUETOOTH_CH91
                                                             -41
FF7DADH   FF7DC6H   00001AH   BYTE   INSEG    CODE           ?PR?IMU963RA_WRITE_ACC_GYRO_REGISTER?SEEKFREE_IMU963RA
FF7DC7H   FF7DE0H   00001AH   BYTE   INSEG    CODE           ?PR?WIRELESS_UART_CALLBACK?SEEKFREE_WIRELESS
FF7DE1H   FF7DFAH   00001AH   BYTE   INSEG    CODE           ?PR?WIRELESS_CH573_CALLBACK?SEEKFREE_WIRELESS_CH573
FF7DFBH   FF7E10H   000016H   BYTE   INSEG    CODE           ?PR?DL1A_SIMIIC_STOP?SEEKFREE_DL1A
FF7E11H   FF7E26H   000016H   BYTE   INSEG    CODE           ?PR?MPU6050_SIMIIC_STOP?SEEKFREE_MPU6050
FF7E27H   FF7E3BH   000015H   BYTE   INSEG    CODE           ?PR?LCD_WRITEINDEX?SEEKFREE_18TFT
FF7E3CH   FF7E50H   000015H   BYTE   INSEG    CODE           ?PR?LCD_WRITEDATA?SEEKFREE_18TFT
FF7E51H   FF7E65H   000015H   BYTE   INSEG    CODE           ?PR?IPS114_WRITEINDEX?SEEKFREE_IPS114_SPI
FF7E66H   FF7E7AH   000015H   BYTE   INSEG    CODE           ?PR?IPS114_WRITEDATA?SEEKFREE_IPS114_SPI
FF7E7BH   FF7E8FH   000015H   BYTE   INSEG    CODE           ?PR?OLED_WRCMD_SPI?SEEKFREE_OLED
FF7E90H   FF7EA4H   000015H   BYTE   INSEG    CODE           ?PR?OLED_WRDAT_SPI?SEEKFREE_OLED
FF7EA5H   FF7EB8H   000014H   BYTE   INSEG    CODE           ?PR?STEER_INIT?STEER
FF7EB9H   FF7ECBH   000013H   BYTE   INSEG    CODE           ?PR?DL1A_SIMIIC_START?SEEKFREE_DL1A
FF7ECCH   FF7EDEH   000013H   BYTE   INSEG    CODE           ?PR?MPU6050_SIMIIC_START?SEEKFREE_MPU6050
FF7EDFH   FF7EF0H   000012H   BYTE   INSEG    CODE           ?PR?PUTCHAR?BOARD
FF7EF1H   FF7F02H   000012H   BYTE   INSEG    CODE           ?PR?SPI_MOSI?ZF_SPI
FF7F03H   FF7F0AH   000008H   BYTE   INSEG    CODE           ?PR?INT2_ISR?ISR
FF7F0BH   FF7F12H   000008H   BYTE   INSEG    CODE           ?PR?INT3_ISR?ISR
FF7F13H   FF7F1AH   000008H   BYTE   INSEG    CODE           ?PR?INT4_ISR?ISR
FF7F1BH   FF7F22H   000008H   BYTE   INSEG    CODE           ?PR?TM2_ISR?ISR
FF7F23H   FF7F2AH   000008H   BYTE   INSEG    CODE           ?PR?TM3_ISR?ISR
FF7F2BH   FF7F32H   000008H   BYTE   INSEG    CODE           ?PR?TM4_ISR?ISR
FF7F33H   FF80F0H   0001BEH   BYTE   UNIT     HCONST         ?C_INITEDATA
FF80F1H   FF8148H   000058H   BYTE   UNIT     HCONST         ?HC?ZF_PWM
FF8149H   FF8193H   00004BH   BYTE   UNIT     HCONST         ?HC?SEEKFREE_IMU963RA
FF8194H   FF81C7H   000034H   BYTE   UNIT     HCONST         ?HC?SEEKFREE_IMU660RA
FF81C8H   FF81FAH   000033H   BYTE   UNIT     HCONST         ?HC?SEEKFREE_ICM20602
FF81FBH   FF8210H   000016H   BYTE   UNIT     HCONST         ?HC?SEEKFREE_MPU6050
FF8211H   FF8223H   000013H   BYTE   UNIT     HCONST         ?HC?SEEKFREE_DL1A
FF8224H   FF822DH   00000AH   BYTE   UNIT     HCONST         ?HC?SEEKFREE_OLED
FF822EH   FF8233H   000006H   BYTE   UNIT     HCONST         ?HC?SEEKFREE_18TFT
FF8234H   FF8239H   000006H   BYTE   UNIT     HCONST         ?HC?SEEKFREE_IPS114_SPI

* * * * * * * * *   R E M O V E D     S E G M E N T S   * * * * * * * *
   *DEL*:           000004H   BYTE   INSEG    CODE           ?PR?DISABLEGLOBALIRQ?BOARD
   *DEL*:           000033H   BYTE   INSEG    CODE           ?PR?DELAY_US?ZF_DELAY
   *DEL*:           00001AH   BYTE   INSEG    CODE           ?PR?IAP_SET_TPS?ZF_EEPROM
   *DEL*:           000015H   BYTE   INSEG    CODE           ?PR?EEPROM_TRIG?ZF_EEPROM
   *DEL*:           000029H   BYTE   INSEG    CODE           ?PR?IAP_ERASE_PAGE?ZF_EEPROM
L251 LINKER/LOCATER V4.66.93.0                                                        10/06/2023  19:39:35  PAGE 10


   *DEL*:           000004H   BYTE   INSEG    CODE           ?PR?IAP_IDLE?ZF_EEPROM
   *DEL*:           000062H   BYTE   INSEG    CODE           ?PR?IAP_READ_BYTES?ZF_EEPROM
   *DEL*:           000008H   BYTE   INSEG    CODE           ?PR?IAP_INIT?ZF_EEPROM
   *DEL*:           00005EH   BYTE   INSEG    CODE           ?PR?IAP_WRITE_BYTES?ZF_EEPROM
   *DEL*:           000012H   BYTE   INSEG    CODE           ?PR?IAP_GET_CMD_STATE?ZF_EEPROM
   *DEL*:           000066H   BYTE   INSEG    CODE           ?PR?EXIT_INIT?ZF_EXTI
   *DEL*:           000095H   BYTE   INSEG    CODE           ?PR?GPIO_PULL_SET?ZF_GPIO
   *DEL*:           0000B9H   BYTE   INSEG    CODE           ?PR?NVIC_SETPRIORITY?ZF_NVIC
   *DEL*:           0001ABH   BYTE   INSEG    CODE           ?PR?PWM_FREQ?ZF_PWM
   *DEL*:           000026H   BYTE   INSEG    CODE           ?PR?SPI_CHANGE_MODE?ZF_SPI
   *DEL*:           0000CCH   BYTE   INSEG    CODE           ?PR?SPI_CHANGE_PIN?ZF_SPI
   *DEL*:           000039H   BYTE   INSEG    CODE           ?PR?UART_PUTBUFF?ZF_UART
   *DEL*:           00002BH   BYTE   INSEG    CODE           ?PR?UART_PUTSTR?ZF_UART
   *DEL*:           000183H   BYTE   INSEG    CODE           ?PR?FIFO_READ_BUFFER?ZF_FIFO
   *DEL*:           000043H   BYTE   INSEG    CODE           ?PR?FIFO_CLEAR?ZF_FIFO
   *DEL*:           000070H   BYTE   INSEG    CODE           ?PR?FIFO_END_OFFSET?ZF_FIFO
   *DEL*:           000025H   BYTE   INSEG    CODE           ?PR?FIFO_USED?ZF_FIFO
   *DEL*:           00006EH   BYTE   INSEG    CODE           ?PR?FIFO_INIT?ZF_FIFO
   *DEL*:           0000CDH   BYTE   INSEG    CODE           ?PR?LCD_SHOWUINT16?SEEKFREE_18TFT
   *DEL*:           0000CEH   BYTE   INSEG    CODE           ?PR?LCD_SHOWINT32_SIMSPI?SEEKFREE_18TFT
   *DEL*:           000119H   BYTE   INSEG    CODE           ?PR?LCD_SHOWINT16_SIMSPI?SEEKFREE_18TFT
   *DEL*:           0000CEH   BYTE   INSEG    CODE           ?PR?LCD_SHOWINT32?SEEKFREE_18TFT
   *DEL*:           000119H   BYTE   INSEG    CODE           ?PR?LCD_SHOWINT16?SEEKFREE_18TFT
   *DEL*:           000057H   BYTE   INSEG    CODE           ?PR?LCD_CLEAR_SIMSPI?SEEKFREE_18TFT
   *DEL*:           000057H   BYTE   INSEG    CODE           ?PR?LCD_CLEAR?SEEKFREE_18TFT
   *DEL*:           00005DH   BYTE   INSEG    CODE           ?PR?LCD_SHOWSTR_SIMSPI?SEEKFREE_18TFT
   *DEL*:           00005DH   BYTE   INSEG    CODE           ?PR?LCD_SHOWSTR?SEEKFREE_18TFT
   *DEL*:           0001FDH   BYTE   INSEG    CODE           ?PR?LCD_INIT_SIMSPI?SEEKFREE_18TFT
   *DEL*:           0000ECH   BYTE   INSEG    CODE           ?PR?SHOWIMAGE?SEEKFREE_18TFT
   *DEL*:           0001F3H   BYTE   INSEG    CODE           ?PR?LCD_INIT?SEEKFREE_18TFT
   *DEL*:           0000A9H   BYTE   INSEG    CODE           ?PR?LCD_SHOWUINT8_SIMSPI?SEEKFREE_18TFT
   *DEL*:           0000A9H   BYTE   INSEG    CODE           ?PR?LCD_SHOWUINT8?SEEKFREE_18TFT
   *DEL*:           0000EBH   BYTE   INSEG    CODE           ?PR?LCD_SHOWINT8_SIMSPI?SEEKFREE_18TFT
   *DEL*:           0000EBH   BYTE   INSEG    CODE           ?PR?LCD_SHOWINT8?SEEKFREE_18TFT
   *DEL*:           000145H   BYTE   INSEG    CODE           ?PR?LCD_SHOWFLOAT_SIMSPI?SEEKFREE_18TFT
   *DEL*:           000023H   BYTE   INSEG    CODE           ?PR?LCD_DRAWPOINT_SIMSPI?SEEKFREE_18TFT
   *DEL*:           000145H   BYTE   INSEG    CODE           ?PR?LCD_SHOWFLOAT?SEEKFREE_18TFT
   *DEL*:           000023H   BYTE   INSEG    CODE           ?PR?LCD_DRAWPOINT?SEEKFREE_18TFT
   *DEL*:           0000BFH   BYTE   INSEG    CODE           ?PR?LCD_SHOWCHAR_SIMSPI?SEEKFREE_18TFT
   *DEL*:           0000BFH   BYTE   INSEG    CODE           ?PR?LCD_SHOWCHAR?SEEKFREE_18TFT
   *DEL*:           0000CDH   BYTE   INSEG    CODE           ?PR?LCD_SHOWUINT16_SIMSPI?SEEKFREE_18TFT
   *DEL*:           00002EH   BYTE   INSEG    CODE           ?PR?BLUETOOTH_CH9141_READ_BUFF?SEEKFREE_BLUETOOTH_CH9141
   *DEL*:           0000CCH   BYTE   INSEG    CODE           ?PR?BLUETOOTH_CH9141_SEND_BUFF?SEEKFREE_BLUETOOTH_CH9141
   *DEL*:           00003CH   BYTE   INSEG    CODE           ?PR?BLUETOOTH_CH9141_INIT?SEEKFREE_BLUETOOTH_CH9141
   *DEL*:           00003EH   BYTE   INSEG    CODE           ?PR?DL1A_SET_SIGNAL_RATE_LIMIT?SEEKFREE_DL1A
   *DEL*:           000195H   BYTE   INSEG    CODE           ?PR?DL1A_GET_SPAD_INFO?SEEKFREE_DL1A
   *DEL*:           00006CH   BYTE   INSEG    CODE           ?PR?DL1A_GET_DISTANCE?SEEKFREE_DL1A
   *DEL*:           0000ABH   BYTE   INSEG    CODE           ?PR?DL1A_PERFORM_SINGLE_REF_CALIBRATION?SEEKFREE_DL1A
   *DEL*:           0000B6H   BYTE   INSEG    CODE           ?PR?DL1A_GET_MEASUREMENT_TIMING_BUDGET?SEEKFREE_DL1A
   *DEL*:           00003BH   BYTE   INSEG    CODE           ?PR?DL1A_SIMIIC_READ_REG?SEEKFREE_DL1A
   *DEL*:           000068H   BYTE   INSEG    CODE           ?PR?DL1A_SIMIIC_READ_REGS_1?SEEKFREE_DL1A
   *DEL*:           000149H   BYTE   INSEG    CODE           ?PR?DL1A_SET_MEASUREMENT_TIMING_BUDGET?SEEKFREE_DL1A
   *DEL*:           00002AH   BYTE   INSEG    CODE           ?PR?DL1A_SIMIIC_WRITE_REG?SEEKFREE_DL1A
   *DEL*:           0006AEH   BYTE   INSEG    CODE           ?PR?DL1A_INIT?SEEKFREE_DL1A
   *DEL*:           000079H   BYTE   INSEG    CODE           ?PR?DL1B_IIC_TRANSFER_8BIT_ARRAY?SEEKFREE_DL1B
   *DEL*:           000133H   BYTE   INSEG    CODE           ?PR?DL1B_GET_DISTANCE?SEEKFREE_DL1B
   *DEL*:           000013H   BYTE   INSEG    CODE           ?PR?DL1B_SIMIIC_START?SEEKFREE_DL1B
   *DEL*:           000016H   BYTE   INSEG    CODE           ?PR?DL1B_SIMIIC_STOP?SEEKFREE_DL1B
   *DEL*:           000112H   BYTE   INSEG    CODE           ?PR?DL1B_INIT?SEEKFREE_DL1B
   *DEL*:           00008DH   BYTE   INSEG    CODE           ?PR?ICM20602_GYRO_TRANSITION?SEEKFREE_ICM20602
   *DEL*:           00001AH   BYTE   INSEG    CODE           ?PR?ICM20602_WRITE_REGISTER?SEEKFREE_ICM20602
   *DEL*:           00004EH   BYTE   INSEG    CODE           ?PR?ICM20602_SELF_CHECK?SEEKFREE_ICM20602
   *DEL*:           00001BH   BYTE   INSEG    CODE           ?PR?ICM20602_SIMSPI_W_REG_BYTE?SEEKFREE_ICM20602
   *DEL*:           0000C2H   BYTE   INSEG    CODE           ?PR?ICM20602_INIT?SEEKFREE_ICM20602
   *DEL*:           000050H   BYTE   INSEG    CODE           ?PR?ICM20602_GET_ACC?SEEKFREE_ICM20602
L251 LINKER/LOCATER V4.66.93.0                                                        10/06/2023  19:39:35  PAGE 11


   *DEL*:           000089H   BYTE   INSEG    CODE           ?PR?ICM20602_ACC_TRANSITION?SEEKFREE_ICM20602
   *DEL*:           000026H   BYTE   INSEG    CODE           ?PR?ICM20602_READ_REGISTERS?SEEKFREE_ICM20602
   *DEL*:           000050H   BYTE   INSEG    CODE           ?PR?ICM20602_GET_GYRO?SEEKFREE_ICM20602
   *DEL*:           000050H   BYTE   INSEG    CODE           ?PR?IMU660RA_GET_GYRO?SEEKFREE_IMU660RA
   *DEL*:           000022H   BYTE   INSEG    CODE           ?PR?IMU660RA_WRITE_REGISTERS?SEEKFREE_IMU660RA
   *DEL*:           0000A8H   BYTE   INSEG    CODE           ?PR?IMU660RA_GYRO_TRANSITION?SEEKFREE_IMU660RA
   *DEL*:           00001AH   BYTE   INSEG    CODE           ?PR?IMU660RA_WRITE_REGISTER?SEEKFREE_IMU660RA
   *DEL*:           00004BH   BYTE   INSEG    CODE           ?PR?IMU660RA_SELF_CHECK?SEEKFREE_IMU660RA
   *DEL*:           00003EH   BYTE   INSEG    CODE           ?PR?IMU660RA_SIMSPI_W_REG_BYTES?SEEKFREE_IMU660RA
   *DEL*:           00001BH   BYTE   INSEG    CODE           ?PR?IMU660RA_SIMSPI_W_REG_BYTE?SEEKFREE_IMU660RA
   *DEL*:           0000AEH   BYTE   INSEG    CODE           ?PR?IMU660RA_INIT?SEEKFREE_IMU660RA
   *DEL*:           000050H   BYTE   INSEG    CODE           ?PR?IMU660RA_GET_ACC?SEEKFREE_IMU660RA
   *DEL*:           00007CH   BYTE   INSEG    CODE           ?PR?IMU660RA_ACC_TRANSITION?SEEKFREE_IMU660RA
   *DEL*:           000026H   BYTE   INSEG    CODE           ?PR?IMU660RA_READ_REGISTERS?SEEKFREE_IMU660RA
   *DEL*:           00008DH   BYTE   INSEG    CODE           ?PR?IMU963RA_ACC_TRANSITION?SEEKFREE_IMU963RA
   *DEL*:           000050H   BYTE   INSEG    CODE           ?PR?IMU963RA_GET_GYRO?SEEKFREE_IMU963RA
   *DEL*:           000051H   BYTE   INSEG    CODE           ?PR?IMU963RA_MAG_TRANSITION?SEEKFREE_IMU963RA
   *DEL*:           0000D2H   BYTE   INSEG    CODE           ?PR?IMU963RA_GYRO_TRANSITION?SEEKFREE_IMU963RA
   *DEL*:           00003AH   BYTE   INSEG    CODE           ?PR?IMU963RA_CONNECT_MAG?SEEKFREE_IMU963RA
   *DEL*:           000026H   BYTE   INSEG    CODE           ?PR?IMU963RA_READ_ACC_GYRO_REGISTERS?SEEKFREE_IMU963RA
   *DEL*:           00007FH   BYTE   INSEG    CODE           ?PR?IMU963RA_WRITE_MAG_REGISTER?SEEKFREE_IMU963RA
   *DEL*:           00004BH   BYTE   INSEG    CODE           ?PR?IMU963RA_SIMSPI_R_REG_BYTES?SEEKFREE_IMU963RA
   *DEL*:           000051H   BYTE   INSEG    CODE           ?PR?IMU963RA_MAG_SELF_CHECK?SEEKFREE_IMU963RA
   *DEL*:           00011DH   BYTE   INSEG    CODE           ?PR?IMU963RA_INIT?SEEKFREE_IMU963RA
   *DEL*:           00004EH   BYTE   INSEG    CODE           ?PR?IMU963RA_ACC_GYRO_SELF_CHECK?SEEKFREE_IMU963RA
   *DEL*:           000050H   BYTE   INSEG    CODE           ?PR?IMU963RA_GET_ACC?SEEKFREE_IMU963RA
   *DEL*:           00006BH   BYTE   INSEG    CODE           ?PR?IMU963RA_GET_MAG?SEEKFREE_IMU963RA
   *DEL*:           0000A9H   BYTE   INSEG    CODE           ?PR?IPS114_SHOWUINT8_SIMSPI?SEEKFREE_IPS114_SPI
   *DEL*:           0000A5H   BYTE   INSEG    CODE           ?PR?IPS114_SHOWUINT8?SEEKFREE_IPS114_SPI
   *DEL*:           0000EBH   BYTE   INSEG    CODE           ?PR?IPS114_SHOWINT8_SIMSPI?SEEKFREE_IPS114_SPI
   *DEL*:           0000E7H   BYTE   INSEG    CODE           ?PR?IPS114_SHOWINT8?SEEKFREE_IPS114_SPI
   *DEL*:           000145H   BYTE   INSEG    CODE           ?PR?IPS114_SHOWFLOAT_SIMSPI?SEEKFREE_IPS114_SPI
   *DEL*:           000023H   BYTE   INSEG    CODE           ?PR?IPS114_DRAWPOINT_SIMSPI?SEEKFREE_IPS114_SPI
   *DEL*:           000145H   BYTE   INSEG    CODE           ?PR?IPS114_SHOWFLOAT?SEEKFREE_IPS114_SPI
   *DEL*:           000023H   BYTE   INSEG    CODE           ?PR?IPS114_DRAWPOINT?SEEKFREE_IPS114_SPI
   *DEL*:           0000BFH   BYTE   INSEG    CODE           ?PR?IPS114_SHOWCHAR_SIMSPI?SEEKFREE_IPS114_SPI
   *DEL*:           0000CDH   BYTE   INSEG    CODE           ?PR?IPS114_SHOWUINT16_SIMSPI?SEEKFREE_IPS114_SPI
   *DEL*:           0000CEH   BYTE   INSEG    CODE           ?PR?IPS114_SHOWINT32_SIMSPI?SEEKFREE_IPS114_SPI
   *DEL*:           000119H   BYTE   INSEG    CODE           ?PR?IPS114_SHOWINT16_SIMSPI?SEEKFREE_IPS114_SPI
   *DEL*:           0000CEH   BYTE   INSEG    CODE           ?PR?IPS114_SHOWINT32?SEEKFREE_IPS114_SPI
   *DEL*:           000115H   BYTE   INSEG    CODE           ?PR?IPS114_SHOWINT16?SEEKFREE_IPS114_SPI
   *DEL*:           00005FH   BYTE   INSEG    CODE           ?PR?IPS114_CLEAR_SIMSPI?SEEKFREE_IPS114_SPI
   *DEL*:           00005DH   BYTE   INSEG    CODE           ?PR?IPS114_SHOWSTR_SIMSPI?SEEKFREE_IPS114_SPI
   *DEL*:           00005DH   BYTE   INSEG    CODE           ?PR?IPS114_SHOWSTR?SEEKFREE_IPS114_SPI
   *DEL*:           00004CH   BYTE   INSEG    CODE           ?PR?IPS114_WRITEDATA_SIMSPI?SEEKFREE_IPS114_SPI
   *DEL*:           000054H   BYTE   INSEG    CODE           ?PR?IPS114_SET_REGION_SIMSPI?SEEKFREE_IPS114_SPI
   *DEL*:           000154H   BYTE   INSEG    CODE           ?PR?IPS114_INIT_SIMSPI?SEEKFREE_IPS114_SPI
   *DEL*:           00006CH   BYTE   INSEG    CODE           ?PR?MPU6050_SIMIIC_READ_REGS?SEEKFREE_MPU6050
   *DEL*:           00003BH   BYTE   INSEG    CODE           ?PR?MPU6050_SIMIIC_READ_REG?SEEKFREE_MPU6050
   *DEL*:           00002AH   BYTE   INSEG    CODE           ?PR?MPU6050_SIMIIC_WRITE_REG?SEEKFREE_MPU6050
   *DEL*:           000060H   BYTE   INSEG    CODE           ?PR?MPU6050_INIT?SEEKFREE_MPU6050
   *DEL*:           000033H   BYTE   INSEG    CODE           ?PR?MPU6050_SELF1_CHECK?SEEKFREE_MPU6050
   *DEL*:           00006AH   BYTE   INSEG    CODE           ?PR?MPU6050_READ_CH?SEEKFREE_MPU6050
   *DEL*:           000049H   BYTE   INSEG    CODE           ?PR?MPU6050_SEND_CH?SEEKFREE_MPU6050
   *DEL*:           000052H   BYTE   INSEG    CODE           ?PR?MPU6050_GET_GYRO?SEEKFREE_MPU6050
   *DEL*:           000021H   BYTE   INSEG    CODE           ?PR?MPU6050_SCCB_WAITACK?SEEKFREE_MPU6050
   *DEL*:           000052H   BYTE   INSEG    CODE           ?PR?MPU6050_GET_ACCDATA?SEEKFREE_MPU6050
   *DEL*:           000047H   BYTE   INSEG    CODE           ?PR?OLED_PUTPIXEL?SEEKFREE_OLED
   *DEL*:           00006FH   BYTE   INSEG    CODE           ?PR?OLED_HEXASCII_SPI?SEEKFREE_OLED
   *DEL*:           00044DH   BYTE   INSEG    CODE           ?PR?OLED_DIS_BMP_SPI?SEEKFREE_OLED
   *DEL*:           000145H   BYTE   INSEG    CODE           ?PR?OLED_PRINTF_FLOAT?SEEKFREE_OLED
   *DEL*:           000121H   BYTE   INSEG    CODE           ?PR?OLED_P8X16STR_SPI?SEEKFREE_OLED
   *DEL*:           000041H   BYTE   INSEG    CODE           ?PR?OLED_CLRPIXEL_SPI?SEEKFREE_OLED
   *DEL*:           0000C0H   BYTE   INSEG    CODE           ?PR?OLED_PRINT_CHINESE_SPI?SEEKFREE_OLED
   *DEL*:           00005DH   BYTE   INSEG    CODE           ?PR?OLED_FILL?SEEKFREE_OLED
L251 LINKER/LOCATER V4.66.93.0                                                        10/06/2023  19:39:35  PAGE 12


   *DEL*:           0000CEH   BYTE   INSEG    CODE           ?PR?OLED_PRINTF_INT32?SEEKFREE_OLED
   *DEL*:           000027H   BYTE   INSEG    CODE           ?PR?OLED_UINT16?SEEKFREE_OLED
   *DEL*:           000048H   BYTE   INSEG    CODE           ?PR?OLED_PUTPIXEL_SPI?SEEKFREE_OLED
   *DEL*:           0000D1H   BYTE   INSEG    CODE           ?PR?OLED_P6X8STR?SEEKFREE_OLED
   *DEL*:           000073H   BYTE   INSEG    CODE           ?PR?OLED_INT16?SEEKFREE_OLED
   *DEL*:           0000A8H   BYTE   INSEG    CODE           ?PR?OLED_INIT?SEEKFREE_OLED
   *DEL*:           000145H   BYTE   INSEG    CODE           ?PR?OLED_PRINTF_FLOAT_SPI?SEEKFREE_OLED
   *DEL*:           00006FH   BYTE   INSEG    CODE           ?PR?OLED_HEXASCII?SEEKFREE_OLED
   *DEL*:           00005DH   BYTE   INSEG    CODE           ?PR?OLED_FILL_SPI?SEEKFREE_OLED
   *DEL*:           0000CEH   BYTE   INSEG    CODE           ?PR?OLED_PRINTF_INT32_SPI?SEEKFREE_OLED
   *DEL*:           000027H   BYTE   INSEG    CODE           ?PR?OLED_UINT16_SPI?SEEKFREE_OLED
   *DEL*:           0000D1H   BYTE   INSEG    CODE           ?PR?OLED_P6X8STR_SPI?SEEKFREE_OLED
   *DEL*:           000073H   BYTE   INSEG    CODE           ?PR?OLED_INT16_SPI?SEEKFREE_OLED
   *DEL*:           00046AH   BYTE   INSEG    CODE           ?PR?OLED_DIS_BMP?SEEKFREE_OLED
   *DEL*:           0000C5H   BYTE   INSEG    CODE           ?PR?OLED_INIT_SPI?SEEKFREE_OLED
   *DEL*:           000121H   BYTE   INSEG    CODE           ?PR?OLED_P8X16STR?SEEKFREE_OLED
   *DEL*:           000040H   BYTE   INSEG    CODE           ?PR?OLED_CLRPIXEL?SEEKFREE_OLED
   *DEL*:           0000C0H   BYTE   INSEG    CODE           ?PR?OLED_PRINT_CHINESE?SEEKFREE_OLED
   *DEL*:           000117H   BYTE   INSEG    CODE           ?PR?NUMBER_CONVERSION_ASCII?SEEKFREE_PRINTF
   *DEL*:           000661H   BYTE   INSEG    CODE           ?PR?ZF_SPRINTF?SEEKFREE_PRINTF
   *DEL*:           000095H   BYTE   INSEG    CODE           ?PR?PRINTF_REVERSE_ORDER?SEEKFREE_PRINTF
   *DEL*:           00009AH   BYTE   INSEG    CODE           ?PR?CRC_CHECK?SEEKFREE_VIRSCO
   *DEL*:           0000DCH   BYTE   INSEG    CODE           ?PR?DATA_CONVERSION?SEEKFREE_VIRSCO
   *DEL*:           00002EH   BYTE   INSEG    CODE           ?PR?WIRELESS_UART_READ_BUFF?SEEKFREE_WIRELESS
   *DEL*:           000073H   BYTE   INSEG    CODE           ?PR?WIRELESS_UART_SEND_BUFF?SEEKFREE_WIRELESS
   *DEL*:           00003EH   BYTE   INSEG    CODE           ?PR?WIRELESS_UART_INIT?SEEKFREE_WIRELESS
   *DEL*:           00002EH   BYTE   INSEG    CODE           ?PR?WIRELESS_CH573_READ_BUFF?SEEKFREE_WIRELESS_CH573
   *DEL*:           000073H   BYTE   INSEG    CODE           ?PR?WIRELESS_CH573_SEND_BUFF?SEEKFREE_WIRELESS_CH573
   *DEL*:           00003EH   BYTE   INSEG    CODE           ?PR?WIRELESS_CH573_INIT?SEEKFREE_WIRELESS_CH573
   *DEL*:           000004H   BYTE   INSEG    CODE           ?PR?ALL_INIT?ALLINIT
   *DEL*:           000016H   BYTE   INSEG    CODE           ?PR?TIMER_INIT?ALLINIT
   *DEL*:           0007BCH   BYTE   INSEG    CODE           ?PR?EM_ADC?EM
   *DEL*:           0001CBH   BYTE   INSEG    CODE           ?PR?ADC_NORMALIZATION1?EM
   *DEL*:           0001B5H   BYTE   INSEG    CODE           ?PR?INFRARED_DETECTION?EM
   *DEL*:           00001FH   BYTE   INSEG    CODE           ?PR?PROTECT?MOTOR
   *DEL*:           000001H   BYTE   INSEG    CODE           ?PR?MOTORCTRL?MOTOR
   *DEL*:           000036H   BYTE   INSEG    CODE           ?PR?JUDGE_CIRCLE_IN?PIDCC
   *DEL*:           000036H   BYTE   INSEG    CODE           ?PR?JUDGE_CIRCLE_OUT?PIDCC
   *DEL*:           0000ABH   BYTE   INSEG    CODE           ?PR?JUDGE_CIRCLE?PIDCC
   *DEL*:           00011FH   BYTE   INSEG    CODE           ?PR?PID_PARAM_INIT?PIDCC
   *DEL*:           000001H   BYTE   INSEG    CODE           ?PR?STEERCTRL?STEER
   *DEL*:           000028H   BYTE   UNIT     EDATA          ?ED?PRINTF
   *DEL*:           0000F2H   BYTE   INSEG    CODE           ?PR?POW?_?POW
   *DEL*:           00001AH   BYTE   INSEG    CODE           ?PR?MEMSET?_?MEMSET



OVERLAY MAP OF MODULE:   .\Out_File\SEEKFREE (board)


FUNCTION/MODULE                                BIT_GROUP   DATA_GROUP 
--> CALLED FUNCTION/MODULE                    START  STOP  START  STOP
======================================================================
UART1_Isr/isr                                 ----- -----  ----- -----

*** NEW ROOT ********************************

UART2_Isr/isr                                 ----- -----  ----- -----

*** NEW ROOT ********************************

UART3_Isr/isr                                 ----- -----  ----- -----

*** NEW ROOT ********************************

L251 LINKER/LOCATER V4.66.93.0                                                        10/06/2023  19:39:35  PAGE 13


UART4_Isr/isr                                 ----- -----  ----- -----
  +--> wireless_uart_callback/SEEKFREE_WIRELESS
  +--> bluetooth_ch9141_uart_callback/SEEKFREE_BLUETOOTH_CH9141
  +--> wireless_ch573_callback/SEEKFREE_WIRELESS_CH573

wireless_uart_callback/SEEKFREE_WIRELESS      ----- -----  ----- -----
  +--> fifo_write_buffer/zf_fifo

fifo_write_buffer/zf_fifo                     ----- -----  ----- -----
  +--> memcpy?_/memcpy
  +--> fifo_head_offset/zf_fifo

memcpy?_/memcpy                               ----- -----  ----- -----

fifo_head_offset/zf_fifo                      ----- -----  ----- -----

bluetooth_ch9141_uart_callback/SEEKFREE_+     ----- -----  ----- -----
... BLUETOOTH_CH9141
  +--> fifo_write_buffer/zf_fifo

wireless_ch573_callback/SEEKFREE_WIRELES+     ----- -----  ----- -----
... S_CH573
  +--> fifo_write_buffer/zf_fifo

*** NEW ROOT ********************************

INT0_Isr/isr                                  ----- -----  ----- -----

*** NEW ROOT ********************************

INT1_Isr/isr                                  ----- -----  ----- -----

*** NEW ROOT ********************************

INT2_Isr/isr                                  ----- -----  ----- -----

*** NEW ROOT ********************************

INT3_Isr/isr                                  ----- -----  ----- -----

*** NEW ROOT ********************************

INT4_Isr/isr                                  ----- -----  ----- -----

*** NEW ROOT ********************************

TM0_Isr/isr                                   ----- -----  ----- -----

*** NEW ROOT ********************************

TM1_Isr/isr                                   ----- -----  ----- -----
  +--> EncoderCount/encoder
  +--> pid_steers/pidcc
  +--> speed_pid/pidcc

EncoderCount/encoder                          ----- -----  ----- -----
  +--> ctimer_count_read/zf_tim
  +--> ctimer_count_clean/zf_tim

ctimer_count_read/zf_tim                      ----- -----  ----- -----

ctimer_count_clean/zf_tim                     ----- -----  ----- -----

pid_steers/pidcc                              ----- -----  ----- -----
  +--> Filter/zf_adc
L251 LINKER/LOCATER V4.66.93.0                                                        10/06/2023  19:39:35  PAGE 14


  +--> ele_direction_control/pidcc

Filter/zf_adc                                 ----- -----  ----- -----
  +--> adc_once/zf_adc

adc_once/zf_adc                               ----- -----  ----- -----

ele_direction_control/pidcc                   ----- -----  ----- -----
  +--> PWMSetSteer/steer

PWMSetSteer/steer                             ----- -----  ----- -----
  +--> pwm_duty/zf_pwm

pwm_duty/zf_pwm                               ----- -----  ----- -----

speed_pid/pidcc                               ----- -----  ----- -----
  +--> speedleft_pid_realize/pidcc
  +--> speedright_pid_realize/pidcc
  +--> PWMSetMotor2/motor

speedleft_pid_realize/pidcc                   ----- -----  ----- -----

speedright_pid_realize/pidcc                  ----- -----  ----- -----

PWMSetMotor2/motor                            ----- -----  ----- -----
  +--> pwm_duty/zf_pwm

*** NEW ROOT ********************************

TM2_Isr/isr                                   ----- -----  ----- -----

*** NEW ROOT ********************************

TM3_Isr/isr                                   ----- -----  ----- -----

*** NEW ROOT ********************************

TM4_Isr/isr                                   ----- -----  ----- -----

*** NEW ROOT ********************************

?C_C51STARTUP                                 ----- -----  ----- -----

*** NEW ROOT ********************************

?C_C51STARTUP?3                               ----- -----  ----- -----
  +--> main/main

main/main                                     ----- -----  ----- -----
  +--> board_init/board
  +--> ips114_init/SEEKFREE_IPS114_SPI
  +--> motor_init/motor
  +--> steer_init/steer
  +--> adc_init/zf_adc
  +--> ctimer_count_init/zf_tim
  +--> pit_timer_ms/zf_tim
  +--> ips114_clear/SEEKFREE_IPS114_SPI
  +--> ips114_showuint16/SEEKFREE_IPS114_SPI
  +--> PWMSetMotor2/motor

board_init/board                              ----- -----  ----- -----
  +--> set_clk/board
  +--> delay_init/zf_delay
  +--> uart_init/zf_uart
  +--> EnableGlobalIRQ/board
L251 LINKER/LOCATER V4.66.93.0                                                        10/06/2023  19:39:35  PAGE 15



set_clk/board                                 ----- -----  ----- -----

delay_init/zf_delay                           ----- -----  ----- -----
  +--> ?C?SLDIV/?C?SLDIV

?C?SLDIV/?C?SLDIV                             ----- -----  ----- -----
  +--> ?C?ULIDIV/?C?ULDIV

?C?ULIDIV/?C?ULDIV                            ----- -----  ----- -----

uart_init/zf_uart                             ----- -----  ----- -----
  +--> ?C?ULIDIV/?C?ULDIV

EnableGlobalIRQ/board                         ----- -----  ----- -----

ips114_init/SEEKFREE_IPS114_SPI               ----- -----  ----- -----
  +--> spi_init/zf_spi
  +--> delay_ms/zf_delay
  +--> ips114_writeIndex/SEEKFREE_IPS114_SPI
  +--> ips114_writeData/SEEKFREE_IPS114_SPI
  +--> ips114_clear/SEEKFREE_IPS114_SPI

spi_init/zf_spi                               ----- -----  ----- -----
  +--> gpio_mode/zf_gpio

gpio_mode/zf_gpio                             ----- -----  ----- -----

delay_ms/zf_delay                             ----- -----  ----- -----

ips114_writeIndex/SEEKFREE_IPS114_SPI         ----- -----  ----- -----
  +--> spi_mosi/zf_spi

spi_mosi/zf_spi                               ----- -----  ----- -----

ips114_writeData/SEEKFREE_IPS114_SPI          ----- -----  ----- -----
  +--> spi_mosi/zf_spi

ips114_clear/SEEKFREE_IPS114_SPI              ----- -----  ----- -----
  +--> ips114_set_region/SEEKFREE_IPS114_SPI
  +--> ips114_writedata_16bit/SEEKFREE_IPS114_SPI

ips114_set_region/SEEKFREE_IPS114_SPI         ----- -----  ----- -----
  +--> ips114_writeIndex/SEEKFREE_IPS114_SPI
  +--> ips114_writedata_16bit/SEEKFREE_IPS114_SPI

ips114_writedata_16bit/SEEKFREE_IPS114_S+     ----- -----  ----- -----
... PI
  +--> spi_mosi/zf_spi

motor_init/motor                              ----- -----  ----- -----
  +--> pwm_init/zf_pwm

pwm_init/zf_pwm                               ----- -----  ----- -----
  +--> pwm_set_gpio/zf_pwm
  +--> ?C?ULIDIV/?C?ULDIV

pwm_set_gpio/zf_pwm                           ----- -----  ----- -----
  +--> gpio_mode/zf_gpio

steer_init/steer                              ----- -----  ----- -----
  +--> pwm_init/zf_pwm

adc_init/zf_adc                               ----- -----  ----- -----

L251 LINKER/LOCATER V4.66.93.0                                                        10/06/2023  19:39:35  PAGE 16


ctimer_count_init/zf_tim                      ----- -----  ----- -----

pit_timer_ms/zf_tim                           ----- -----  ----- -----
  +--> ?C?SLDIV/?C?SLDIV

ips114_showuint16/SEEKFREE_IPS114_SPI         ----- -----  ----- -----
  +--> ips114_showchar/SEEKFREE_IPS114_SPI

ips114_showchar/SEEKFREE_IPS114_SPI           ----- -----  ----- -----
  +--> ips114_set_region/SEEKFREE_IPS114_SPI
  +--> ips114_writedata_16bit/SEEKFREE_IPS114_SPI

*** NEW ROOT ********************************

?C_C51STARTUP?2                               ----- -----  ----- -----



PUBLIC SYMBOLS OF MODULE:  .\Out_File\SEEKFREE (board)


      VALUE       CLASS    TYPE      PUBLIC SYMBOL NAME
      =================================================
      00FF3197H   CODE     NEAR LAB  ?C?CASTF
      000000FFH   NUMBER   ---       ?C?CODESEG
      00FF3164H   CODE     NEAR LAB  ?C?FCASTC
      00FF315FH   CODE     NEAR LAB  ?C?FCASTI
      00FF315AH   CODE     NEAR LAB  ?C?FCASTL
      00FF394EH   CODE     ---       ?C?FP2SERIES
      00FF2F3BH   CODE     ---       ?C?FPADD
      00FF3116H   CODE     ---       ?C?FPCMP
      00FF3114H   CODE     ---       ?C?FPCMP3
      00FF3853H   CODE     ---       ?C?FPCONVERT
      00FF3093H   CODE     ---       ?C?FPDIV
      00FF3200H   CODE     ---       ?C?FPGETOPN2
      00FF2FF3H   CODE     ---       ?C?FPMUL
      00FF323DH   CODE     ---       ?C?FPNANRESULT
      00FF326EH   CODE     ---       ?C?FPNEG
      00FF3245H   CODE     ---       ?C?FPOVERFLOW
      00FF3219H   CODE     ---       ?C?FPRESULT
      00FF322FH   CODE     ---       ?C?FPRESULT2
      00FF390BH   CODE     ---       ?C?FPROUND
      00FF3957H   CODE     ---       ?C?FPSERIES
      00FF2F38H   CODE     ---       ?C?FPSUB
      00FF3242H   CODE     ---       ?C?FPUNDERFLOW
      00FF39ABH   CODE     ---       ?C?FTNPWR
      00FF79A7H   CODE     ---       ?C?INITEDATA
      00FF80EFH   HCONST   WORD      ?C?INITEDATA_END
      00FF3A25H   CODE     ---       ?C?LIMUL
      00FF3A14H   CODE     ---       ?C?LMUL
      00FF32A9H   CODE     ---       ?C?PRNFMT
      00FF39E2H   CODE     ---       ?C?SIDIV
      00FF3A81H   CODE     NEAR LAB  ?C?SLDIV
      00FF0000H   CODE     ---       ?C?STARTUP
      00FF3A30H   CODE     NEAR LAB  ?C?ULDIV
      00FF3A2EH   CODE     NEAR LAB  ?C?ULIDIV
      00000001H   NUMBER   ---       ?C?XDATASEG
      00FF0000H   CODE     ---       ?C_STARTUP
      00000845H   EDATA    BYTE      ?data_conversion?BYTE
      000007FDH   EDATA    BYTE      ?dl1b_iic_transfer_8bit_array?BYTE
      00000790H   EDATA    BYTE      ?ele_direction_control?BYTE
      0000086DH   EDATA    BYTE      ?fifo_init?BYTE
      000007A4H   EDATA    BYTE      ?fifo_read_buffer?BYTE
      000007EDH   EDATA    BYTE      ?fifo_write_buffer?BYTE
      00000989H   EDATA    BYTE      ?iap_read_bytes?BYTE
L251 LINKER/LOCATER V4.66.93.0                                                        10/06/2023  19:39:35  PAGE 17


      00000993H   EDATA    BYTE      ?iap_write_bytes?BYTE
      00000500H   EDATA    BYTE      ?ips114_showfloat?BYTE
      000004D0H   EDATA    BYTE      ?ips114_showfloat_simspi?BYTE
      00000945H   EDATA    BYTE      ?judge_circle_in?BYTE
      00000951H   EDATA    BYTE      ?judge_circle_out?BYTE
      000004A0H   EDATA    BYTE      ?lcd_showfloat?BYTE
      00000470H   EDATA    BYTE      ?lcd_showfloat_simspi?BYTE
      00000768H   EDATA    BYTE      ?number_conversion_ascii?BYTE
      00000530H   EDATA    BYTE      ?oled_printf_float?BYTE
      00000560H   EDATA    BYTE      ?oled_printf_float_spi?BYTE
*DEL*:00000028H   EDATA    ---       ?printf?BYTE
      00000754H   EDATA    BYTE      ?pwm_freq?BYTE
      00000740H   EDATA    BYTE      ?pwm_init?BYTE
      00000B38H   EDATA    BYTE      ?spi_init?BYTE
      0000081BH   EDATA    BYTE      ?uart_init?BYTE
      000002ECH   EDATA    BYTE      ?zf_sprintf?BYTE
      00FF3251H   CODE     ---       _chkfloat_?_
      00000462H   EDATA    INT       accerror
      00000054H   EDATA    FLOAT     AD_M_Lift
      00000030H   EDATA    FLOAT     AD_M_Right
      00000020H   EDATA    ---       AD_MaxValue
      00000010H   EDATA    ---       AD_MinValue
      00000058H   EDATA    ---       adc
      0000000CH   EDATA    FLOAT     ADC_ALL
*SFR* 000000BCH   DATA     BYTE      ADC_CONTR
      00000034H   EDATA    ---       ADC_Final
      00FF6938H   CODE     ---       adc_init
      000000D8H   EDATA    FLOAT     ADC_L
      00000068H   EDATA    FLOAT     ADC_LD
      000001F2H   EDATA    INT       adc_left_edge
      00000232H   EDATA    INT       adc_left_mid
      00000078H   EDATA    FLOAT     ADC_LM
      000000DCH   EDATA    FLOAT     ADC_M
      0000006CH   EDATA    FLOAT     ADC_MD
      000001F6H   EDATA    INT       adc_mid
*DEL*:00000000H   CODE     ---       ADC_Normalization1
      00FF7342H   CODE     ---       adc_once
      000000E0H   EDATA    FLOAT     ADC_R
      00000070H   EDATA    FLOAT     ADC_RD
*SFR* 000000BDH   DATA     BYTE      ADC_RES
*SFR* 000000BEH   DATA     BYTE      ADC_RESL
      000001CCH   EDATA    INT       adc_right_edge
      00000230H   EDATA    INT       adc_right_mid
      0000007CH   EDATA    FLOAT     ADC_RM
*SFR* 000000DEH   DATA     BYTE      ADCCFG
*DEL*:00000000H   CODE     ---       all_init
*SFR* 000000EFH   DATA     BYTE      AUXINTIF
*SFR* 0000008EH   DATA     BYTE      AUXR
*SFR* 00000097H   DATA     BYTE      AUXR2
      0000046EH   EDATA    INT       begin_speed
*DEL*:00000000H   CODE     ---       bluetooth_ch9141_init
*DEL*:00000000H   CODE     ---       bluetooth_ch9141_read_buff
*DEL*:00000000H   CODE     ---       bluetooth_ch9141_send_buff
      00FF7D93H   CODE     ---       bluetooth_ch9141_uart_callback
      00FF6AA1H   CODE     ---       board_init
      00000C0AH   EDATA    ---       busy
*SFR* 000000F1H   DATA     BYTE      CANICR
*SFR* 000000EAH   DATA     BYTE      CKCON
*SFR* 000000E6H   DATA     BYTE      CMPCR1
*SFR* 000000E7H   DATA     BYTE      CMPCR2
*DEL*:00000000H   CODE     ---       CRC_CHECK
      00FF71DAH   CODE     ---       ctimer_count_clean
      00FF7442H   CODE     ---       ctimer_count_init
      00FF69EDH   CODE     ---       ctimer_count_read
*DEL*:00000000H   CODE     ---       data_conversion
L251 LINKER/LOCATER V4.66.93.0                                                        10/06/2023  19:39:35  PAGE 18


      00000466H   EDATA    FLOAT     dd1
      0000046AH   EDATA    FLOAT     dd2
      00FF7953H   CODE     ---       delay_init
      00FF7A7BH   CODE     ---       delay_ms
*DEL*:00000000H   CODE     ---       delay_us
*DEL*:00000000H   CODE     ---       DisableGlobalIRQ
      000000ACH   EDATA    FLOAT     distance
      000000E4H   EDATA    FLOAT     distance_L
      00000008H   EDATA    FLOAT     distance_R
      00000C8DH   EDATA    WORD      dl1a_distance_mm
      00000C8FH   EDATA    BYTE      dl1a_finsh_flag
*DEL*:00000000H   CODE     ---       dl1a_get_distance
*DEL*:00000000H   CODE     ---       dl1a_init
      00FF00A6H   CODE     ---       dl1b_default_configuration
      00000C60H   EDATA    WORD      dl1b_distance_mm
      00000C62H   EDATA    BYTE      dl1b_finsh_flag
*DEL*:00000000H   CODE     ---       dl1b_get_distance
*DEL*:00000000H   CODE     ---       dl1b_iic_transfer_8bit_array
*DEL*:00000000H   CODE     ---       dl1b_init
      00000C63H   EDATA    BYTE      dl1b_init_flag
*SFR* 000000A8H.7 DATA     BIT       EA
*SFR* 000000BAH.7 DATA     BIT       EAXFR
*DEL*:00000000H   CODE     ---       eeprom_trig
      00FF3AB5H   CODE     ---       ele_direction_control
*DEL*:00000000H   CODE     ---       EM_adc
      00FF0006H   CODE     ---       EnableGlobalIRQ
      0000078CH   EDATA    FLOAT     encoder
      0000077CH   EDATA    FLOAT     encoder_integral
      00000782H   EDATA    FLOAT     encoder_integral1
      00000786H   EDATA    FLOAT     encoder_integral2
      00FF6D42H   CODE     ---       EncoderCount
*SFR* 000000A8H.4 DATA     BIT       ES
*SFR* 000000A8H.1 DATA     BIT       ET0
*SFR* 000000A8H.3 DATA     BIT       ET1
*SFR* 000000A8H.0 DATA     BIT       EX0
*SFR* 000000A8H.2 DATA     BIT       EX1
*DEL*:00000000H   CODE     ---       exit_init
      00FF36F1H   CODE     ---       exp?_
*SFR* 000000D0H.5 DATA     BIT       F0
*DEL*:00000000H   CODE     ---       fifo_clear
*DEL*:00000000H   CODE     ---       fifo_end_offset
      00FF6F0DH   CODE     ---       fifo_head_offset
*DEL*:00000000H   CODE     ---       fifo_init
*DEL*:00000000H   CODE     ---       fifo_read_buffer
*DEL*:00000000H   CODE     ---       fifo_used
      00FF6291H   CODE     ---       fifo_write_buffer
      00FF613EH   CODE     ---       Filter
      00FF4460H   CODE     ---       gpio_mode
*DEL*:00000000H   CODE     ---       gpio_pull_set
*SFR* 000000F6H   DATA     BYTE      IAP_ADDRE
*SFR* 000000C3H   DATA     BYTE      IAP_ADDRH
*SFR* 000000C4H   DATA     BYTE      IAP_ADDRL
*SFR* 000000C5H   DATA     BYTE      IAP_CMD
*SFR* 000000C7H   DATA     BYTE      IAP_CONTR
*SFR* 000000C2H   DATA     BYTE      IAP_DATA
*DEL*:00000000H   CODE     ---       iap_erase_page
*DEL*:00000000H   CODE     ---       iap_get_cmd_state
*DEL*:00000000H   CODE     ---       iap_idle
*DEL*:00000000H   CODE     ---       iap_init
*DEL*:00000000H   CODE     ---       iap_read_bytes
*DEL*:00000000H   CODE     ---       iap_set_tps
*SFR* 000000F5H   DATA     BYTE      IAP_TPS
*SFR* 000000C6H   DATA     BYTE      IAP_TRIG
*DEL*:00000000H   CODE     ---       iap_write_bytes
*DEL*:00000000H   CODE     ---       icm20602_acc_transition
L251 LINKER/LOCATER V4.66.93.0                                                        10/06/2023  19:39:35  PAGE 19


      000008D9H   EDATA    INT       icm20602_acc_x
      000008DBH   EDATA    INT       icm20602_acc_y
      000008DDH   EDATA    INT       icm20602_acc_z
*DEL*:00000000H   CODE     ---       icm20602_get_acc
*DEL*:00000000H   CODE     ---       icm20602_get_gyro
*DEL*:00000000H   CODE     ---       icm20602_gyro_transition
      000008DFH   EDATA    INT       icm20602_gyro_x
      000008E1H   EDATA    INT       icm20602_gyro_y
      000008E3H   EDATA    INT       icm20602_gyro_z
*DEL*:00000000H   CODE     ---       icm20602_init
*SFR* 000000A8H   DATA     BYTE      IE
*SFR* 000000AFH   DATA     BYTE      IE2
      00000422H   EDATA    FLOAT     ii1
      00000426H   EDATA    FLOAT     ii2
*DEL*:00000000H   CODE     ---       imu660ra_acc_transition
      000008E5H   EDATA    INT       imu660ra_acc_x
      000008E7H   EDATA    INT       imu660ra_acc_y
      000008E9H   EDATA    INT       imu660ra_acc_z
      00FF012DH   CODE     ---       imu660ra_config_file
*DEL*:00000000H   CODE     ---       imu660ra_get_acc
*DEL*:00000000H   CODE     ---       imu660ra_get_gyro
*DEL*:00000000H   CODE     ---       imu660ra_gyro_transition
      000008EBH   EDATA    INT       imu660ra_gyro_x
      000008EDH   EDATA    INT       imu660ra_gyro_y
      000008EFH   EDATA    INT       imu660ra_gyro_z
*DEL*:00000000H   CODE     ---       imu660ra_init
*DEL*:00000000H   CODE     ---       imu963ra_acc_transition
      000007B7H   EDATA    INT       imu963ra_acc_x
      000007B9H   EDATA    INT       imu963ra_acc_y
      000007BBH   EDATA    INT       imu963ra_acc_z
*DEL*:00000000H   CODE     ---       imu963ra_get_acc
*DEL*:00000000H   CODE     ---       imu963ra_get_gyro
*DEL*:00000000H   CODE     ---       imu963ra_get_mag
*DEL*:00000000H   CODE     ---       imu963ra_gyro_transition
      000007C3H   EDATA    INT       imu963ra_gyro_x
      000007C5H   EDATA    INT       imu963ra_gyro_y
      000007C7H   EDATA    INT       imu963ra_gyro_z
*DEL*:00000000H   CODE     ---       imu963ra_init
*DEL*:00000000H   CODE     ---       imu963ra_mag_transition
      000007BDH   EDATA    INT       imu963ra_mag_x
      000007BFH   EDATA    INT       imu963ra_mag_y
      000007C1H   EDATA    INT       imu963ra_mag_z
      0000042AH   EDATA    FLOAT     in1
      0000042EH   EDATA    FLOAT     in2
*DEL*:00000000H   CODE     ---       infrared_detection
      00FF0046H   CODE     ---       INT0_Isr
      00FF000AH   CODE     ---       INT1_Isr
      00FF7F03H   CODE     ---       INT2_Isr
      00FF7F0BH   CODE     ---       INT3_Isr
      00FF7F13H   CODE     ---       INT4_Isr
*SFR* 0000008FH   DATA     BYTE      INTCLKO
*SFR* 000000B8H   DATA     BYTE      IP
*SFR* 000000B5H   DATA     BYTE      IP2
*SFR* 000000B6H   DATA     BYTE      IP2H
*SFR* 000000DFH   DATA     BYTE      IP3
*SFR* 000000EEH   DATA     BYTE      IP3H
*SFR* 000000B7H   DATA     BYTE      IPH
      000001D0H   EDATA    ---       ipid_speed_left
      000001AAH   EDATA    ---       ipid_speed_right
      00FF717BH   CODE     ---       ips114_clear
*DEL*:00000000H   CODE     ---       ips114_clear_simspi
*DEL*:00000000H   CODE     ---       ips114_drawpoint
*DEL*:00000000H   CODE     ---       ips114_drawpoint_simspi
      00FF5E61H   CODE     ---       ips114_init
*DEL*:00000000H   CODE     ---       ips114_init_simspi
L251 LINKER/LOCATER V4.66.93.0                                                        10/06/2023  19:39:35  PAGE 20


      00FF7496H   CODE     ---       ips114_set_region
*DEL*:00000000H   CODE     ---       ips114_set_region_simspi
      00FF6879H   CODE     ---       ips114_showchar
*DEL*:00000000H   CODE     ---       ips114_showchar_simspi
*DEL*:00000000H   CODE     ---       ips114_showfloat
*DEL*:00000000H   CODE     ---       ips114_showfloat_simspi
*DEL*:00000000H   CODE     ---       ips114_showint16
*DEL*:00000000H   CODE     ---       ips114_showint16_simspi
*DEL*:00000000H   CODE     ---       ips114_showint32
*DEL*:00000000H   CODE     ---       ips114_showint32_simspi
*DEL*:00000000H   CODE     ---       ips114_showint8
*DEL*:00000000H   CODE     ---       ips114_showint8_simspi
*DEL*:00000000H   CODE     ---       ips114_showstr
*DEL*:00000000H   CODE     ---       ips114_showstr_simspi
      00FF67ACH   CODE     ---       ips114_showuint16
*DEL*:00000000H   CODE     ---       ips114_showuint16_simspi
*DEL*:00000000H   CODE     ---       ips114_showuint8
*DEL*:00000000H   CODE     ---       ips114_showuint8_simspi
      00FF7E66H   CODE     ---       ips114_writeData
      00FF7B66H   CODE     ---       ips114_writedata_16bit
*DEL*:00000000H   CODE     ---       ips114_writeData_simspi
      00FF73EDH   CODE     ---       ips114_writeDatai_16bit_simspi
      00FF7E51H   CODE     ---       ips114_writeIndex
      00FF76C5H   CODE     ---       ips114_writeIndex_simspi
*SFR* 0000009DH   DATA     BYTE      IRCBAND
*SFR* 0000009FH   DATA     BYTE      IRTRIM
*SFR* 00000088H.0 DATA     BIT       IT0
*SFR* 00000088H.2 DATA     BIT       IT1
      0000045AH   EDATA    FLOAT     iterm1
      0000045EH   EDATA    FLOAT     iterm2
*DEL*:00000000H   CODE     ---       judge_circle
*DEL*:00000000H   CODE     ---       judge_circle_in
*DEL*:00000000H   CODE     ---       judge_circle_out
      00000464H   EDATA    INT       lasterror
      00000452H   EDATA    FLOAT     lastin1
      00000456H   EDATA    FLOAT     lastin2
*DEL*:00000000H   CODE     ---       lcd_clear
*DEL*:00000000H   CODE     ---       lcd_clear_simspi
*DEL*:00000000H   CODE     ---       lcd_drawpoint
*DEL*:00000000H   CODE     ---       lcd_drawpoint_simspi
*DEL*:00000000H   CODE     ---       lcd_init
*DEL*:00000000H   CODE     ---       lcd_init_simspi
      00FF7117H   CODE     ---       lcd_set_region
      00FF70B3H   CODE     ---       lcd_set_region_simspi
*DEL*:00000000H   CODE     ---       lcd_showchar
*DEL*:00000000H   CODE     ---       lcd_showchar_simspi
*DEL*:00000000H   CODE     ---       lcd_showfloat
*DEL*:00000000H   CODE     ---       lcd_showfloat_simspi
*DEL*:00000000H   CODE     ---       lcd_showint16
*DEL*:00000000H   CODE     ---       lcd_showint16_simspi
*DEL*:00000000H   CODE     ---       lcd_showint32
*DEL*:00000000H   CODE     ---       lcd_showint32_simspi
*DEL*:00000000H   CODE     ---       lcd_showint8
*DEL*:00000000H   CODE     ---       lcd_showint8_simspi
*DEL*:00000000H   CODE     ---       lcd_showstr
*DEL*:00000000H   CODE     ---       lcd_showstr_simspi
*DEL*:00000000H   CODE     ---       lcd_showuint16
*DEL*:00000000H   CODE     ---       lcd_showuint16_simspi
*DEL*:00000000H   CODE     ---       lcd_showuint8
*DEL*:00000000H   CODE     ---       lcd_showuint8_simspi
      00FF7E3CH   CODE     ---       lcd_writeData
      00FF7B12H   CODE     ---       lcd_writedata_16bit
      00FF7398H   CODE     ---       lcd_writeData_16bit_simspi
      00FF7679H   CODE     ---       lcd_writeData_simspi
      00FF7E27H   CODE     ---       lcd_writeIndex
L251 LINKER/LOCATER V4.66.93.0                                                        10/06/2023  19:39:35  PAGE 21


      00FF762DH   CODE     ---       lcd_writeIndex_simspi
      0000078AH   EDATA    INT       left_speed_in
      000000B0H   EDATA    ---       LeftADC
      000000A8H   EDATA    FLOAT     LeftAverage
*SFR* 000000F9H   DATA     BYTE      LINICR
      00FF3780H   CODE     NEAR LAB  log?_
      00FF6BC6H   CODE     ---       main
      0000044EH   EDATA    FLOAT     max_speed
      00FF7C2FH   CODE     ---       memcpy?_
*DEL*:00000000H   CODE     ---       memset?_
      0000044AH   EDATA    FLOAT     min_speed
      00FF78CCH   CODE     ---       motor_init
*DEL*:00000000H   CODE     ---       motorCtrl
      00000921H   EDATA    INT       mpu6050_acc_x
      00000923H   EDATA    INT       mpu6050_acc_y
      00000925H   EDATA    INT       mpu6050_acc_z
*DEL*:00000000H   CODE     ---       mpu6050_get_accdata
*DEL*:00000000H   CODE     ---       mpu6050_get_gyro
      00000927H   EDATA    INT       mpu6050_gyro_x
      00000929H   EDATA    INT       mpu6050_gyro_y
      0000092BH   EDATA    INT       mpu6050_gyro_z
*DEL*:00000000H   CODE     ---       mpu6050_init
*DEL*:00000000H   CODE     ---       mpu6050_simiic_read_reg
*DEL*:00000000H   CODE     ---       mpu6050_simiic_read_regs
*DEL*:00000000H   CODE     ---       number_conversion_ascii
*DEL*:00000000H   CODE     ---       NVIC_SetPriority
      00FF2D0DH   CODE     ---       oled_6x8
      00FF212DH   CODE     ---       oled_8x16
*DEL*:00000000H   CODE     ---       oled_clrpixel
*DEL*:00000000H   CODE     ---       oled_clrpixel_spi
*DEL*:00000000H   CODE     ---       oled_dis_bmp
*DEL*:00000000H   CODE     ---       oled_dis_bmp_spi
*DEL*:00000000H   CODE     ---       oled_fill
*DEL*:00000000H   CODE     ---       oled_fill_spi
*DEL*:00000000H   CODE     ---       oled_hexascii
*DEL*:00000000H   CODE     ---       oled_hexascii_spi
*DEL*:00000000H   CODE     ---       oled_init
*DEL*:00000000H   CODE     ---       oled_init_spi
*DEL*:00000000H   CODE     ---       oled_int16
*DEL*:00000000H   CODE     ---       oled_int16_spi
*DEL*:00000000H   CODE     ---       oled_p6x8str
*DEL*:00000000H   CODE     ---       oled_p6x8str_spi
*DEL*:00000000H   CODE     ---       oled_p8x16str
*DEL*:00000000H   CODE     ---       oled_p8x16str_spi
*DEL*:00000000H   CODE     ---       oled_print_chinese
*DEL*:00000000H   CODE     ---       oled_print_chinese_spi
*DEL*:00000000H   CODE     ---       oled_printf_float
*DEL*:00000000H   CODE     ---       oled_printf_float_spi
*DEL*:00000000H   CODE     ---       oled_printf_int32
*DEL*:00000000H   CODE     ---       oled_printf_int32_spi
*DEL*:00000000H   CODE     ---       oled_putpixel
*DEL*:00000000H   CODE     ---       oled_putpixel_spi
      00FF7AB0H   CODE     ---       oled_set_pos
      00FF7A0FH   CODE     ---       oled_set_pos_spi
*DEL*:00000000H   CODE     ---       oled_uint16
*DEL*:00000000H   CODE     ---       oled_uint16_spi
      00FF7711H   CODE     ---       oled_wrcmd
      00FF7E7BH   CODE     ---       oled_wrcmd_spi
      00FF775DH   CODE     ---       oled_wrdat
      00FF7E90H   CODE     ---       oled_wrdat_spi
      00000432H   EDATA    FLOAT     out1
      00000436H   EDATA    FLOAT     out2
*SFR* 00000080H   DATA     BYTE      P0
*SFR* 00000080H.7 DATA     BIT       P07
*SFR* 00000094H   DATA     BYTE      P0M0
L251 LINKER/LOCATER V4.66.93.0                                                        10/06/2023  19:39:35  PAGE 22


*SFR* 00000093H   DATA     BYTE      P0M1
*SFR* 00000090H   DATA     BYTE      P1
*SFR* 00000092H   DATA     BYTE      P1M0
*SFR* 00000091H   DATA     BYTE      P1M1
*SFR* 000000A0H   DATA     BYTE      P2
*SFR* 000000A0H.0 DATA     BIT       P20
*SFR* 000000A0H.1 DATA     BIT       P21
*SFR* 000000A0H.2 DATA     BIT       P22
*SFR* 000000A0H.3 DATA     BIT       P23
*SFR* 000000A0H.5 DATA     BIT       P25
*SFR* 000000A0H.7 DATA     BIT       P27
*SFR* 00000096H   DATA     BYTE      P2M0
*SFR* 00000095H   DATA     BYTE      P2M1
*SFR* 000000B0H   DATA     BYTE      P3
*SFR* 000000B2H   DATA     BYTE      P3M0
*SFR* 000000B1H   DATA     BYTE      P3M1
*SFR* 000000C0H   DATA     BYTE      P4
*SFR* 000000C0H.0 DATA     BIT       P40
*SFR* 000000C0H.1 DATA     BIT       P41
*SFR* 000000C0H.2 DATA     BIT       P42
*SFR* 000000C0H.3 DATA     BIT       P43
*SFR* 000000C0H.7 DATA     BIT       P47
*SFR* 000000B4H   DATA     BYTE      P4M0
*SFR* 000000B3H   DATA     BYTE      P4M1
*SFR* 000000C8H   DATA     BYTE      P5
*SFR* 000000C8H.2 DATA     BIT       P52
*SFR* 000000CAH   DATA     BYTE      P5M0
*SFR* 000000C9H   DATA     BYTE      P5M1
*SFR* 000000E8H   DATA     BYTE      P6
*SFR* 000000E8H.3 DATA     BIT       P63
*SFR* 000000E8H.5 DATA     BIT       P65
*SFR* 000000CCH   DATA     BYTE      P6M0
*SFR* 000000CBH   DATA     BYTE      P6M1
*SFR* 000000F8H   DATA     BYTE      P7
*SFR* 000000E2H   DATA     BYTE      P7M0
*SFR* 000000E1H   DATA     BYTE      P7M1
*SFR* 000000A2H   DATA     BYTE      P_SW1
*SFR* 000000BAH   DATA     BYTE      P_SW2
*SFR* 000000BBH   DATA     BYTE      P_SW3
*SFR* 00000087H   DATA     BYTE      PCON
*DEL*:00000000H   CODE     ---       PID_param_init
      000001F8H   EDATA    ---       pid_steer
      00FF75DFH   CODE     ---       pid_steers
      00FF66C7H   CODE     ---       pit_timer_ms
*DEL*:00000000H   CODE     ---       pow?_
      0000043AH   EDATA    FLOAT     pp1
      0000043EH   EDATA    FLOAT     pp2
      00FF31D4H   CODE     NEAR LAB  printf
*DEL*:00000000H   CODE     ---       printf_reverse_order
*DEL*:00000000H   CODE     ---       protect
      00000D01H   EDATA    INT       protect_motor
*SFR* 000000D0H   DATA     BYTE      PSW
      00FF7EDFH   CODE     ---       putchar
      00FF8111H   HCONST   ---       PWM_ARR_ADDR
      00FF8119H   HCONST   ---       PWM_CCER_ADDR
      00FF8129H   HCONST   ---       PWM_CCMR_ADDR
      00FF80F1H   HCONST   ---       PWM_CCR_ADDR
      00FF63C9H   CODE     ---       pwm_duty
*DEL*:00000000H   CODE     ---       pwm_freq
      00FF4D6DH   CODE     ---       pwm_init
      00FF5147H   CODE     ---       pwm_set_gpio
      00FF65D6H   CODE     ---       PWMSetMotor2
      00FF79D3H   CODE     ---       PWMSetSteer
      00000780H   EDATA    INT       right_speed_in
      00000080H   EDATA    ---       RightADC
L251 LINKER/LOCATER V4.66.93.0                                                        10/06/2023  19:39:35  PAGE 23


      00000074H   EDATA    FLOAT     RightAverage
*SFR* 000000FFH   DATA     BYTE      RSTCFG
*SFR* 0000009BH   DATA     BYTE      S2BUF
*SFR* 0000009AH   DATA     BYTE      S2CON
*SFR* 000000ADH   DATA     BYTE      S3BUF
*SFR* 000000ACH   DATA     BYTE      S3CON
*SFR* 000000FEH   DATA     BYTE      S4BUF
*SFR* 000000FDH   DATA     BYTE      S4CON
*SFR* 00000099H   DATA     BYTE      SBUF
*SFR* 00000098H   DATA     BYTE      SCON
      00FF5C5BH   CODE     ---       set_clk
      00000442H   EDATA    FLOAT     setpoint1
      00000446H   EDATA    FLOAT     setpoint2
      000001A2H   EDATA    FLOAT     setpoint_left
      00000234H   EDATA    FLOAT     setpoint_right
*DEL*:00000000H   CODE     ---       showimage
*SFR* 000000CEH   DATA     BYTE      SPCTL
*SFR* 000000CFH   DATA     BYTE      SPDAT
      00FF7CFCH   CODE     ---       speed_pid
      000001F4H   EDATA    INT       speedflag
      00FF5A06H   CODE     ---       speedleft_pid_realize
      00FF57B1H   CODE     ---       speedright_pid_realize
*DEL*:00000000H   CODE     ---       spi_change_mode
*DEL*:00000000H   CODE     ---       spi_change_pin
      00FF64E1H   CODE     ---       spi_init
      00FF7EF1H   CODE     ---       spi_mosi
*SFR* 000000CDH   DATA     BYTE      SPSTAT
      000001CEH   EDATA    INT       status
      00FF7EA5H   CODE     ---       steer_init
*DEL*:00000000H   CODE     ---       steerCtrl
      00000C28H   EDATA    LONG      sys_clk
*SFR* 000000D6H   DATA     BYTE      T2H
*SFR* 000000D7H   DATA     BYTE      T2L
*SFR* 000000D4H   DATA     BYTE      T3H
*SFR* 000000D5H   DATA     BYTE      T3L
*SFR* 000000D2H   DATA     BYTE      T4H
*SFR* 000000D3H   DATA     BYTE      T4L
*SFR* 000000DDH   DATA     BYTE      T4T3M
*SFR* 00000088H   DATA     BYTE      TCON
      00FF271DH   CODE     ---       tft_ascii
*SFR* 0000008CH   DATA     BYTE      TH0
*SFR* 0000008DH   DATA     BYTE      TH1
*DEL*:00000000H   CODE     ---       Timer_Init
*SFR* 0000008AH   DATA     BYTE      TL0
*SFR* 0000008BH   DATA     BYTE      TL1
      00FF000EH   CODE     ---       TM0_Isr
      00FF7A45H   CODE     ---       TM1_Isr
      00FF7F1BH   CODE     ---       TM2_Isr
      00FF7F23H   CODE     ---       TM3_Isr
      00FF7F2BH   CODE     ---       TM4_Isr
*SFR* 00000089H   DATA     BYTE      TMOD
      000001A6H   EDATA    ---       toipid_speed_left
      0000019EH   EDATA    ---       toipid_speed_right
*SFR* 00000088H.4 DATA     BIT       TR0
*SFR* 00000088H.6 DATA     BIT       TR1
      00FF7886H   CODE     ---       UART1_Isr
      00FF7D3AH   CODE     ---       UART2_Isr
      00FF7D58H   CODE     ---       UART3_Isr
      00FF6E2EH   CODE     ---       UART4_Isr
      00FF54FFH   CODE     ---       uart_init
*DEL*:00000000H   CODE     ---       uart_putbuff
      00FF6DB9H   CODE     ---       uart_putchar
*DEL*:00000000H   CODE     ---       uart_putstr
*SFR* 000000F4H   DATA     BYTE      USBCON
      000009EDH   EDATA    ---       virtual_scope_data
L251 LINKER/LOCATER V4.66.93.0                                                        10/06/2023  19:39:35  PAGE 24


*SFR* 000000A6H   DATA     BYTE      VRTRIM
*SFR* 000000C1H   DATA     BYTE      WDT_CONTR
      00FF7DE1H   CODE     ---       wireless_ch573_callback
*DEL*:00000000H   CODE     ---       wireless_ch573_init
*DEL*:00000000H   CODE     ---       wireless_ch573_read_buff
*DEL*:00000000H   CODE     ---       wireless_ch573_send_buff
      00000CBDH   EDATA    INT       wireless_type
      00FF7DC7H   CODE     ---       wireless_uart_callback
*DEL*:00000000H   CODE     ---       wireless_uart_init
*DEL*:00000000H   CODE     ---       wireless_uart_read_buff
*DEL*:00000000H   CODE     ---       wireless_uart_send_buff
*SFR* 000000E9H   DATA     BYTE      WTST
      00000C30H   EDATA    WORD      zf_delay_ms
      00000C32H   EDATA    WORD      zf_delay_us
*DEL*:00000000H   CODE     ---       zf_sprintf



SYMBOL TABLE OF MODULE:  .\Out_File\SEEKFREE (board)

      VALUE       REP       CLASS    TYPE      SYMBOL NAME
      ====================================================
      ---         MODULE    ---      ---       board
      00FF0006H   PUBLIC    CODE     ---       EnableGlobalIRQ
      00FF6AA1H   PUBLIC    CODE     ---       board_init
      00FF5C5BH   PUBLIC    CODE     ---       set_clk
      00FF7EDFH   PUBLIC    CODE     ---       putchar
      00000C28H   PUBLIC    EDATA    LONG      sys_clk
      00000094H   SFRSYM    DATA     BYTE      P0M0
      000000D0H   SFRSYM    DATA     BYTE      PSW
      000000BAH.7 SFRSYM    DATA     BIT       EAXFR
      0000009DH   SFRSYM    DATA     BYTE      IRCBAND
      00000097H   SFRSYM    DATA     BYTE      AUXR2
      000000EAH   SFRSYM    DATA     BYTE      CKCON
      000000EFH   SFRSYM    DATA     BYTE      AUXINTIF
      000000FDH   SFRSYM    DATA     BYTE      S4CON
      000000ACH   SFRSYM    DATA     BYTE      S3CON
      0000009AH   SFRSYM    DATA     BYTE      S2CON
      000000A6H   SFRSYM    DATA     BYTE      VRTRIM
      000000B7H   SFRSYM    DATA     BYTE      IPH
      000000CDH   SFRSYM    DATA     BYTE      SPSTAT
      000000DDH   SFRSYM    DATA     BYTE      T4T3M
      0000009FH   SFRSYM    DATA     BYTE      IRTRIM
      000000C1H   SFRSYM    DATA     BYTE      WDT_CONTR
      000000E9H   SFRSYM    DATA     BYTE      WTST
      000000DFH   SFRSYM    DATA     BYTE      IP3
      000000F4H   SFRSYM    DATA     BYTE      USBCON
      000000B5H   SFRSYM    DATA     BYTE      IP2
      000000FFH   SFRSYM    DATA     BYTE      RSTCFG
      000000F9H   SFRSYM    DATA     BYTE      LINICR
      0000008EH   SFRSYM    DATA     BYTE      AUXR
      000000AFH   SFRSYM    DATA     BYTE      IE2
      00000088H   SFRSYM    DATA     BYTE      TCON
      00000089H   SFRSYM    DATA     BYTE      TMOD
      00000098H   SFRSYM    DATA     BYTE      SCON
      000000F1H   SFRSYM    DATA     BYTE      CANICR
      00000087H   SFRSYM    DATA     BYTE      PCON
      000000BCH   SFRSYM    DATA     BYTE      ADC_CONTR
      000000E7H   SFRSYM    DATA     BYTE      CMPCR2
      000000E6H   SFRSYM    DATA     BYTE      CMPCR1
      000000DEH   SFRSYM    DATA     BYTE      ADCCFG
      000000B8H   SFRSYM    DATA     BYTE      IP
      0000008FH   SFRSYM    DATA     BYTE      INTCLKO
      000000EEH   SFRSYM    DATA     BYTE      IP3H
      000000B6H   SFRSYM    DATA     BYTE      IP2H
L251 LINKER/LOCATER V4.66.93.0                                                        10/06/2023  19:39:35  PAGE 25


      000000A8H   SFRSYM    DATA     BYTE      IE
      000000BBH   SFRSYM    DATA     BYTE      P_SW3
      000000BAH   SFRSYM    DATA     BYTE      P_SW2
      000000A2H   SFRSYM    DATA     BYTE      P_SW1
      000000CEH   SFRSYM    DATA     BYTE      SPCTL
      000000F8H   SFRSYM    DATA     BYTE      P7
      000000A8H.7 SFRSYM    DATA     BIT       EA
      000000E1H   SFRSYM    DATA     BYTE      P7M1
      000000E8H   SFRSYM    DATA     BYTE      P6
      000000C8H   SFRSYM    DATA     BYTE      P5
      000000CBH   SFRSYM    DATA     BYTE      P6M1
      000000E2H   SFRSYM    DATA     BYTE      P7M0
      000000C0H   SFRSYM    DATA     BYTE      P4
      000000C9H   SFRSYM    DATA     BYTE      P5M1
      000000CCH   SFRSYM    DATA     BYTE      P6M0
      000000B0H   SFRSYM    DATA     BYTE      P3
      000000B3H   SFRSYM    DATA     BYTE      P4M1
      000000CAH   SFRSYM    DATA     BYTE      P5M0
      000000A0H   SFRSYM    DATA     BYTE      P2
      000000B1H   SFRSYM    DATA     BYTE      P3M1
      000000B4H   SFRSYM    DATA     BYTE      P4M0
      00000090H   SFRSYM    DATA     BYTE      P1
      00000095H   SFRSYM    DATA     BYTE      P2M1
      000000B2H   SFRSYM    DATA     BYTE      P3M0
      00000080H   SFRSYM    DATA     BYTE      P0
      00000091H   SFRSYM    DATA     BYTE      P1M1
      00000096H   SFRSYM    DATA     BYTE      P2M0
      00000092H   SFRSYM    DATA     BYTE      P1M0
      00000093H   SFRSYM    DATA     BYTE      P0M1

      00FF5C5BH   BLOCK     CODE     ---       LVL=0
      00FF5C5BH   LINE      CODE     ---       #43
      00FF5C5BH   LINE      CODE     ---       #46
      00FF5C5EH   LINE      CODE     ---       #48
      00FF5C6EH   LINE      CODE     ---       #51
      00FF5C7BH   LINE      CODE     ---       #52
      00FF5C88H   LINE      CODE     ---       #53
      00FF5C95H   LINE      CODE     ---       #54
      00FF5C99H   LINE      CODE     ---       #55
      00FF5CA5H   LINE      CODE     ---       #56
      00FF5CA8H   LINE      CODE     ---       #57
      00FF5CB8H   LINE      CODE     ---       #60
      00FF5CC5H   LINE      CODE     ---       #61
      00FF5CD2H   LINE      CODE     ---       #62
      00FF5CDFH   LINE      CODE     ---       #63
      00FF5CE3H   LINE      CODE     ---       #64
      00FF5CEFH   LINE      CODE     ---       #65
      00FF5CF2H   LINE      CODE     ---       #66
      00FF5D02H   LINE      CODE     ---       #69
      00FF5D0FH   LINE      CODE     ---       #70
      00FF5D1CH   LINE      CODE     ---       #71
      00FF5D29H   LINE      CODE     ---       #72
      00FF5D2DH   LINE      CODE     ---       #73
      00FF5D39H   LINE      CODE     ---       #74
      00FF5D3CH   LINE      CODE     ---       #75
      00FF5D4CH   LINE      CODE     ---       #79
      00FF5D59H   LINE      CODE     ---       #80
      00FF5D66H   LINE      CODE     ---       #81
      00FF5D73H   LINE      CODE     ---       #82
      00FF5D77H   LINE      CODE     ---       #83
      00FF5D83H   LINE      CODE     ---       #84
      00FF5D86H   LINE      CODE     ---       #85
      00FF5D96H   LINE      CODE     ---       #88
      00FF5DA3H   LINE      CODE     ---       #89
      00FF5DB0H   LINE      CODE     ---       #90
L251 LINKER/LOCATER V4.66.93.0                                                        10/06/2023  19:39:35  PAGE 26


      00FF5DBDH   LINE      CODE     ---       #91
      00FF5DC1H   LINE      CODE     ---       #92
      00FF5DCDH   LINE      CODE     ---       #93
      00FF5DD0H   LINE      CODE     ---       #94
      00FF5DE0H   LINE      CODE     ---       #97
      00FF5DEDH   LINE      CODE     ---       #98
      00FF5DFAH   LINE      CODE     ---       #99
      00FF5E07H   LINE      CODE     ---       #100
      00FF5E0BH   LINE      CODE     ---       #101
      00FF5E17H   LINE      CODE     ---       #102
      00FF5E19H   LINE      CODE     ---       #105
      00FF5E25H   LINE      CODE     ---       #107
      00FF5E32H   LINE      CODE     ---       #108
      00FF5E3FH   LINE      CODE     ---       #109
      00FF5E4CH   LINE      CODE     ---       #110
      00FF5E50H   LINE      CODE     ---       #111
      00FF5E5CH   LINE      CODE     ---       #112
      00FF5E5CH   LINE      CODE     ---       #114
      00FF5E60H   LINE      CODE     ---       #115
      ---         BLOCKEND  ---      ---       LVL=0

      00FF6AA1H   BLOCK     CODE     ---       LVL=0
      00FF6AA1H   LINE      CODE     ---       #121
      00FF6AA1H   LINE      CODE     ---       #123
      00FF6AA5H   LINE      CODE     ---       #124
      00FF6AA8H   LINE      CODE     ---       #125
      00FF6AABH   LINE      CODE     ---       #126
      00FF6AAEH   LINE      CODE     ---       #127
      00FF6AB2H   LINE      CODE     ---       #137
      00FF6AB9H   LINE      CODE     ---       #143
      00FF6ABCH   LINE      CODE     ---       #145
      00FF6ABFH   LINE      CODE     ---       #146
      00FF6AC2H   LINE      CODE     ---       #147
      00FF6ACEH   LINE      CODE     ---       #149
      00FF6AD1H   LINE      CODE     ---       #150
      00FF6AD4H   LINE      CODE     ---       #151
      00FF6AD7H   LINE      CODE     ---       #152
      00FF6ADAH   LINE      CODE     ---       #153
      00FF6ADDH   LINE      CODE     ---       #154
      00FF6AE0H   LINE      CODE     ---       #155
      00FF6AE3H   LINE      CODE     ---       #156
      00FF6AE6H   LINE      CODE     ---       #157
      00FF6AE9H   LINE      CODE     ---       #158
      00FF6AECH   LINE      CODE     ---       #159
      00FF6AEFH   LINE      CODE     ---       #160
      00FF6AF2H   LINE      CODE     ---       #161
      00FF6AF5H   LINE      CODE     ---       #162
      00FF6AF8H   LINE      CODE     ---       #163
      00FF6AFBH   LINE      CODE     ---       #164
      00FF6AFEH   LINE      CODE     ---       #166
      00FF6B01H   LINE      CODE     ---       #167
      00FF6B04H   LINE      CODE     ---       #168
      00FF6B07H   LINE      CODE     ---       #169
      00FF6B0AH   LINE      CODE     ---       #170
      00FF6B0DH   LINE      CODE     ---       #171
      00FF6B10H   LINE      CODE     ---       #172
      00FF6B13H   LINE      CODE     ---       #173
      00FF6B16H   LINE      CODE     ---       #174
      00FF6B19H   LINE      CODE     ---       #176
      00FF6B34H   LINE      CODE     ---       #177
      00FF6B37H   LINE      CODE     ---       #178
      ---         BLOCKEND  ---      ---       LVL=0

      00FF7EDFH   BLOCK     CODE     ---       LVL=0
      00000D05H   SYMBOL    EDATA    CHAR      c
L251 LINKER/LOCATER V4.66.93.0                                                        10/06/2023  19:39:35  PAGE 27


      00FF7EDFH   LINE      CODE     ---       #183
      00FF7EE3H   LINE      CODE     ---       #185
      00FF7EECH   LINE      CODE     ---       #187
      00FF7EF0H   LINE      CODE     ---       #188
      ---         BLOCKEND  ---      ---       LVL=0

      00FF0006H   BLOCK     CODE     ---       LVL=0
      00FF0006H   LINE      CODE     ---       #197
      00FF0006H   LINE      CODE     ---       #199
      00FF0009H   LINE      CODE     ---       #200
      ---         BLOCKEND  ---      ---       LVL=0

      ---         MODULE    ---      ---       common
      00000CBDH   PUBLIC    EDATA    INT       wireless_type
      000000D0H   SFRSYM    DATA     BYTE      PSW
      0000009DH   SFRSYM    DATA     BYTE      IRCBAND
      00000097H   SFRSYM    DATA     BYTE      AUXR2
      000000EFH   SFRSYM    DATA     BYTE      AUXINTIF
      000000FDH   SFRSYM    DATA     BYTE      S4CON
      000000ACH   SFRSYM    DATA     BYTE      S3CON
      0000009AH   SFRSYM    DATA     BYTE      S2CON
      000000B7H   SFRSYM    DATA     BYTE      IPH
      000000CDH   SFRSYM    DATA     BYTE      SPSTAT
      000000DDH   SFRSYM    DATA     BYTE      T4T3M
      000000C1H   SFRSYM    DATA     BYTE      WDT_CONTR
      000000DFH   SFRSYM    DATA     BYTE      IP3
      000000F4H   SFRSYM    DATA     BYTE      USBCON
      000000B5H   SFRSYM    DATA     BYTE      IP2
      000000FFH   SFRSYM    DATA     BYTE      RSTCFG
      000000F9H   SFRSYM    DATA     BYTE      LINICR
      0000008EH   SFRSYM    DATA     BYTE      AUXR
      000000AFH   SFRSYM    DATA     BYTE      IE2
      00000088H   SFRSYM    DATA     BYTE      TCON
      00000098H   SFRSYM    DATA     BYTE      SCON
      000000F1H   SFRSYM    DATA     BYTE      CANICR
      00000087H   SFRSYM    DATA     BYTE      PCON
      000000BCH   SFRSYM    DATA     BYTE      ADC_CONTR
      000000E7H   SFRSYM    DATA     BYTE      CMPCR2
      000000E6H   SFRSYM    DATA     BYTE      CMPCR1
      000000B8H   SFRSYM    DATA     BYTE      IP
      0000008FH   SFRSYM    DATA     BYTE      INTCLKO
      000000EEH   SFRSYM    DATA     BYTE      IP3H
      000000B6H   SFRSYM    DATA     BYTE      IP2H
      000000A8H   SFRSYM    DATA     BYTE      IE
      000000BBH   SFRSYM    DATA     BYTE      P_SW3
      000000BAH   SFRSYM    DATA     BYTE      P_SW2
      000000A2H   SFRSYM    DATA     BYTE      P_SW1
      000000CEH   SFRSYM    DATA     BYTE      SPCTL
      000000F8H   SFRSYM    DATA     BYTE      P7
      000000E8H   SFRSYM    DATA     BYTE      P6
      000000C8H   SFRSYM    DATA     BYTE      P5
      000000C0H   SFRSYM    DATA     BYTE      P4
      000000B0H   SFRSYM    DATA     BYTE      P3
      000000A0H   SFRSYM    DATA     BYTE      P2
      00000090H   SFRSYM    DATA     BYTE      P1
      00000080H   SFRSYM    DATA     BYTE      P0

      ---         MODULE    ---      ---       zf_adc
      00FF7342H   PUBLIC    CODE     ---       adc_once
      00FF6938H   PUBLIC    CODE     ---       adc_init
      00FF613EH   PUBLIC    CODE     ---       Filter
      00000094H   SFRSYM    DATA     BYTE      P0M0
      000000D0H   SFRSYM    DATA     BYTE      PSW
      0000009DH   SFRSYM    DATA     BYTE      IRCBAND
      00000097H   SFRSYM    DATA     BYTE      AUXR2
L251 LINKER/LOCATER V4.66.93.0                                                        10/06/2023  19:39:35  PAGE 28


      000000EFH   SFRSYM    DATA     BYTE      AUXINTIF
      000000FDH   SFRSYM    DATA     BYTE      S4CON
      000000ACH   SFRSYM    DATA     BYTE      S3CON
      0000009AH   SFRSYM    DATA     BYTE      S2CON
      000000B7H   SFRSYM    DATA     BYTE      IPH
      000000CDH   SFRSYM    DATA     BYTE      SPSTAT
      000000BEH   SFRSYM    DATA     BYTE      ADC_RESL
      000000DDH   SFRSYM    DATA     BYTE      T4T3M
      000000C1H   SFRSYM    DATA     BYTE      WDT_CONTR
      000000DFH   SFRSYM    DATA     BYTE      IP3
      000000F4H   SFRSYM    DATA     BYTE      USBCON
      000000B5H   SFRSYM    DATA     BYTE      IP2
      000000FFH   SFRSYM    DATA     BYTE      RSTCFG
      000000F9H   SFRSYM    DATA     BYTE      LINICR
      0000008EH   SFRSYM    DATA     BYTE      AUXR
      000000AFH   SFRSYM    DATA     BYTE      IE2
      00000088H   SFRSYM    DATA     BYTE      TCON
      00000098H   SFRSYM    DATA     BYTE      SCON
      000000F1H   SFRSYM    DATA     BYTE      CANICR
      00000087H   SFRSYM    DATA     BYTE      PCON
      000000BCH   SFRSYM    DATA     BYTE      ADC_CONTR
      000000E7H   SFRSYM    DATA     BYTE      CMPCR2
      000000E6H   SFRSYM    DATA     BYTE      CMPCR1
      000000DEH   SFRSYM    DATA     BYTE      ADCCFG
      000000B8H   SFRSYM    DATA     BYTE      IP
      0000008FH   SFRSYM    DATA     BYTE      INTCLKO
      000000EEH   SFRSYM    DATA     BYTE      IP3H
      000000B6H   SFRSYM    DATA     BYTE      IP2H
      000000BDH   SFRSYM    DATA     BYTE      ADC_RES
      000000A8H   SFRSYM    DATA     BYTE      IE
      000000BBH   SFRSYM    DATA     BYTE      P_SW3
      000000BAH   SFRSYM    DATA     BYTE      P_SW2
      000000A2H   SFRSYM    DATA     BYTE      P_SW1
      000000CEH   SFRSYM    DATA     BYTE      SPCTL
      000000F8H   SFRSYM    DATA     BYTE      P7
      000000E8H   SFRSYM    DATA     BYTE      P6
      000000C8H   SFRSYM    DATA     BYTE      P5
      000000C0H   SFRSYM    DATA     BYTE      P4
      000000B0H   SFRSYM    DATA     BYTE      P3
      000000A0H   SFRSYM    DATA     BYTE      P2
      00000090H   SFRSYM    DATA     BYTE      P1
      00000080H   SFRSYM    DATA     BYTE      P0
      00000091H   SFRSYM    DATA     BYTE      P1M1
      00000092H   SFRSYM    DATA     BYTE      P1M0
      00000093H   SFRSYM    DATA     BYTE      P0M1

      00FF6938H   BLOCK     CODE     ---       LVL=0
      00000C2CH   SYMBOL    EDATA    INT       adcn
      00000C2EH   SYMBOL    EDATA    INT       speed
      00FF6938H   LINE      CODE     ---       #32
      00FF6940H   LINE      CODE     ---       #34
      00FF6943H   LINE      CODE     ---       #36
      00FF6946H   LINE      CODE     ---       #37
      00FF694EH   LINE      CODE     ---       #39
      00FF6960H   LINE      CODE     ---       #42
      00FF697BH   LINE      CODE     ---       #43
      00FF6994H   LINE      CODE     ---       #44
      00FF6996H   LINE      CODE     ---       #45
      00FF69A6H   LINE      CODE     ---       #48
      00FF69C1H   LINE      CODE     ---       #49
      00FF69DAH   LINE      CODE     ---       #50
      00FF69DAH   LINE      CODE     ---       #51
      00FF69E9H   LINE      CODE     ---       #53
      00FF69ECH   LINE      CODE     ---       #54
      ---         BLOCKEND  ---      ---       LVL=0
L251 LINKER/LOCATER V4.66.93.0                                                        10/06/2023  19:39:35  PAGE 29



      00FF7342H   BLOCK     CODE     ---       LVL=0
      00000B68H   SYMBOL    EDATA    INT       adcn
      00000B6AH   SYMBOL    EDATA    INT       resolution
      00FF734AH   BLOCK     CODE     NEAR LAB  LVL=1
      00000B6CH   SYMBOL    EDATA    WORD      adc_value
      ---         BLOCKEND  ---      ---       LVL=1
      00FF7342H   LINE      CODE     ---       #65
      00FF734AH   LINE      CODE     ---       #66
      00FF734AH   LINE      CODE     ---       #69
      00FF734DH   LINE      CODE     ---       #70
      00FF7355H   LINE      CODE     ---       #72
      00FF7358H   LINE      CODE     ---       #73
      00FF735DH   LINE      CODE     ---       #74
      00FF7360H   LINE      CODE     ---       #76
      00FF7368H   LINE      CODE     ---       #77
      00FF7370H   LINE      CODE     ---       #78
      00FF737EH   LINE      CODE     ---       #80
      00FF7381H   LINE      CODE     ---       #81
      00FF7384H   LINE      CODE     ---       #83
      00FF7397H   LINE      CODE     ---       #86
      00FF7397H   LINE      CODE     ---       #87
      ---         BLOCKEND  ---      ---       LVL=0

      00FF613EH   BLOCK     CODE     ---       LVL=0
      000006ECH   SYMBOL    EDATA    INT       adcn
      000006EEH   SYMBOL    EDATA    INT       resolution
      00FF6146H   BLOCK     CODE     NEAR LAB  LVL=1
      000006F0H   SYMBOL    EDATA    INT       i
      000006F2H   SYMBOL    EDATA    INT       j
      000006F4H   SYMBOL    EDATA    INT       filter_temp
      000006F6H   SYMBOL    EDATA    INT       filter_sum
      000006F8H   SYMBOL    EDATA    ---       filter_buf
      ---         BLOCKEND  ---      ---       LVL=1
      00FF613EH   LINE      CODE     ---       #89
      00FF6146H   LINE      CODE     ---       #91
      00FF614CH   LINE      CODE     ---       #93
      00FF6154H   LINE      CODE     ---       #94
      00FF6170H   LINE      CODE     ---       #95
      00FF618AH   LINE      CODE     ---       #97
      00FF6193H   LINE      CODE     ---       #98
      00FF619BH   LINE      CODE     ---       #99
      00FF61BDH   LINE      CODE     ---       #100
      00FF61D0H   LINE      CODE     ---       #101
      00FF61EEH   LINE      CODE     ---       #102
      00FF6201H   LINE      CODE     ---       #103
      00FF6224H   LINE      CODE     ---       #105
      00FF6241H   LINE      CODE     ---       #106
      00FF627EH   LINE      CODE     ---       #107
      00FF6290H   LINE      CODE     ---       #108
      ---         BLOCKEND  ---      ---       LVL=0

      ---         MODULE    ---      ---       zf_delay
      00FF7953H   PUBLIC    CODE     ---       delay_init
      00FF7A7BH   PUBLIC    CODE     ---       delay_ms
      00000C30H   PUBLIC    EDATA    WORD      zf_delay_ms
      00000C32H   PUBLIC    EDATA    WORD      zf_delay_us
      000000D0H   SFRSYM    DATA     BYTE      PSW
      0000009DH   SFRSYM    DATA     BYTE      IRCBAND
      00000097H   SFRSYM    DATA     BYTE      AUXR2
      000000EFH   SFRSYM    DATA     BYTE      AUXINTIF
      000000FDH   SFRSYM    DATA     BYTE      S4CON
      000000ACH   SFRSYM    DATA     BYTE      S3CON
      0000009AH   SFRSYM    DATA     BYTE      S2CON
      000000B7H   SFRSYM    DATA     BYTE      IPH
L251 LINKER/LOCATER V4.66.93.0                                                        10/06/2023  19:39:35  PAGE 30


      000000CDH   SFRSYM    DATA     BYTE      SPSTAT
      000000DDH   SFRSYM    DATA     BYTE      T4T3M
      000000C1H   SFRSYM    DATA     BYTE      WDT_CONTR
      000000DFH   SFRSYM    DATA     BYTE      IP3
      000000F4H   SFRSYM    DATA     BYTE      USBCON
      000000B5H   SFRSYM    DATA     BYTE      IP2
      000000FFH   SFRSYM    DATA     BYTE      RSTCFG
      000000F9H   SFRSYM    DATA     BYTE      LINICR
      0000008EH   SFRSYM    DATA     BYTE      AUXR
      000000AFH   SFRSYM    DATA     BYTE      IE2
      00000088H   SFRSYM    DATA     BYTE      TCON
      00000098H   SFRSYM    DATA     BYTE      SCON
      000000F1H   SFRSYM    DATA     BYTE      CANICR
      00000087H   SFRSYM    DATA     BYTE      PCON
      000000BCH   SFRSYM    DATA     BYTE      ADC_CONTR
      000000E7H   SFRSYM    DATA     BYTE      CMPCR2
      000000E6H   SFRSYM    DATA     BYTE      CMPCR1
      000000B8H   SFRSYM    DATA     BYTE      IP
      0000008FH   SFRSYM    DATA     BYTE      INTCLKO
      000000EEH   SFRSYM    DATA     BYTE      IP3H
      000000B6H   SFRSYM    DATA     BYTE      IP2H
      000000A8H   SFRSYM    DATA     BYTE      IE
      000000BBH   SFRSYM    DATA     BYTE      P_SW3
      000000BAH   SFRSYM    DATA     BYTE      P_SW2
      000000A2H   SFRSYM    DATA     BYTE      P_SW1
      000000CEH   SFRSYM    DATA     BYTE      SPCTL
      000000F8H   SFRSYM    DATA     BYTE      P7
      000000E8H   SFRSYM    DATA     BYTE      P6
      000000C8H   SFRSYM    DATA     BYTE      P5
      000000C0H   SFRSYM    DATA     BYTE      P4
      000000B0H   SFRSYM    DATA     BYTE      P3
      000000A0H   SFRSYM    DATA     BYTE      P2
      00000090H   SFRSYM    DATA     BYTE      P1
      00000080H   SFRSYM    DATA     BYTE      P0

      00FF7953H   BLOCK     CODE     ---       LVL=0
      00FF7953H   LINE      CODE     ---       #34
      00FF7953H   LINE      CODE     ---       #36
      00FF7962H   LINE      CODE     ---       #37
      00FF7975H   LINE      CODE     ---       #38
      00FF7993H   LINE      CODE     ---       #40
      ---         BLOCKEND  ---      ---       LVL=0

      00FF7A7BH   BLOCK     CODE     ---       LVL=0
      00000C34H   SYMBOL    EDATA    WORD      ms
      00FF7A7FH   BLOCK     CODE     NEAR LAB  LVL=1
      00000C36H   SYMBOL    EDATA    WORD      i
      ---         BLOCKEND  ---      ---       LVL=1
      00FF7A7BH   LINE      CODE     ---       #48
      00FF7A7FH   LINE      CODE     ---       #49
      00FF7A7FH   LINE      CODE     ---       #51
      00FF7A7FH   LINE      CODE     ---       #52
      00FF7A87H   LINE      CODE     ---       #54
      00FF7A9BH   LINE      CODE     ---       #55
      00FF7AAFH   LINE      CODE     ---       #56
      ---         BLOCKEND  ---      ---       LVL=0
      00000B6EH   SYMBOL    EDATA    DWORD     us
      00000B72H   SYMBOL    EDATA    WORD      i

      ---         MODULE    ---      ---       zf_eeprom
      00000989H   PUBLIC    EDATA    BYTE      ?iap_read_bytes?BYTE
      00000993H   PUBLIC    EDATA    BYTE      ?iap_write_bytes?BYTE
      000000D0H   SFRSYM    DATA     BYTE      PSW
      0000009DH   SFRSYM    DATA     BYTE      IRCBAND
      000000D0H.5 SFRSYM    DATA     BIT       F0
L251 LINKER/LOCATER V4.66.93.0                                                        10/06/2023  19:39:35  PAGE 31


      00000097H   SFRSYM    DATA     BYTE      AUXR2
      000000C6H   SFRSYM    DATA     BYTE      IAP_TRIG
      000000EFH   SFRSYM    DATA     BYTE      AUXINTIF
      000000FDH   SFRSYM    DATA     BYTE      S4CON
      000000ACH   SFRSYM    DATA     BYTE      S3CON
      0000009AH   SFRSYM    DATA     BYTE      S2CON
      000000B7H   SFRSYM    DATA     BYTE      IPH
      000000CDH   SFRSYM    DATA     BYTE      SPSTAT
      000000DDH   SFRSYM    DATA     BYTE      T4T3M
      000000C1H   SFRSYM    DATA     BYTE      WDT_CONTR
      000000C2H   SFRSYM    DATA     BYTE      IAP_DATA
      000000DFH   SFRSYM    DATA     BYTE      IP3
      000000F4H   SFRSYM    DATA     BYTE      USBCON
      000000B5H   SFRSYM    DATA     BYTE      IP2
      000000FFH   SFRSYM    DATA     BYTE      RSTCFG
      000000C7H   SFRSYM    DATA     BYTE      IAP_CONTR
      000000F9H   SFRSYM    DATA     BYTE      LINICR
      0000008EH   SFRSYM    DATA     BYTE      AUXR
      000000AFH   SFRSYM    DATA     BYTE      IE2
      00000088H   SFRSYM    DATA     BYTE      TCON
      00000098H   SFRSYM    DATA     BYTE      SCON
      000000F5H   SFRSYM    DATA     BYTE      IAP_TPS
      000000F1H   SFRSYM    DATA     BYTE      CANICR
      00000087H   SFRSYM    DATA     BYTE      PCON
      000000BCH   SFRSYM    DATA     BYTE      ADC_CONTR
      000000E7H   SFRSYM    DATA     BYTE      CMPCR2
      000000E6H   SFRSYM    DATA     BYTE      CMPCR1
      000000C4H   SFRSYM    DATA     BYTE      IAP_ADDRL
      000000C3H   SFRSYM    DATA     BYTE      IAP_ADDRH
      000000F6H   SFRSYM    DATA     BYTE      IAP_ADDRE
      000000B8H   SFRSYM    DATA     BYTE      IP
      0000008FH   SFRSYM    DATA     BYTE      INTCLKO
      000000EEH   SFRSYM    DATA     BYTE      IP3H
      000000B6H   SFRSYM    DATA     BYTE      IP2H
      000000C5H   SFRSYM    DATA     BYTE      IAP_CMD
      000000A8H   SFRSYM    DATA     BYTE      IE
      000000BBH   SFRSYM    DATA     BYTE      P_SW3
      000000BAH   SFRSYM    DATA     BYTE      P_SW2
      000000A2H   SFRSYM    DATA     BYTE      P_SW1
      000000CEH   SFRSYM    DATA     BYTE      SPCTL
      000000F8H   SFRSYM    DATA     BYTE      P7
      000000A8H.7 SFRSYM    DATA     BIT       EA
      000000E8H   SFRSYM    DATA     BYTE      P6
      000000C8H   SFRSYM    DATA     BYTE      P5
      000000C0H   SFRSYM    DATA     BYTE      P4
      000000B0H   SFRSYM    DATA     BYTE      P3
      000000A0H   SFRSYM    DATA     BYTE      P2
      00000090H   SFRSYM    DATA     BYTE      P1
      00000080H   SFRSYM    DATA     BYTE      P0
      00000D06H   SYMBOL    EDATA    BYTE      write_time
      00000989H   SYMBOL    EDATA    DWORD     addr
      0000098DH   SYMBOL    EDATA    ---       buf
      00000991H   SYMBOL    EDATA    WORD      len
      00000993H   SYMBOL    EDATA    DWORD     addr
      00000997H   SYMBOL    EDATA    ---       buf
      0000099BH   SYMBOL    EDATA    WORD      len
      00000C38H   SYMBOL    EDATA    DWORD     addr

      ---         MODULE    ---      ---       zf_exti
      000000D0H   SFRSYM    DATA     BYTE      PSW
      0000009DH   SFRSYM    DATA     BYTE      IRCBAND
      00000097H   SFRSYM    DATA     BYTE      AUXR2
      000000EFH   SFRSYM    DATA     BYTE      AUXINTIF
      000000FDH   SFRSYM    DATA     BYTE      S4CON
      000000ACH   SFRSYM    DATA     BYTE      S3CON
L251 LINKER/LOCATER V4.66.93.0                                                        10/06/2023  19:39:35  PAGE 32


      0000009AH   SFRSYM    DATA     BYTE      S2CON
      000000B7H   SFRSYM    DATA     BYTE      IPH
      000000CDH   SFRSYM    DATA     BYTE      SPSTAT
      000000DDH   SFRSYM    DATA     BYTE      T4T3M
      000000C1H   SFRSYM    DATA     BYTE      WDT_CONTR
      00000088H.2 SFRSYM    DATA     BIT       IT1
      000000A8H.2 SFRSYM    DATA     BIT       EX1
      00000088H.0 SFRSYM    DATA     BIT       IT0
      000000A8H.0 SFRSYM    DATA     BIT       EX0
      000000DFH   SFRSYM    DATA     BYTE      IP3
      000000F4H   SFRSYM    DATA     BYTE      USBCON
      000000B5H   SFRSYM    DATA     BYTE      IP2
      000000FFH   SFRSYM    DATA     BYTE      RSTCFG
      000000F9H   SFRSYM    DATA     BYTE      LINICR
      0000008EH   SFRSYM    DATA     BYTE      AUXR
      000000AFH   SFRSYM    DATA     BYTE      IE2
      00000088H   SFRSYM    DATA     BYTE      TCON
      00000098H   SFRSYM    DATA     BYTE      SCON
      000000F1H   SFRSYM    DATA     BYTE      CANICR
      00000087H   SFRSYM    DATA     BYTE      PCON
      000000BCH   SFRSYM    DATA     BYTE      ADC_CONTR
      000000E7H   SFRSYM    DATA     BYTE      CMPCR2
      000000E6H   SFRSYM    DATA     BYTE      CMPCR1
      000000B8H   SFRSYM    DATA     BYTE      IP
      0000008FH   SFRSYM    DATA     BYTE      INTCLKO
      000000EEH   SFRSYM    DATA     BYTE      IP3H
      000000B6H   SFRSYM    DATA     BYTE      IP2H
      000000A8H   SFRSYM    DATA     BYTE      IE
      000000BBH   SFRSYM    DATA     BYTE      P_SW3
      000000BAH   SFRSYM    DATA     BYTE      P_SW2
      000000A2H   SFRSYM    DATA     BYTE      P_SW1
      000000CEH   SFRSYM    DATA     BYTE      SPCTL
      000000F8H   SFRSYM    DATA     BYTE      P7
      000000E8H   SFRSYM    DATA     BYTE      P6
      000000C8H   SFRSYM    DATA     BYTE      P5
      000000C0H   SFRSYM    DATA     BYTE      P4
      000000B0H   SFRSYM    DATA     BYTE      P3
      000000A0H   SFRSYM    DATA     BYTE      P2
      00000090H   SFRSYM    DATA     BYTE      P1
      00000080H   SFRSYM    DATA     BYTE      P0
      00000C3CH   SYMBOL    EDATA    INT       int_n
      00000C3EH   SYMBOL    EDATA    INT       mode

      ---         MODULE    ---      ---       zf_gpio
      00FF4460H   PUBLIC    CODE     ---       gpio_mode
      00000094H   SFRSYM    DATA     BYTE      P0M0
      000000D0H   SFRSYM    DATA     BYTE      PSW
      0000009DH   SFRSYM    DATA     BYTE      IRCBAND
      00000097H   SFRSYM    DATA     BYTE      AUXR2
      000000EFH   SFRSYM    DATA     BYTE      AUXINTIF
      000000FDH   SFRSYM    DATA     BYTE      S4CON
      000000ACH   SFRSYM    DATA     BYTE      S3CON
      0000009AH   SFRSYM    DATA     BYTE      S2CON
      000000B7H   SFRSYM    DATA     BYTE      IPH
      000000CDH   SFRSYM    DATA     BYTE      SPSTAT
      000000DDH   SFRSYM    DATA     BYTE      T4T3M
      000000C1H   SFRSYM    DATA     BYTE      WDT_CONTR
      000000DFH   SFRSYM    DATA     BYTE      IP3
      000000F4H   SFRSYM    DATA     BYTE      USBCON
      000000B5H   SFRSYM    DATA     BYTE      IP2
      000000FFH   SFRSYM    DATA     BYTE      RSTCFG
      000000F9H   SFRSYM    DATA     BYTE      LINICR
      0000008EH   SFRSYM    DATA     BYTE      AUXR
      000000AFH   SFRSYM    DATA     BYTE      IE2
      00000088H   SFRSYM    DATA     BYTE      TCON
L251 LINKER/LOCATER V4.66.93.0                                                        10/06/2023  19:39:35  PAGE 33


      00000098H   SFRSYM    DATA     BYTE      SCON
      000000F1H   SFRSYM    DATA     BYTE      CANICR
      00000087H   SFRSYM    DATA     BYTE      PCON
      000000BCH   SFRSYM    DATA     BYTE      ADC_CONTR
      000000E7H   SFRSYM    DATA     BYTE      CMPCR2
      000000E6H   SFRSYM    DATA     BYTE      CMPCR1
      000000B8H   SFRSYM    DATA     BYTE      IP
      0000008FH   SFRSYM    DATA     BYTE      INTCLKO
      000000EEH   SFRSYM    DATA     BYTE      IP3H
      000000B6H   SFRSYM    DATA     BYTE      IP2H
      000000A8H   SFRSYM    DATA     BYTE      IE
      000000BBH   SFRSYM    DATA     BYTE      P_SW3
      000000BAH   SFRSYM    DATA     BYTE      P_SW2
      000000A2H   SFRSYM    DATA     BYTE      P_SW1
      000000CEH   SFRSYM    DATA     BYTE      SPCTL
      000000F8H   SFRSYM    DATA     BYTE      P7
      000000E1H   SFRSYM    DATA     BYTE      P7M1
      000000E8H   SFRSYM    DATA     BYTE      P6
      000000C8H   SFRSYM    DATA     BYTE      P5
      000000CBH   SFRSYM    DATA     BYTE      P6M1
      000000E2H   SFRSYM    DATA     BYTE      P7M0
      000000C0H   SFRSYM    DATA     BYTE      P4
      000000C9H   SFRSYM    DATA     BYTE      P5M1
      000000CCH   SFRSYM    DATA     BYTE      P6M0
      000000B0H   SFRSYM    DATA     BYTE      P3
      000000B3H   SFRSYM    DATA     BYTE      P4M1
      000000CAH   SFRSYM    DATA     BYTE      P5M0
      000000A0H   SFRSYM    DATA     BYTE      P2
      000000B1H   SFRSYM    DATA     BYTE      P3M1
      000000B4H   SFRSYM    DATA     BYTE      P4M0
      00000090H   SFRSYM    DATA     BYTE      P1
      00000095H   SFRSYM    DATA     BYTE      P2M1
      000000B2H   SFRSYM    DATA     BYTE      P3M0
      00000080H   SFRSYM    DATA     BYTE      P0
      00000091H   SFRSYM    DATA     BYTE      P1M1
      00000096H   SFRSYM    DATA     BYTE      P2M0
      00000092H   SFRSYM    DATA     BYTE      P1M0
      00000093H   SFRSYM    DATA     BYTE      P0M1
      00000C40H   SYMBOL    EDATA    INT       pin
      00000C42H   SYMBOL    EDATA    INT       pull

      00FF4460H   BLOCK     CODE     ---       LVL=0
      00000C44H   SYMBOL    EDATA    INT       pin
      00000C46H   SYMBOL    EDATA    INT       mode
      00FF4460H   LINE      CODE     ---       #54
      00FF4468H   LINE      CODE     ---       #56
      00FF4475H   LINE      CODE     ---       #58
      00FF4485H   LINE      CODE     ---       #60
      00FF44A0H   LINE      CODE     ---       #61
      00FF44BBH   LINE      CODE     ---       #62
      00FF44BBH   LINE      CODE     ---       #63
      00FF44CDH   LINE      CODE     ---       #65
      00FF44E8H   LINE      CODE     ---       #66
      00FF4503H   LINE      CODE     ---       #67
      00FF4503H   LINE      CODE     ---       #68
      00FF4515H   LINE      CODE     ---       #70
      00FF4530H   LINE      CODE     ---       #71
      00FF454BH   LINE      CODE     ---       #72
      00FF454BH   LINE      CODE     ---       #74
      00FF455DH   LINE      CODE     ---       #76
      00FF4578H   LINE      CODE     ---       #77
      00FF4593H   LINE      CODE     ---       #78
      00FF4593H   LINE      CODE     ---       #79
      00FF45A5H   LINE      CODE     ---       #81
      00FF45C0H   LINE      CODE     ---       #82
L251 LINKER/LOCATER V4.66.93.0                                                        10/06/2023  19:39:35  PAGE 34


      00FF45DBH   LINE      CODE     ---       #83
      00FF45DBH   LINE      CODE     ---       #84
      00FF45EDH   LINE      CODE     ---       #86
      00FF4608H   LINE      CODE     ---       #87
      00FF4623H   LINE      CODE     ---       #88
      00FF4623H   LINE      CODE     ---       #89
      00FF4635H   LINE      CODE     ---       #91
      00FF4650H   LINE      CODE     ---       #92
      00FF466BH   LINE      CODE     ---       #93
      00FF466BH   LINE      CODE     ---       #94
      00FF4680H   LINE      CODE     ---       #96
      00FF469BH   LINE      CODE     ---       #97
      00FF46B6H   LINE      CODE     ---       #98
      00FF46B9H   LINE      CODE     ---       #100
      00FF46C8H   LINE      CODE     ---       #102
      00FF46D8H   LINE      CODE     ---       #104
      00FF46F3H   LINE      CODE     ---       #105
      00FF470CH   LINE      CODE     ---       #106
      00FF470CH   LINE      CODE     ---       #107
      00FF471EH   LINE      CODE     ---       #109
      00FF4739H   LINE      CODE     ---       #110
      00FF4752H   LINE      CODE     ---       #111
      00FF4752H   LINE      CODE     ---       #112
      00FF4764H   LINE      CODE     ---       #114
      00FF477FH   LINE      CODE     ---       #115
      00FF4798H   LINE      CODE     ---       #116
      00FF4798H   LINE      CODE     ---       #118
      00FF47AAH   LINE      CODE     ---       #120
      00FF47C5H   LINE      CODE     ---       #121
      00FF47DEH   LINE      CODE     ---       #122
      00FF47DEH   LINE      CODE     ---       #123
      00FF47F0H   LINE      CODE     ---       #125
      00FF480BH   LINE      CODE     ---       #126
      00FF4824H   LINE      CODE     ---       #127
      00FF4824H   LINE      CODE     ---       #128
      00FF4836H   LINE      CODE     ---       #130
      00FF4851H   LINE      CODE     ---       #131
      00FF486AH   LINE      CODE     ---       #132
      00FF486AH   LINE      CODE     ---       #133
      00FF487CH   LINE      CODE     ---       #135
      00FF4897H   LINE      CODE     ---       #136
      00FF48B0H   LINE      CODE     ---       #137
      00FF48B0H   LINE      CODE     ---       #138
      00FF48C5H   LINE      CODE     ---       #140
      00FF48E0H   LINE      CODE     ---       #141
      00FF48F9H   LINE      CODE     ---       #142
      00FF48FCH   LINE      CODE     ---       #145
      00FF490BH   LINE      CODE     ---       #147
      00FF491BH   LINE      CODE     ---       #149
      00FF4934H   LINE      CODE     ---       #150
      00FF494FH   LINE      CODE     ---       #151
      00FF494FH   LINE      CODE     ---       #152
      00FF4961H   LINE      CODE     ---       #154
      00FF497AH   LINE      CODE     ---       #155
      00FF4995H   LINE      CODE     ---       #156
      00FF4995H   LINE      CODE     ---       #157
      00FF49A7H   LINE      CODE     ---       #159
      00FF49C0H   LINE      CODE     ---       #160
      00FF49DBH   LINE      CODE     ---       #161
      00FF49DBH   LINE      CODE     ---       #163
      00FF49EDH   LINE      CODE     ---       #165
      00FF4A06H   LINE      CODE     ---       #166
      00FF4A21H   LINE      CODE     ---       #167
      00FF4A21H   LINE      CODE     ---       #168
      00FF4A33H   LINE      CODE     ---       #170
L251 LINKER/LOCATER V4.66.93.0                                                        10/06/2023  19:39:35  PAGE 35


      00FF4A4CH   LINE      CODE     ---       #171
      00FF4A67H   LINE      CODE     ---       #172
      00FF4A67H   LINE      CODE     ---       #173
      00FF4A79H   LINE      CODE     ---       #175
      00FF4A92H   LINE      CODE     ---       #176
      00FF4AADH   LINE      CODE     ---       #177
      00FF4AADH   LINE      CODE     ---       #178
      00FF4ABFH   LINE      CODE     ---       #180
      00FF4AD8H   LINE      CODE     ---       #181
      00FF4AF3H   LINE      CODE     ---       #182
      00FF4AF3H   LINE      CODE     ---       #183
      00FF4B08H   LINE      CODE     ---       #185
      00FF4B21H   LINE      CODE     ---       #186
      00FF4B3CH   LINE      CODE     ---       #187
      00FF4B3FH   LINE      CODE     ---       #189
      00FF4B4EH   LINE      CODE     ---       #191
      00FF4B5EH   LINE      CODE     ---       #193
      00FF4B77H   LINE      CODE     ---       #194
      00FF4B90H   LINE      CODE     ---       #195
      00FF4B90H   LINE      CODE     ---       #196
      00FF4BA2H   LINE      CODE     ---       #198
      00FF4BBBH   LINE      CODE     ---       #199
      00FF4BD4H   LINE      CODE     ---       #200
      00FF4BD4H   LINE      CODE     ---       #201
      00FF4BE6H   LINE      CODE     ---       #203
      00FF4BFFH   LINE      CODE     ---       #204
      00FF4C18H   LINE      CODE     ---       #205
      00FF4C18H   LINE      CODE     ---       #207
      00FF4C2AH   LINE      CODE     ---       #209
      00FF4C43H   LINE      CODE     ---       #210
      00FF4C5CH   LINE      CODE     ---       #211
      00FF4C5CH   LINE      CODE     ---       #212
      00FF4C6EH   LINE      CODE     ---       #214
      00FF4C87H   LINE      CODE     ---       #215
      00FF4CA0H   LINE      CODE     ---       #216
      00FF4CA0H   LINE      CODE     ---       #217
      00FF4CB2H   LINE      CODE     ---       #219
      00FF4CCBH   LINE      CODE     ---       #220
      00FF4CE4H   LINE      CODE     ---       #221
      00FF4CE4H   LINE      CODE     ---       #222
      00FF4CF6H   LINE      CODE     ---       #224
      00FF4D0FH   LINE      CODE     ---       #225
      00FF4D28H   LINE      CODE     ---       #226
      00FF4D28H   LINE      CODE     ---       #227
      00FF4D3AH   LINE      CODE     ---       #229
      00FF4D53H   LINE      CODE     ---       #230
      00FF4D6CH   LINE      CODE     ---       #231
      00FF4D6CH   LINE      CODE     ---       #233
      ---         BLOCKEND  ---      ---       LVL=0

      ---         MODULE    ---      ---       zf_nvic
      000000D0H   SFRSYM    DATA     BYTE      PSW
      0000009DH   SFRSYM    DATA     BYTE      IRCBAND
      00000097H   SFRSYM    DATA     BYTE      AUXR2
      000000EFH   SFRSYM    DATA     BYTE      AUXINTIF
      000000FDH   SFRSYM    DATA     BYTE      S4CON
      000000ACH   SFRSYM    DATA     BYTE      S3CON
      0000009AH   SFRSYM    DATA     BYTE      S2CON
      000000B7H   SFRSYM    DATA     BYTE      IPH
      000000CDH   SFRSYM    DATA     BYTE      SPSTAT
      000000DDH   SFRSYM    DATA     BYTE      T4T3M
      000000C1H   SFRSYM    DATA     BYTE      WDT_CONTR
      000000DFH   SFRSYM    DATA     BYTE      IP3
      000000F4H   SFRSYM    DATA     BYTE      USBCON
      000000B5H   SFRSYM    DATA     BYTE      IP2
L251 LINKER/LOCATER V4.66.93.0                                                        10/06/2023  19:39:35  PAGE 36


      000000FFH   SFRSYM    DATA     BYTE      RSTCFG
      000000F9H   SFRSYM    DATA     BYTE      LINICR
      0000008EH   SFRSYM    DATA     BYTE      AUXR
      000000AFH   SFRSYM    DATA     BYTE      IE2
      00000088H   SFRSYM    DATA     BYTE      TCON
      00000098H   SFRSYM    DATA     BYTE      SCON
      000000F1H   SFRSYM    DATA     BYTE      CANICR
      00000087H   SFRSYM    DATA     BYTE      PCON
      000000BCH   SFRSYM    DATA     BYTE      ADC_CONTR
      000000E7H   SFRSYM    DATA     BYTE      CMPCR2
      000000E6H   SFRSYM    DATA     BYTE      CMPCR1
      000000B8H   SFRSYM    DATA     BYTE      IP
      0000008FH   SFRSYM    DATA     BYTE      INTCLKO
      000000EEH   SFRSYM    DATA     BYTE      IP3H
      000000B6H   SFRSYM    DATA     BYTE      IP2H
      000000A8H   SFRSYM    DATA     BYTE      IE
      000000BBH   SFRSYM    DATA     BYTE      P_SW3
      000000BAH   SFRSYM    DATA     BYTE      P_SW2
      000000A2H   SFRSYM    DATA     BYTE      P_SW1
      000000CEH   SFRSYM    DATA     BYTE      SPCTL
      000000F8H   SFRSYM    DATA     BYTE      P7
      000000E8H   SFRSYM    DATA     BYTE      P6
      000000C8H   SFRSYM    DATA     BYTE      P5
      000000C0H   SFRSYM    DATA     BYTE      P4
      000000B0H   SFRSYM    DATA     BYTE      P3
      000000A0H   SFRSYM    DATA     BYTE      P2
      00000090H   SFRSYM    DATA     BYTE      P1
      00000080H   SFRSYM    DATA     BYTE      P0
      00000C84H   SYMBOL    EDATA    INT       irqn
      00000C86H   SYMBOL    EDATA    BYTE      priority

      ---         MODULE    ---      ---       zf_pwm
      00FF63C9H   PUBLIC    CODE     ---       pwm_duty
      00FF5147H   PUBLIC    CODE     ---       pwm_set_gpio
      00FF4D6DH   PUBLIC    CODE     ---       pwm_init
      00FF80F1H   PUBLIC    HCONST   ---       PWM_CCR_ADDR
      00FF8111H   PUBLIC    HCONST   ---       PWM_ARR_ADDR
      00FF8119H   PUBLIC    HCONST   ---       PWM_CCER_ADDR
      00FF8129H   PUBLIC    HCONST   ---       PWM_CCMR_ADDR
      00000740H   PUBLIC    EDATA    BYTE      ?pwm_init?BYTE
      00000754H   PUBLIC    EDATA    BYTE      ?pwm_freq?BYTE
      000000D0H   SFRSYM    DATA     BYTE      PSW
      0000009DH   SFRSYM    DATA     BYTE      IRCBAND
      00000097H   SFRSYM    DATA     BYTE      AUXR2
      000000EFH   SFRSYM    DATA     BYTE      AUXINTIF
      000000FDH   SFRSYM    DATA     BYTE      S4CON
      000000ACH   SFRSYM    DATA     BYTE      S3CON
      0000009AH   SFRSYM    DATA     BYTE      S2CON
      000000B7H   SFRSYM    DATA     BYTE      IPH
      000000CDH   SFRSYM    DATA     BYTE      SPSTAT
      000000DDH   SFRSYM    DATA     BYTE      T4T3M
      000000C1H   SFRSYM    DATA     BYTE      WDT_CONTR
      000000DFH   SFRSYM    DATA     BYTE      IP3
      000000F4H   SFRSYM    DATA     BYTE      USBCON
      000000B5H   SFRSYM    DATA     BYTE      IP2
      000000FFH   SFRSYM    DATA     BYTE      RSTCFG
      000000F9H   SFRSYM    DATA     BYTE      LINICR
      0000008EH   SFRSYM    DATA     BYTE      AUXR
      000000AFH   SFRSYM    DATA     BYTE      IE2
      00000088H   SFRSYM    DATA     BYTE      TCON
      00000098H   SFRSYM    DATA     BYTE      SCON
      000000F1H   SFRSYM    DATA     BYTE      CANICR
      00000087H   SFRSYM    DATA     BYTE      PCON
      000000BCH   SFRSYM    DATA     BYTE      ADC_CONTR
      000000E7H   SFRSYM    DATA     BYTE      CMPCR2
L251 LINKER/LOCATER V4.66.93.0                                                        10/06/2023  19:39:35  PAGE 37


      000000E6H   SFRSYM    DATA     BYTE      CMPCR1
      000000B8H   SFRSYM    DATA     BYTE      IP
      0000008FH   SFRSYM    DATA     BYTE      INTCLKO
      000000EEH   SFRSYM    DATA     BYTE      IP3H
      000000B6H   SFRSYM    DATA     BYTE      IP2H
      000000A8H   SFRSYM    DATA     BYTE      IE
      000000BBH   SFRSYM    DATA     BYTE      P_SW3
      000000BAH   SFRSYM    DATA     BYTE      P_SW2
      000000A2H   SFRSYM    DATA     BYTE      P_SW1
      000000CEH   SFRSYM    DATA     BYTE      SPCTL
      000000F8H   SFRSYM    DATA     BYTE      P7
      000000E8H   SFRSYM    DATA     BYTE      P6
      000000C8H   SFRSYM    DATA     BYTE      P5
      000000C0H   SFRSYM    DATA     BYTE      P4
      000000B0H   SFRSYM    DATA     BYTE      P3
      000000A0H   SFRSYM    DATA     BYTE      P2
      00000090H   SFRSYM    DATA     BYTE      P1
      00000080H   SFRSYM    DATA     BYTE      P0

      00FF5147H   BLOCK     CODE     ---       LVL=0
      00000CBFH   SYMBOL    EDATA    INT       pwmch
      00FF5147H   LINE      CODE     ---       #49
      00FF514BH   LINE      CODE     ---       #51
      00FF52C0H   LINE      CODE     ---       #53
      00FF52C0H   LINE      CODE     ---       #55
      00FF52CBH   LINE      CODE     ---       #56
      00FF52CEH   LINE      CODE     ---       #58
      00FF52CEH   LINE      CODE     ---       #60
      00FF52D9H   LINE      CODE     ---       #61
      00FF52DCH   LINE      CODE     ---       #63
      00FF52DCH   LINE      CODE     ---       #65
      00FF52E7H   LINE      CODE     ---       #66
      00FF52EAH   LINE      CODE     ---       #68
      00FF52EAH   LINE      CODE     ---       #70
      00FF52F5H   LINE      CODE     ---       #71
      00FF52F8H   LINE      CODE     ---       #73
      00FF52F8H   LINE      CODE     ---       #75
      00FF5303H   LINE      CODE     ---       #76
      00FF5306H   LINE      CODE     ---       #78
      00FF5306H   LINE      CODE     ---       #80
      00FF5311H   LINE      CODE     ---       #81
      00FF5314H   LINE      CODE     ---       #84
      00FF5314H   LINE      CODE     ---       #86
      00FF531FH   LINE      CODE     ---       #87
      00FF5322H   LINE      CODE     ---       #89
      00FF5322H   LINE      CODE     ---       #91
      00FF532DH   LINE      CODE     ---       #92
      00FF5330H   LINE      CODE     ---       #94
      00FF5330H   LINE      CODE     ---       #96
      00FF533BH   LINE      CODE     ---       #97
      00FF533EH   LINE      CODE     ---       #99
      00FF533EH   LINE      CODE     ---       #101
      00FF5349H   LINE      CODE     ---       #102
      00FF534CH   LINE      CODE     ---       #104
      00FF534CH   LINE      CODE     ---       #106
      00FF5357H   LINE      CODE     ---       #107
      00FF535AH   LINE      CODE     ---       #109
      00FF535AH   LINE      CODE     ---       #111
      00FF5365H   LINE      CODE     ---       #112
      00FF5368H   LINE      CODE     ---       #115
      00FF5368H   LINE      CODE     ---       #117
      00FF5373H   LINE      CODE     ---       #118
      00FF5376H   LINE      CODE     ---       #120
      00FF5376H   LINE      CODE     ---       #122
      00FF5381H   LINE      CODE     ---       #123
L251 LINKER/LOCATER V4.66.93.0                                                        10/06/2023  19:39:35  PAGE 38


      00FF5384H   LINE      CODE     ---       #125
      00FF5384H   LINE      CODE     ---       #127
      00FF538FH   LINE      CODE     ---       #128
      00FF5392H   LINE      CODE     ---       #130
      00FF5392H   LINE      CODE     ---       #132
      00FF539DH   LINE      CODE     ---       #133
      00FF53A0H   LINE      CODE     ---       #135
      00FF53A0H   LINE      CODE     ---       #137
      00FF53ABH   LINE      CODE     ---       #138
      00FF53AEH   LINE      CODE     ---       #140
      00FF53AEH   LINE      CODE     ---       #142
      00FF53B9H   LINE      CODE     ---       #143
      00FF53BCH   LINE      CODE     ---       #147
      00FF53BCH   LINE      CODE     ---       #149
      00FF53C7H   LINE      CODE     ---       #150
      00FF53CAH   LINE      CODE     ---       #152
      00FF53CAH   LINE      CODE     ---       #154
      00FF53D5H   LINE      CODE     ---       #155
      00FF53D8H   LINE      CODE     ---       #157
      00FF53D8H   LINE      CODE     ---       #159
      00FF53E3H   LINE      CODE     ---       #160
      00FF53E6H   LINE      CODE     ---       #162
      00FF53E6H   LINE      CODE     ---       #164
      00FF53F1H   LINE      CODE     ---       #165
      00FF53F4H   LINE      CODE     ---       #167
      00FF53F4H   LINE      CODE     ---       #169
      00FF53FFH   LINE      CODE     ---       #170
      00FF5402H   LINE      CODE     ---       #172
      00FF5402H   LINE      CODE     ---       #174
      00FF540DH   LINE      CODE     ---       #175
      00FF5410H   LINE      CODE     ---       #177
      00FF5410H   LINE      CODE     ---       #179
      00FF541BH   LINE      CODE     ---       #180
      00FF541EH   LINE      CODE     ---       #182
      00FF541EH   LINE      CODE     ---       #184
      00FF5429H   LINE      CODE     ---       #185
      00FF542CH   LINE      CODE     ---       #189
      00FF542CH   LINE      CODE     ---       #191
      00FF5437H   LINE      CODE     ---       #192
      00FF543AH   LINE      CODE     ---       #194
      00FF543AH   LINE      CODE     ---       #196
      00FF5445H   LINE      CODE     ---       #197
      00FF5448H   LINE      CODE     ---       #199
      00FF5448H   LINE      CODE     ---       #201
      00FF5451H   LINE      CODE     ---       #202
      00FF5454H   LINE      CODE     ---       #204
      00FF5454H   LINE      CODE     ---       #206
      00FF545FH   LINE      CODE     ---       #207
      00FF5462H   LINE      CODE     ---       #210
      00FF5462H   LINE      CODE     ---       #212
      00FF546DH   LINE      CODE     ---       #213
      00FF5470H   LINE      CODE     ---       #215
      00FF5470H   LINE      CODE     ---       #217
      00FF547BH   LINE      CODE     ---       #218
      00FF547EH   LINE      CODE     ---       #220
      00FF547EH   LINE      CODE     ---       #222
      00FF5489H   LINE      CODE     ---       #223
      00FF548BH   LINE      CODE     ---       #225
      00FF548BH   LINE      CODE     ---       #227
      00FF5496H   LINE      CODE     ---       #228
      00FF5498H   LINE      CODE     ---       #232
      00FF5498H   LINE      CODE     ---       #234
      00FF54A3H   LINE      CODE     ---       #235
      00FF54A5H   LINE      CODE     ---       #237
      00FF54A5H   LINE      CODE     ---       #239
L251 LINKER/LOCATER V4.66.93.0                                                        10/06/2023  19:39:35  PAGE 39


      00FF54B0H   LINE      CODE     ---       #240
      00FF54B2H   LINE      CODE     ---       #242
      00FF54B2H   LINE      CODE     ---       #244
      00FF54BDH   LINE      CODE     ---       #245
      00FF54BFH   LINE      CODE     ---       #247
      00FF54BFH   LINE      CODE     ---       #249
      00FF54CAH   LINE      CODE     ---       #250
      00FF54CCH   LINE      CODE     ---       #254
      00FF54CCH   LINE      CODE     ---       #256
      00FF54D7H   LINE      CODE     ---       #257
      00FF54D9H   LINE      CODE     ---       #259
      00FF54D9H   LINE      CODE     ---       #261
      00FF54E4H   LINE      CODE     ---       #262
      00FF54E6H   LINE      CODE     ---       #264
      00FF54E6H   LINE      CODE     ---       #266
      00FF54F1H   LINE      CODE     ---       #267
      00FF54F3H   LINE      CODE     ---       #269
      00FF54F3H   LINE      CODE     ---       #271
      00FF54FEH   LINE      CODE     ---       #272
      00FF54FEH   LINE      CODE     ---       #275
      00FF54FEH   LINE      CODE     ---       #277
      ---         BLOCKEND  ---      ---       LVL=0

      00FF4D6DH   BLOCK     CODE     ---       LVL=0
      00000740H   SYMBOL    EDATA    INT       pwmch
      00000742H   SYMBOL    EDATA    DWORD     freq
      00000746H   SYMBOL    EDATA    DWORD     duty
      00FF4D75H   BLOCK     CODE     NEAR LAB  LVL=1
      0000074AH   SYMBOL    EDATA    DWORD     match_temp
      0000074EH   SYMBOL    EDATA    DWORD     period_temp
      00000752H   SYMBOL    EDATA    WORD      freq_div
      ---         BLOCKEND  ---      ---       LVL=1
      00FF4D6DH   LINE      CODE     ---       #290
      00FF4D75H   LINE      CODE     ---       #291
      00FF4D75H   LINE      CODE     ---       #295
      00FF4D7BH   LINE      CODE     ---       #298
      00FF4D7EH   LINE      CODE     ---       #301
      00FF4D85H   LINE      CODE     ---       #305
      00FF4D98H   LINE      CODE     ---       #306
      00FF4DA7H   LINE      CODE     ---       #307
      00FF4DC2H   LINE      CODE     ---       #309
      00FF4DCCH   LINE      CODE     ---       #311
      00FF4DF3H   LINE      CODE     ---       #312
      00FF4DF5H   LINE      CODE     ---       #315
      00FF4E03H   LINE      CODE     ---       #316
      00FF4E03H   LINE      CODE     ---       #319
      00FF4E12H   LINE      CODE     ---       #322
      00FF4E43H   LINE      CODE     ---       #323
      00FF4E7AH   LINE      CODE     ---       #326
      00FF4ECCH   LINE      CODE     ---       #329
      00FF4EDFH   LINE      CODE     ---       #330
      00FF4EEEH   LINE      CODE     ---       #332
      00FF4EFBH   LINE      CODE     ---       #333
      00FF4F08H   LINE      CODE     ---       #334
      00FF4F0BH   LINE      CODE     ---       #337
      00FF4F49H   LINE      CODE     ---       #338
      00FF4F7CH   LINE      CODE     ---       #341
      00FF4FDCH   LINE      CODE     ---       #345
      00FF4FEFH   LINE      CODE     ---       #346
      00FF4FFEH   LINE      CODE     ---       #348
      00FF500BH   LINE      CODE     ---       #349
      00FF5018H   LINE      CODE     ---       #350
      00FF5018H   LINE      CODE     ---       #353
      00FF504AH   LINE      CODE     ---       #354
      00FF5082H   LINE      CODE     ---       #357
L251 LINKER/LOCATER V4.66.93.0                                                        10/06/2023  19:39:35  PAGE 40


      00FF50B0H   LINE      CODE     ---       #358
      00FF50E4H   LINE      CODE     ---       #361
      00FF5115H   LINE      CODE     ---       #362
      00FF5146H   LINE      CODE     ---       #367
      ---         BLOCKEND  ---      ---       LVL=0

      00FF63C9H   BLOCK     CODE     ---       LVL=0
      0000080DH   SYMBOL    EDATA    INT       pwmch
      0000080FH   SYMBOL    EDATA    DWORD     duty
      00FF63D1H   BLOCK     CODE     NEAR LAB  LVL=1
      00000813H   SYMBOL    EDATA    DWORD     match_temp
      00000817H   SYMBOL    EDATA    DWORD     arr
      ---         BLOCKEND  ---      ---       LVL=1
      00FF63C9H   LINE      CODE     ---       #377
      00FF63D1H   LINE      CODE     ---       #378
      00FF63D1H   LINE      CODE     ---       #380
      00FF643DH   LINE      CODE     ---       #384
      00FF6447H   LINE      CODE     ---       #386
      00FF646EH   LINE      CODE     ---       #387
      00FF6470H   LINE      CODE     ---       #390
      00FF647EH   LINE      CODE     ---       #391
      00FF647EH   LINE      CODE     ---       #396
      00FF64ACH   LINE      CODE     ---       #397
      00FF64E0H   LINE      CODE     ---       #401
      ---         BLOCKEND  ---      ---       LVL=0
      00000754H   SYMBOL    EDATA    INT       pwmch
      00000756H   SYMBOL    EDATA    DWORD     freq
      0000075AH   SYMBOL    EDATA    DWORD     duty
      0000075EH   SYMBOL    EDATA    DWORD     match_temp
      00000762H   SYMBOL    EDATA    DWORD     period_temp
      00000766H   SYMBOL    EDATA    WORD      freq_div

      ---         MODULE    ---      ---       zf_spi
      00FF64E1H   PUBLIC    CODE     ---       spi_init
      00FF7EF1H   PUBLIC    CODE     ---       spi_mosi
      00000B38H   PUBLIC    EDATA    BYTE      ?spi_init?BYTE
      000000CFH   SFRSYM    DATA     BYTE      SPDAT
      000000D0H   SFRSYM    DATA     BYTE      PSW
      0000009DH   SFRSYM    DATA     BYTE      IRCBAND
      00000097H   SFRSYM    DATA     BYTE      AUXR2
      000000EFH   SFRSYM    DATA     BYTE      AUXINTIF
      000000FDH   SFRSYM    DATA     BYTE      S4CON
      000000ACH   SFRSYM    DATA     BYTE      S3CON
      0000009AH   SFRSYM    DATA     BYTE      S2CON
      000000B7H   SFRSYM    DATA     BYTE      IPH
      000000CDH   SFRSYM    DATA     BYTE      SPSTAT
      000000DDH   SFRSYM    DATA     BYTE      T4T3M
      000000C1H   SFRSYM    DATA     BYTE      WDT_CONTR
      000000DFH   SFRSYM    DATA     BYTE      IP3
      000000F4H   SFRSYM    DATA     BYTE      USBCON
      000000B5H   SFRSYM    DATA     BYTE      IP2
      000000FFH   SFRSYM    DATA     BYTE      RSTCFG
      000000F9H   SFRSYM    DATA     BYTE      LINICR
      0000008EH   SFRSYM    DATA     BYTE      AUXR
      000000AFH   SFRSYM    DATA     BYTE      IE2
      00000088H   SFRSYM    DATA     BYTE      TCON
      00000098H   SFRSYM    DATA     BYTE      SCON
      000000F1H   SFRSYM    DATA     BYTE      CANICR
      00000087H   SFRSYM    DATA     BYTE      PCON
      000000BCH   SFRSYM    DATA     BYTE      ADC_CONTR
      000000E7H   SFRSYM    DATA     BYTE      CMPCR2
      000000E6H   SFRSYM    DATA     BYTE      CMPCR1
      000000B8H   SFRSYM    DATA     BYTE      IP
      0000008FH   SFRSYM    DATA     BYTE      INTCLKO
      000000EEH   SFRSYM    DATA     BYTE      IP3H
L251 LINKER/LOCATER V4.66.93.0                                                        10/06/2023  19:39:35  PAGE 41


      000000B6H   SFRSYM    DATA     BYTE      IP2H
      000000A8H   SFRSYM    DATA     BYTE      IE
      000000BBH   SFRSYM    DATA     BYTE      P_SW3
      000000BAH   SFRSYM    DATA     BYTE      P_SW2
      000000A2H   SFRSYM    DATA     BYTE      P_SW1
      000000CEH   SFRSYM    DATA     BYTE      SPCTL
      000000F8H   SFRSYM    DATA     BYTE      P7
      000000E8H   SFRSYM    DATA     BYTE      P6
      000000C8H   SFRSYM    DATA     BYTE      P5
      000000C0H   SFRSYM    DATA     BYTE      P4
      000000B0H   SFRSYM    DATA     BYTE      P3
      000000A0H   SFRSYM    DATA     BYTE      P2
      00000090H   SFRSYM    DATA     BYTE      P1
      00000080H   SFRSYM    DATA     BYTE      P0

      00FF64E1H   BLOCK     CODE     ---       LVL=0
      00000B3EH   SYMBOL    EDATA    INT       spi_n
      00000B40H   SYMBOL    EDATA    BYTE      mode
      00000B41H   SYMBOL    EDATA    INT       mstr
      00000B43H   SYMBOL    EDATA    INT       baud
      00FF64E1H   LINE      CODE     ---       #39
      00FF64E9H   LINE      CODE     ---       #47
      00FF64FBH   LINE      CODE     ---       #50
      00FF64FBH   LINE      CODE     ---       #51
      00FF6504H   LINE      CODE     ---       #52
      00FF650DH   LINE      CODE     ---       #53
      00FF6516H   LINE      CODE     ---       #54
      00FF6518H   LINE      CODE     ---       #55
      00FF6518H   LINE      CODE     ---       #56
      00FF6521H   LINE      CODE     ---       #57
      00FF652AH   LINE      CODE     ---       #58
      00FF6533H   LINE      CODE     ---       #59
      00FF6535H   LINE      CODE     ---       #60
      00FF6535H   LINE      CODE     ---       #61
      00FF653EH   LINE      CODE     ---       #62
      00FF6547H   LINE      CODE     ---       #63
      00FF6550H   LINE      CODE     ---       #64
      00FF6552H   LINE      CODE     ---       #65
      00FF6552H   LINE      CODE     ---       #66
      00FF655BH   LINE      CODE     ---       #67
      00FF6564H   LINE      CODE     ---       #68
      00FF656DH   LINE      CODE     ---       #69
      00FF656DH   LINE      CODE     ---       #70
      00FF656DH   LINE      CODE     ---       #72
      00FF6570H   LINE      CODE     ---       #73
      00FF6586H   LINE      CODE     ---       #75
      00FF6586H   LINE      CODE     ---       #76
      00FF658AH   LINE      CODE     ---       #77
      00FF658CH   LINE      CODE     ---       #78
      00FF658CH   LINE      CODE     ---       #79
      00FF658FH   LINE      CODE     ---       #80
      00FF6591H   LINE      CODE     ---       #81
      00FF6591H   LINE      CODE     ---       #82
      00FF6594H   LINE      CODE     ---       #83
      00FF6596H   LINE      CODE     ---       #84
      00FF6596H   LINE      CODE     ---       #85
      00FF6599H   LINE      CODE     ---       #86
      00FF6599H   LINE      CODE     ---       #87
      00FF6599H   LINE      CODE     ---       #89
      00FF659CH   LINE      CODE     ---       #90
      00FF65ABH   LINE      CODE     ---       #92
      00FF65ABH   LINE      CODE     ---       #94
      00FF65ADH   LINE      CODE     ---       #95
      00FF65ADH   LINE      CODE     ---       #96
      00FF65B0H   LINE      CODE     ---       #97
L251 LINKER/LOCATER V4.66.93.0                                                        10/06/2023  19:39:35  PAGE 42


      00FF65B2H   LINE      CODE     ---       #98
      00FF65B2H   LINE      CODE     ---       #99
      00FF65B5H   LINE      CODE     ---       #100
      00FF65B7H   LINE      CODE     ---       #101
      00FF65B7H   LINE      CODE     ---       #102
      00FF65BAH   LINE      CODE     ---       #103
      00FF65BAH   LINE      CODE     ---       #104
      00FF65BAH   LINE      CODE     ---       #107
      00FF65C2H   LINE      CODE     ---       #109
      00FF65CCH   LINE      CODE     ---       #111
      00FF65CFH   LINE      CODE     ---       #112
      00FF65D2H   LINE      CODE     ---       #113
      00FF65D2H   LINE      CODE     ---       #117
      00FF65D2H   LINE      CODE     ---       #118
      00FF65D5H   LINE      CODE     ---       #119
      ---         BLOCKEND  ---      ---       LVL=0

      00FF7EF1H   BLOCK     CODE     ---       LVL=0
      00000D07H   SYMBOL    EDATA    BYTE      dat
      00FF7EF1H   LINE      CODE     ---       #129
      00FF7EF5H   LINE      CODE     ---       #131
      00FF7EF7H   LINE      CODE     ---       #132
      00FF7EFCH   LINE      CODE     ---       #133
      00FF7F00H   LINE      CODE     ---       #134
      00FF7F02H   LINE      CODE     ---       #135
      ---         BLOCKEND  ---      ---       LVL=0
      00000CC1H   SYMBOL    EDATA    INT       spi_n
      00000D08H   SYMBOL    EDATA    BYTE      mode

      ---         MODULE    ---      ---       zf_tim
      00FF69EDH   PUBLIC    CODE     ---       ctimer_count_read
      00FF66C7H   PUBLIC    CODE     ---       pit_timer_ms
      00FF7442H   PUBLIC    CODE     ---       ctimer_count_init
      00FF71DAH   PUBLIC    CODE     ---       ctimer_count_clean
      000000D0H   SFRSYM    DATA     BYTE      PSW
      0000009DH   SFRSYM    DATA     BYTE      IRCBAND
      00000097H   SFRSYM    DATA     BYTE      AUXR2
      000000EFH   SFRSYM    DATA     BYTE      AUXINTIF
      000000FDH   SFRSYM    DATA     BYTE      S4CON
      000000ACH   SFRSYM    DATA     BYTE      S3CON
      0000009AH   SFRSYM    DATA     BYTE      S2CON
      000000B7H   SFRSYM    DATA     BYTE      IPH
      000000CDH   SFRSYM    DATA     BYTE      SPSTAT
      000000DDH   SFRSYM    DATA     BYTE      T4T3M
      000000C1H   SFRSYM    DATA     BYTE      WDT_CONTR
      00000088H.6 SFRSYM    DATA     BIT       TR1
      00000088H.4 SFRSYM    DATA     BIT       TR0
      000000D3H   SFRSYM    DATA     BYTE      T4L
      000000D5H   SFRSYM    DATA     BYTE      T3L
      000000D7H   SFRSYM    DATA     BYTE      T2L
      0000008BH   SFRSYM    DATA     BYTE      TL1
      0000008AH   SFRSYM    DATA     BYTE      TL0
      000000D2H   SFRSYM    DATA     BYTE      T4H
      000000D4H   SFRSYM    DATA     BYTE      T3H
      000000D6H   SFRSYM    DATA     BYTE      T2H
      0000008DH   SFRSYM    DATA     BYTE      TH1
      0000008CH   SFRSYM    DATA     BYTE      TH0
      000000DFH   SFRSYM    DATA     BYTE      IP3
      000000F4H   SFRSYM    DATA     BYTE      USBCON
      000000B5H   SFRSYM    DATA     BYTE      IP2
      000000FFH   SFRSYM    DATA     BYTE      RSTCFG
      000000A8H.3 SFRSYM    DATA     BIT       ET1
      000000A8H.1 SFRSYM    DATA     BIT       ET0
      000000F9H   SFRSYM    DATA     BYTE      LINICR
      0000008EH   SFRSYM    DATA     BYTE      AUXR
L251 LINKER/LOCATER V4.66.93.0                                                        10/06/2023  19:39:35  PAGE 43


      000000AFH   SFRSYM    DATA     BYTE      IE2
      00000088H   SFRSYM    DATA     BYTE      TCON
      00000089H   SFRSYM    DATA     BYTE      TMOD
      00000098H   SFRSYM    DATA     BYTE      SCON
      000000F1H   SFRSYM    DATA     BYTE      CANICR
      00000087H   SFRSYM    DATA     BYTE      PCON
      000000BCH   SFRSYM    DATA     BYTE      ADC_CONTR
      000000E7H   SFRSYM    DATA     BYTE      CMPCR2
      000000E6H   SFRSYM    DATA     BYTE      CMPCR1
      000000B8H   SFRSYM    DATA     BYTE      IP
      0000008FH   SFRSYM    DATA     BYTE      INTCLKO
      000000EEH   SFRSYM    DATA     BYTE      IP3H
      000000B6H   SFRSYM    DATA     BYTE      IP2H
      000000A8H   SFRSYM    DATA     BYTE      IE
      000000BBH   SFRSYM    DATA     BYTE      P_SW3
      000000BAH   SFRSYM    DATA     BYTE      P_SW2
      000000A2H   SFRSYM    DATA     BYTE      P_SW1
      000000CEH   SFRSYM    DATA     BYTE      SPCTL
      000000F8H   SFRSYM    DATA     BYTE      P7
      000000E8H   SFRSYM    DATA     BYTE      P6
      000000C8H   SFRSYM    DATA     BYTE      P5
      000000C0H   SFRSYM    DATA     BYTE      P4
      000000B0H   SFRSYM    DATA     BYTE      P3
      000000A0H   SFRSYM    DATA     BYTE      P2
      00000090H   SFRSYM    DATA     BYTE      P1
      00000080H   SFRSYM    DATA     BYTE      P0

      00FF7442H   BLOCK     CODE     ---       LVL=0
      00000CC3H   SYMBOL    EDATA    INT       tim_n
      00FF7442H   LINE      CODE     ---       #39
      00FF7446H   LINE      CODE     ---       #42
      00FF745AH   LINE      CODE     ---       #44
      00FF745AH   LINE      CODE     ---       #46
      00FF745DH   LINE      CODE     ---       #47
      00FF7460H   LINE      CODE     ---       #48
      00FF7463H   LINE      CODE     ---       #49
      00FF7466H   LINE      CODE     ---       #50
      00FF7468H   LINE      CODE     ---       #53
      00FF7468H   LINE      CODE     ---       #55
      00FF746BH   LINE      CODE     ---       #56
      00FF746EH   LINE      CODE     ---       #57
      00FF7471H   LINE      CODE     ---       #58
      00FF7474H   LINE      CODE     ---       #59
      00FF7476H   LINE      CODE     ---       #62
      00FF7476H   LINE      CODE     ---       #64
      00FF7479H   LINE      CODE     ---       #65
      00FF747CH   LINE      CODE     ---       #66
      00FF747FH   LINE      CODE     ---       #67
      00FF7481H   LINE      CODE     ---       #70
      00FF7481H   LINE      CODE     ---       #72
      00FF7484H   LINE      CODE     ---       #73
      00FF7487H   LINE      CODE     ---       #74
      00FF748AH   LINE      CODE     ---       #75
      00FF748CH   LINE      CODE     ---       #78
      00FF748CH   LINE      CODE     ---       #80
      00FF748FH   LINE      CODE     ---       #81
      00FF7492H   LINE      CODE     ---       #82
      00FF7495H   LINE      CODE     ---       #83
      00FF7495H   LINE      CODE     ---       #86
      00FF7495H   LINE      CODE     ---       #87
      ---         BLOCKEND  ---      ---       LVL=0

      00FF69EDH   BLOCK     CODE     ---       LVL=0
      00000C48H   SYMBOL    EDATA    INT       tim_n
      00FF69F1H   BLOCK     CODE     NEAR LAB  LVL=1
L251 LINKER/LOCATER V4.66.93.0                                                        10/06/2023  19:39:35  PAGE 44


      00000C4AH   SYMBOL    EDATA    WORD      dat
      ---         BLOCKEND  ---      ---       LVL=1
      00FF69EDH   LINE      CODE     ---       #95
      00FF69F1H   LINE      CODE     ---       #96
      00FF69F1H   LINE      CODE     ---       #97
      00FF69F7H   LINE      CODE     ---       #99
      00FF6A12H   LINE      CODE     ---       #101
      00FF6A12H   LINE      CODE     ---       #103
      00FF6A1EH   LINE      CODE     ---       #104
      00FF6A2CH   LINE      CODE     ---       #105
      00FF6A2EH   LINE      CODE     ---       #107
      00FF6A2EH   LINE      CODE     ---       #109
      00FF6A3AH   LINE      CODE     ---       #110
      00FF6A48H   LINE      CODE     ---       #111
      00FF6A4AH   LINE      CODE     ---       #113
      00FF6A4AH   LINE      CODE     ---       #115
      00FF6A56H   LINE      CODE     ---       #116
      00FF6A64H   LINE      CODE     ---       #117
      00FF6A66H   LINE      CODE     ---       #119
      00FF6A66H   LINE      CODE     ---       #121
      00FF6A72H   LINE      CODE     ---       #122
      00FF6A80H   LINE      CODE     ---       #123
      00FF6A82H   LINE      CODE     ---       #125
      00FF6A82H   LINE      CODE     ---       #127
      00FF6A8EH   LINE      CODE     ---       #128
      00FF6A9CH   LINE      CODE     ---       #129
      00FF6A9CH   LINE      CODE     ---       #132
      00FF6A9CH   LINE      CODE     ---       #133
      00FF6AA0H   LINE      CODE     ---       #134
      ---         BLOCKEND  ---      ---       LVL=0

      00FF71DAH   BLOCK     CODE     ---       LVL=0
      00000CC5H   SYMBOL    EDATA    INT       tim_n
      00FF71DAH   LINE      CODE     ---       #143
      00FF71DEH   LINE      CODE     ---       #145
      00FF71F2H   LINE      CODE     ---       #147
      00FF71F2H   LINE      CODE     ---       #149
      00FF71F5H   LINE      CODE     ---       #150
      00FF71F8H   LINE      CODE     ---       #151
      00FF71FBH   LINE      CODE     ---       #152
      00FF71FEH   LINE      CODE     ---       #153
      00FF7200H   LINE      CODE     ---       #155
      00FF7200H   LINE      CODE     ---       #157
      00FF7203H   LINE      CODE     ---       #158
      00FF7206H   LINE      CODE     ---       #159
      00FF7209H   LINE      CODE     ---       #160
      00FF720CH   LINE      CODE     ---       #161
      00FF720EH   LINE      CODE     ---       #163
      00FF720EH   LINE      CODE     ---       #165
      00FF7211H   LINE      CODE     ---       #166
      00FF7214H   LINE      CODE     ---       #167
      00FF7217H   LINE      CODE     ---       #168
      00FF721AH   LINE      CODE     ---       #169
      00FF721CH   LINE      CODE     ---       #171
      00FF721CH   LINE      CODE     ---       #173
      00FF721FH   LINE      CODE     ---       #174
      00FF7222H   LINE      CODE     ---       #175
      00FF7225H   LINE      CODE     ---       #176
      00FF7228H   LINE      CODE     ---       #177
      00FF722AH   LINE      CODE     ---       #179
      00FF722AH   LINE      CODE     ---       #181
      00FF722DH   LINE      CODE     ---       #182
      00FF7230H   LINE      CODE     ---       #183
      00FF7233H   LINE      CODE     ---       #184
      00FF7236H   LINE      CODE     ---       #185
L251 LINKER/LOCATER V4.66.93.0                                                        10/06/2023  19:39:35  PAGE 45


      00FF7236H   LINE      CODE     ---       #187
      00FF7236H   LINE      CODE     ---       #188
      ---         BLOCKEND  ---      ---       LVL=0

      00FF66C7H   BLOCK     CODE     ---       LVL=0
      00000B74H   SYMBOL    EDATA    INT       tim_n
      00000B76H   SYMBOL    EDATA    WORD      time_ms
      00FF66CFH   BLOCK     CODE     NEAR LAB  LVL=1
      00000B78H   SYMBOL    EDATA    WORD      temp
      ---         BLOCKEND  ---      ---       LVL=1
      00FF66C7H   LINE      CODE     ---       #198
      00FF66CFH   LINE      CODE     ---       #199
      00FF66CFH   LINE      CODE     ---       #201
      00FF66F2H   LINE      CODE     ---       #203
      00FF66FCH   LINE      CODE     ---       #205
      00FF6700H   LINE      CODE     ---       #206
      00FF6706H   LINE      CODE     ---       #207
      00FF6710H   LINE      CODE     ---       #208
      00FF6713H   LINE      CODE     ---       #209
      00FF6716H   LINE      CODE     ---       #210
      00FF6719H   LINE      CODE     ---       #211
      00FF6725H   LINE      CODE     ---       #213
      00FF6729H   LINE      CODE     ---       #214
      00FF672FH   LINE      CODE     ---       #215
      00FF6739H   LINE      CODE     ---       #216
      00FF673CH   LINE      CODE     ---       #217
      00FF673FH   LINE      CODE     ---       #218
      00FF6741H   LINE      CODE     ---       #219
      00FF674DH   LINE      CODE     ---       #221
      00FF6753H   LINE      CODE     ---       #222
      00FF675DH   LINE      CODE     ---       #223
      00FF6760H   LINE      CODE     ---       #224
      00FF6763H   LINE      CODE     ---       #225
      00FF6765H   LINE      CODE     ---       #226
      00FF6771H   LINE      CODE     ---       #228
      00FF6777H   LINE      CODE     ---       #229
      00FF6781H   LINE      CODE     ---       #230
      00FF6784H   LINE      CODE     ---       #231
      00FF6787H   LINE      CODE     ---       #232
      00FF6789H   LINE      CODE     ---       #233
      00FF6795H   LINE      CODE     ---       #235
      00FF679BH   LINE      CODE     ---       #236
      00FF67A5H   LINE      CODE     ---       #237
      00FF67A8H   LINE      CODE     ---       #238
      00FF67ABH   LINE      CODE     ---       #239
      ---         BLOCKEND  ---      ---       LVL=0

      ---         MODULE    ---      ---       zf_uart
      00FF6DB9H   PUBLIC    CODE     ---       uart_putchar
      00FF54FFH   PUBLIC    CODE     ---       uart_init
      00000C0AH   PUBLIC    EDATA    ---       busy
      0000081BH   PUBLIC    EDATA    BYTE      ?uart_init?BYTE
      000000D0H   SFRSYM    DATA     BYTE      PSW
      0000009DH   SFRSYM    DATA     BYTE      IRCBAND
      00000097H   SFRSYM    DATA     BYTE      AUXR2
      000000EFH   SFRSYM    DATA     BYTE      AUXINTIF
      000000FDH   SFRSYM    DATA     BYTE      S4CON
      000000ACH   SFRSYM    DATA     BYTE      S3CON
      0000009AH   SFRSYM    DATA     BYTE      S2CON
      000000FEH   SFRSYM    DATA     BYTE      S4BUF
      000000ADH   SFRSYM    DATA     BYTE      S3BUF
      0000009BH   SFRSYM    DATA     BYTE      S2BUF
      000000B7H   SFRSYM    DATA     BYTE      IPH
      000000CDH   SFRSYM    DATA     BYTE      SPSTAT
      000000DDH   SFRSYM    DATA     BYTE      T4T3M
L251 LINKER/LOCATER V4.66.93.0                                                        10/06/2023  19:39:35  PAGE 46


      000000C1H   SFRSYM    DATA     BYTE      WDT_CONTR
      00000088H.6 SFRSYM    DATA     BIT       TR1
      000000D3H   SFRSYM    DATA     BYTE      T4L
      000000D5H   SFRSYM    DATA     BYTE      T3L
      000000D7H   SFRSYM    DATA     BYTE      T2L
      0000008BH   SFRSYM    DATA     BYTE      TL1
      000000D2H   SFRSYM    DATA     BYTE      T4H
      000000D4H   SFRSYM    DATA     BYTE      T3H
      000000D6H   SFRSYM    DATA     BYTE      T2H
      0000008DH   SFRSYM    DATA     BYTE      TH1
      000000DFH   SFRSYM    DATA     BYTE      IP3
      000000F4H   SFRSYM    DATA     BYTE      USBCON
      000000B5H   SFRSYM    DATA     BYTE      IP2
      000000FFH   SFRSYM    DATA     BYTE      RSTCFG
      000000F9H   SFRSYM    DATA     BYTE      LINICR
      0000008EH   SFRSYM    DATA     BYTE      AUXR
      000000AFH   SFRSYM    DATA     BYTE      IE2
      00000088H   SFRSYM    DATA     BYTE      TCON
      00000089H   SFRSYM    DATA     BYTE      TMOD
      00000098H   SFRSYM    DATA     BYTE      SCON
      000000F1H   SFRSYM    DATA     BYTE      CANICR
      00000087H   SFRSYM    DATA     BYTE      PCON
      00000099H   SFRSYM    DATA     BYTE      SBUF
      000000BCH   SFRSYM    DATA     BYTE      ADC_CONTR
      000000E7H   SFRSYM    DATA     BYTE      CMPCR2
      000000E6H   SFRSYM    DATA     BYTE      CMPCR1
      000000B8H   SFRSYM    DATA     BYTE      IP
      000000A8H.4 SFRSYM    DATA     BIT       ES
      0000008FH   SFRSYM    DATA     BYTE      INTCLKO
      000000EEH   SFRSYM    DATA     BYTE      IP3H
      000000B6H   SFRSYM    DATA     BYTE      IP2H
      000000A8H   SFRSYM    DATA     BYTE      IE
      000000BBH   SFRSYM    DATA     BYTE      P_SW3
      000000BAH   SFRSYM    DATA     BYTE      P_SW2
      000000A2H   SFRSYM    DATA     BYTE      P_SW1
      000000CEH   SFRSYM    DATA     BYTE      SPCTL
      000000F8H   SFRSYM    DATA     BYTE      P7
      000000E8H   SFRSYM    DATA     BYTE      P6
      000000C8H   SFRSYM    DATA     BYTE      P5
      000000C0H   SFRSYM    DATA     BYTE      P4
      000000C9H   SFRSYM    DATA     BYTE      P5M1
      000000B0H   SFRSYM    DATA     BYTE      P3
      000000CAH   SFRSYM    DATA     BYTE      P5M0
      000000A0H   SFRSYM    DATA     BYTE      P2
      00000090H   SFRSYM    DATA     BYTE      P1
      00000080H   SFRSYM    DATA     BYTE      P0

      00FF54FFH   BLOCK     CODE     ---       LVL=0
      0000081BH   SYMBOL    EDATA    INT       uart_n
      0000081DH   SYMBOL    EDATA    INT       uart_rx_pin
      0000081FH   SYMBOL    EDATA    INT       uart_tx_pin
      00000821H   SYMBOL    EDATA    DWORD     baud
      00000825H   SYMBOL    EDATA    INT       tim_n
      00FF550FH   BLOCK     CODE     NEAR LAB  LVL=1
      00000827H   SYMBOL    EDATA    WORD      brt
      ---         BLOCKEND  ---      ---       LVL=1
      00FF54FFH   LINE      CODE     ---       #47
      00FF550FH   LINE      CODE     ---       #48
      00FF550FH   LINE      CODE     ---       #51
      00FF5536H   LINE      CODE     ---       #54
      00FF5558H   LINE      CODE     ---       #56
      00FF5558H   LINE      CODE     ---       #58
      00FF5564H   LINE      CODE     ---       #60
      00FF5567H   LINE      CODE     ---       #61
      00FF556BH   LINE      CODE     ---       #62
L251 LINKER/LOCATER V4.66.93.0                                                        10/06/2023  19:39:35  PAGE 47


      00FF5571H   LINE      CODE     ---       #63
      00FF557BH   LINE      CODE     ---       #64
      00FF557EH   LINE      CODE     ---       #65
      00FF5581H   LINE      CODE     ---       #66
      00FF5586H   LINE      CODE     ---       #67
      00FF5588H   LINE      CODE     ---       #68
      00FF5594H   LINE      CODE     ---       #70
      00FF5597H   LINE      CODE     ---       #71
      00FF559DH   LINE      CODE     ---       #72
      00FF55A7H   LINE      CODE     ---       #73
      00FF55AAH   LINE      CODE     ---       #74
      00FF55AAH   LINE      CODE     ---       #75
      00FF55ADH   LINE      CODE     ---       #76
      00FF55C3H   LINE      CODE     ---       #78
      00FF55C7H   LINE      CODE     ---       #79
      00FF55C9H   LINE      CODE     ---       #80
      00FF55E1H   LINE      CODE     ---       #82
      00FF55E4H   LINE      CODE     ---       #83
      00FF55E6H   LINE      CODE     ---       #84
      00FF55FEH   LINE      CODE     ---       #86
      00FF5601H   LINE      CODE     ---       #87
      00FF5603H   LINE      CODE     ---       #88
      00FF561BH   LINE      CODE     ---       #90
      00FF561EH   LINE      CODE     ---       #91
      00FF561EH   LINE      CODE     ---       #92
      00FF5623H   LINE      CODE     ---       #93
      00FF5626H   LINE      CODE     ---       #94
      00FF5629H   LINE      CODE     ---       #97
      00FF5629H   LINE      CODE     ---       #99
      00FF5635H   LINE      CODE     ---       #101
      00FF5638H   LINE      CODE     ---       #102
      00FF563EH   LINE      CODE     ---       #103
      00FF5648H   LINE      CODE     ---       #104
      00FF564BH   LINE      CODE     ---       #105
      00FF564BH   LINE      CODE     ---       #107
      00FF564EH   LINE      CODE     ---       #108
      00FF5666H   LINE      CODE     ---       #110
      00FF566AH   LINE      CODE     ---       #111
      00FF566CH   LINE      CODE     ---       #112
      00FF5684H   LINE      CODE     ---       #114
      00FF5687H   LINE      CODE     ---       #115
      00FF5687H   LINE      CODE     ---       #117
      00FF568AH   LINE      CODE     ---       #118
      00FF568FH   LINE      CODE     ---       #119
      00FF5692H   LINE      CODE     ---       #122
      00FF5692H   LINE      CODE     ---       #124
      00FF569EH   LINE      CODE     ---       #126
      00FF56A1H   LINE      CODE     ---       #127
      00FF56A7H   LINE      CODE     ---       #128
      00FF56B1H   LINE      CODE     ---       #129
      00FF56B4H   LINE      CODE     ---       #130
      00FF56B6H   LINE      CODE     ---       #131
      00FF56C2H   LINE      CODE     ---       #133
      00FF56C5H   LINE      CODE     ---       #134
      00FF56CBH   LINE      CODE     ---       #135
      00FF56D5H   LINE      CODE     ---       #136
      00FF56D8H   LINE      CODE     ---       #137
      00FF56D8H   LINE      CODE     ---       #139
      00FF56DBH   LINE      CODE     ---       #140
      00FF56F3H   LINE      CODE     ---       #142
      00FF56F7H   LINE      CODE     ---       #143
      00FF56F9H   LINE      CODE     ---       #144
      00FF5711H   LINE      CODE     ---       #146
      00FF5714H   LINE      CODE     ---       #147
      00FF5714H   LINE      CODE     ---       #149
L251 LINKER/LOCATER V4.66.93.0                                                        10/06/2023  19:39:35  PAGE 48


      00FF5717H   LINE      CODE     ---       #150
      00FF571CH   LINE      CODE     ---       #151
      00FF571FH   LINE      CODE     ---       #154
      00FF571FH   LINE      CODE     ---       #156
      00FF572BH   LINE      CODE     ---       #158
      00FF572EH   LINE      CODE     ---       #159
      00FF5734H   LINE      CODE     ---       #160
      00FF573EH   LINE      CODE     ---       #161
      00FF5741H   LINE      CODE     ---       #162
      00FF5743H   LINE      CODE     ---       #163
      00FF574FH   LINE      CODE     ---       #165
      00FF5752H   LINE      CODE     ---       #166
      00FF5758H   LINE      CODE     ---       #167
      00FF5762H   LINE      CODE     ---       #168
      00FF5765H   LINE      CODE     ---       #169
      00FF5765H   LINE      CODE     ---       #171
      00FF5768H   LINE      CODE     ---       #172
      00FF5780H   LINE      CODE     ---       #174
      00FF5784H   LINE      CODE     ---       #175
      00FF5786H   LINE      CODE     ---       #176
      00FF579EH   LINE      CODE     ---       #178
      00FF57A1H   LINE      CODE     ---       #179
      00FF57A5H   LINE      CODE     ---       #180
      00FF57A8H   LINE      CODE     ---       #181
      00FF57A8H   LINE      CODE     ---       #182
      00FF57ABH   LINE      CODE     ---       #183
      00FF57B0H   LINE      CODE     ---       #184
      00FF57B0H   LINE      CODE     ---       #187
      00FF57B0H   LINE      CODE     ---       #189
      ---         BLOCKEND  ---      ---       LVL=0

      00FF6DB9H   BLOCK     CODE     ---       LVL=0
      00000C87H   SYMBOL    EDATA    INT       uart_n
      00000C89H   SYMBOL    EDATA    BYTE      dat
      00FF6DB9H   LINE      CODE     ---       #198
      00FF6DC1H   LINE      CODE     ---       #200
      00FF6DD3H   LINE      CODE     ---       #202
      00FF6DD3H   LINE      CODE     ---       #203
      00FF6DDCH   LINE      CODE     ---       #204
      00FF6DE2H   LINE      CODE     ---       #205
      00FF6DE8H   LINE      CODE     ---       #206
      00FF6DEAH   LINE      CODE     ---       #207
      00FF6DEAH   LINE      CODE     ---       #208
      00FF6DF3H   LINE      CODE     ---       #209
      00FF6DF9H   LINE      CODE     ---       #210
      00FF6DFFH   LINE      CODE     ---       #211
      00FF6E01H   LINE      CODE     ---       #212
      00FF6E01H   LINE      CODE     ---       #213
      00FF6E0AH   LINE      CODE     ---       #214
      00FF6E10H   LINE      CODE     ---       #215
      00FF6E16H   LINE      CODE     ---       #216
      00FF6E18H   LINE      CODE     ---       #217
      00FF6E18H   LINE      CODE     ---       #218
      00FF6E21H   LINE      CODE     ---       #219
      00FF6E27H   LINE      CODE     ---       #220
      00FF6E2DH   LINE      CODE     ---       #221
      00FF6E2DH   LINE      CODE     ---       #222
      00FF6E2DH   LINE      CODE     ---       #223
      ---         BLOCKEND  ---      ---       LVL=0
      00000AC6H   SYMBOL    EDATA    INT       uart_n
      00000AC8H   SYMBOL    EDATA    ---       p
      00000ACCH   SYMBOL    EDATA    WORD      len
      00000B7AH   SYMBOL    EDATA    INT       uart_n
      00000B7CH   SYMBOL    EDATA    ---       str

L251 LINKER/LOCATER V4.66.93.0                                                        10/06/2023  19:39:35  PAGE 49


      ---         MODULE    ---      ---       zf_fifo
      00FF6F0DH   PUBLIC    CODE     ---       fifo_head_offset
      00FF6291H   PUBLIC    CODE     ---       fifo_write_buffer
      0000086DH   PUBLIC    EDATA    BYTE      ?fifo_init?BYTE
      000007EDH   PUBLIC    EDATA    BYTE      ?fifo_write_buffer?BYTE
      000007A4H   PUBLIC    EDATA    BYTE      ?fifo_read_buffer?BYTE
      000000D0H   SFRSYM    DATA     BYTE      PSW
      0000009DH   SFRSYM    DATA     BYTE      IRCBAND
      00000097H   SFRSYM    DATA     BYTE      AUXR2
      000000EFH   SFRSYM    DATA     BYTE      AUXINTIF
      000000FDH   SFRSYM    DATA     BYTE      S4CON
      000000ACH   SFRSYM    DATA     BYTE      S3CON
      0000009AH   SFRSYM    DATA     BYTE      S2CON
      000000B7H   SFRSYM    DATA     BYTE      IPH
      000000CDH   SFRSYM    DATA     BYTE      SPSTAT
      000000DDH   SFRSYM    DATA     BYTE      T4T3M
      000000C1H   SFRSYM    DATA     BYTE      WDT_CONTR
      000000DFH   SFRSYM    DATA     BYTE      IP3
      000000F4H   SFRSYM    DATA     BYTE      USBCON
      000000B5H   SFRSYM    DATA     BYTE      IP2
      000000FFH   SFRSYM    DATA     BYTE      RSTCFG
      000000F9H   SFRSYM    DATA     BYTE      LINICR
      0000008EH   SFRSYM    DATA     BYTE      AUXR
      000000AFH   SFRSYM    DATA     BYTE      IE2
      00000088H   SFRSYM    DATA     BYTE      TCON
      00000098H   SFRSYM    DATA     BYTE      SCON
      000000F1H   SFRSYM    DATA     BYTE      CANICR
      00000087H   SFRSYM    DATA     BYTE      PCON
      000000BCH   SFRSYM    DATA     BYTE      ADC_CONTR
      000000E7H   SFRSYM    DATA     BYTE      CMPCR2
      000000E6H   SFRSYM    DATA     BYTE      CMPCR1
      000000B8H   SFRSYM    DATA     BYTE      IP
      0000008FH   SFRSYM    DATA     BYTE      INTCLKO
      000000EEH   SFRSYM    DATA     BYTE      IP3H
      000000B6H   SFRSYM    DATA     BYTE      IP2H
      000000A8H   SFRSYM    DATA     BYTE      IE
      000000BBH   SFRSYM    DATA     BYTE      P_SW3
      000000BAH   SFRSYM    DATA     BYTE      P_SW2
      000000A2H   SFRSYM    DATA     BYTE      P_SW1
      000000CEH   SFRSYM    DATA     BYTE      SPCTL
      000000F8H   SFRSYM    DATA     BYTE      P7
      000000E8H   SFRSYM    DATA     BYTE      P6
      000000C8H   SFRSYM    DATA     BYTE      P5
      000000C0H   SFRSYM    DATA     BYTE      P4
      000000B0H   SFRSYM    DATA     BYTE      P3
      000000A0H   SFRSYM    DATA     BYTE      P2
      00000090H   SFRSYM    DATA     BYTE      P1
      00000080H   SFRSYM    DATA     BYTE      P0
      0000086DH   SYMBOL    EDATA    ---       fifo
      00000871H   SYMBOL    EDATA    ---       buffer_addr
      00000875H   SYMBOL    EDATA    DWORD     size

      00FF6F0DH   BLOCK     CODE     ---       LVL=0
      00000ACEH   SYMBOL    EDATA    ---       fifo
      00000AD2H   SYMBOL    EDATA    DWORD     offset
      00FF6F0DH   LINE      CODE     ---       #61
      00FF6F15H   LINE      CODE     ---       #63
      00FF6F2FH   LINE      CODE     ---       #65
      00FF6F31H   LINE      CODE     ---       #67
      00FF6F56H   LINE      CODE     ---       #68
      00FF6F76H   LINE      CODE     ---       #69
      ---         BLOCKEND  ---      ---       LVL=0
      00000AD6H   SYMBOL    EDATA    ---       fifo
      00000ADAH   SYMBOL    EDATA    DWORD     offset
      00000C4CH   SYMBOL    EDATA    ---       fifo
L251 LINKER/LOCATER V4.66.93.0                                                        10/06/2023  19:39:35  PAGE 50


      00000C50H   SYMBOL    EDATA    ---       fifo

      00FF6291H   BLOCK     CODE     ---       LVL=0
      000007EDH   SYMBOL    EDATA    ---       fifo
      000007F1H   SYMBOL    EDATA    ---       dat
      000007F5H   SYMBOL    EDATA    DWORD     length
      00FF6299H   BLOCK     CODE     NEAR LAB  LVL=1
      000007F9H   SYMBOL    EDATA    DWORD     temp_length
      ---         BLOCKEND  ---      ---       LVL=1
      00FF6291H   LINE      CODE     ---       #120
      00FF6299H   LINE      CODE     ---       #121
      00FF6299H   LINE      CODE     ---       #124
      00FF62B3H   LINE      CODE     ---       #126
      00FF62D5H   LINE      CODE     ---       #128
      00FF62E4H   LINE      CODE     ---       #130
      00FF630DH   LINE      CODE     ---       #131
      00FF6318H   LINE      CODE     ---       #132
      00FF6328H   LINE      CODE     ---       #133
      00FF635BH   LINE      CODE     ---       #134
      00FF636CH   LINE      CODE     ---       #135
      00FF636EH   LINE      CODE     ---       #138
      00FF6397H   LINE      CODE     ---       #139
      00FF63A2H   LINE      CODE     ---       #140
      00FF63A2H   LINE      CODE     ---       #142
      00FF63BEH   LINE      CODE     ---       #143
      00FF63C0H   LINE      CODE     ---       #146
      00FF63C6H   LINE      CODE     ---       #147
      00FF63C6H   LINE      CODE     ---       #149
      00FF63C8H   LINE      CODE     ---       #150
      ---         BLOCKEND  ---      ---       LVL=0
      000007A4H   SYMBOL    EDATA    ---       fifo
      000007A8H   SYMBOL    EDATA    ---       dat
      000007ACH   SYMBOL    EDATA    ---       length
      000007B0H   SYMBOL    EDATA    INT       flag
      000007B2H   SYMBOL    EDATA    BYTE      data_check
      000007B3H   SYMBOL    EDATA    DWORD     temp_length

      ---         MODULE    ---      ---       SEEKFREE_18TFT
      00FF762DH   PUBLIC    CODE     ---       lcd_writeIndex_simspi
      00FF7679H   PUBLIC    CODE     ---       lcd_writeData_simspi
      00FF7E27H   PUBLIC    CODE     ---       lcd_writeIndex
      00FF7E3CH   PUBLIC    CODE     ---       lcd_writeData
      00FF7398H   PUBLIC    CODE     ---       lcd_writeData_16bit_simspi
      00FF70B3H   PUBLIC    CODE     ---       lcd_set_region_simspi
      00FF7117H   PUBLIC    CODE     ---       lcd_set_region
      00FF7B12H   PUBLIC    CODE     ---       lcd_writedata_16bit
      00000470H   PUBLIC    EDATA    BYTE      ?lcd_showfloat_simspi?BYTE
      000004A0H   PUBLIC    EDATA    BYTE      ?lcd_showfloat?BYTE
      000000D0H   SFRSYM    DATA     BYTE      PSW
      0000009DH   SFRSYM    DATA     BYTE      IRCBAND
      00000097H   SFRSYM    DATA     BYTE      AUXR2
      000000EFH   SFRSYM    DATA     BYTE      AUXINTIF
      000000FDH   SFRSYM    DATA     BYTE      S4CON
      000000ACH   SFRSYM    DATA     BYTE      S3CON
      0000009AH   SFRSYM    DATA     BYTE      S2CON
      000000B7H   SFRSYM    DATA     BYTE      IPH
      000000CDH   SFRSYM    DATA     BYTE      SPSTAT
      000000DDH   SFRSYM    DATA     BYTE      T4T3M
      000000C1H   SFRSYM    DATA     BYTE      WDT_CONTR
      000000DFH   SFRSYM    DATA     BYTE      IP3
      000000F4H   SFRSYM    DATA     BYTE      USBCON
      000000B5H   SFRSYM    DATA     BYTE      IP2
      000000FFH   SFRSYM    DATA     BYTE      RSTCFG
      000000F9H   SFRSYM    DATA     BYTE      LINICR
      0000008EH   SFRSYM    DATA     BYTE      AUXR
L251 LINKER/LOCATER V4.66.93.0                                                        10/06/2023  19:39:35  PAGE 51


      000000AFH   SFRSYM    DATA     BYTE      IE2
      000000A0H.5 SFRSYM    DATA     BIT       P25
      00000088H   SFRSYM    DATA     BYTE      TCON
      000000A0H.3 SFRSYM    DATA     BIT       P23
      00000098H   SFRSYM    DATA     BYTE      SCON
      000000A0H.2 SFRSYM    DATA     BIT       P22
      000000A0H.1 SFRSYM    DATA     BIT       P21
      000000A0H.0 SFRSYM    DATA     BIT       P20
      000000F1H   SFRSYM    DATA     BYTE      CANICR
      00000087H   SFRSYM    DATA     BYTE      PCON
      000000BCH   SFRSYM    DATA     BYTE      ADC_CONTR
      000000E7H   SFRSYM    DATA     BYTE      CMPCR2
      000000E6H   SFRSYM    DATA     BYTE      CMPCR1
      000000B8H   SFRSYM    DATA     BYTE      IP
      0000008FH   SFRSYM    DATA     BYTE      INTCLKO
      000000EEH   SFRSYM    DATA     BYTE      IP3H
      000000B6H   SFRSYM    DATA     BYTE      IP2H
      000000A8H   SFRSYM    DATA     BYTE      IE
      000000BBH   SFRSYM    DATA     BYTE      P_SW3
      000000BAH   SFRSYM    DATA     BYTE      P_SW2
      000000A2H   SFRSYM    DATA     BYTE      P_SW1
      000000CEH   SFRSYM    DATA     BYTE      SPCTL
      000000F8H   SFRSYM    DATA     BYTE      P7
      000000E8H   SFRSYM    DATA     BYTE      P6
      000000C8H   SFRSYM    DATA     BYTE      P5
      000000C0H   SFRSYM    DATA     BYTE      P4
      000000B0H   SFRSYM    DATA     BYTE      P3
      000000A0H   SFRSYM    DATA     BYTE      P2
      00000090H   SFRSYM    DATA     BYTE      P1
      00000080H   SFRSYM    DATA     BYTE      P0

      00FF762DH   BLOCK     CODE     ---       LVL=0
      00000CC7H   SYMBOL    EDATA    BYTE      dat
      00FF7631H   BLOCK     CODE     NEAR LAB  LVL=1
      00000CC8H   SYMBOL    EDATA    BYTE      i
      ---         BLOCKEND  ---      ---       LVL=1
      00FF762DH   LINE      CODE     ---       #60
      00FF7631H   LINE      CODE     ---       #61
      00FF7631H   LINE      CODE     ---       #62
      00FF7637H   LINE      CODE     ---       #64
      00FF763AH   LINE      CODE     ---       #65
      00FF763DH   LINE      CODE     ---       #66
      00FF7640H   LINE      CODE     ---       #68
      00FF7642H   LINE      CODE     ---       #70
      00FF764EH   LINE      CODE     ---       #71
      00FF7651H   LINE      CODE     ---       #72
      00FF7654H   LINE      CODE     ---       #74
      00FF7657H   LINE      CODE     ---       #75
      00FF7661H   LINE      CODE     ---       #76
      00FF7675H   LINE      CODE     ---       #77
      00FF7678H   LINE      CODE     ---       #78
      ---         BLOCKEND  ---      ---       LVL=0

      00FF7679H   BLOCK     CODE     ---       LVL=0
      00000CC9H   SYMBOL    EDATA    BYTE      dat
      00FF767DH   BLOCK     CODE     NEAR LAB  LVL=1
      00000CCAH   SYMBOL    EDATA    BYTE      i
      ---         BLOCKEND  ---      ---       LVL=1
      00FF7679H   LINE      CODE     ---       #87
      00FF767DH   LINE      CODE     ---       #88
      00FF767DH   LINE      CODE     ---       #89
      00FF7683H   LINE      CODE     ---       #91
      00FF7686H   LINE      CODE     ---       #92
      00FF7689H   LINE      CODE     ---       #93
      00FF768CH   LINE      CODE     ---       #94
L251 LINKER/LOCATER V4.66.93.0                                                        10/06/2023  19:39:35  PAGE 52


      00FF768EH   LINE      CODE     ---       #96
      00FF769AH   LINE      CODE     ---       #97
      00FF769DH   LINE      CODE     ---       #98
      00FF76A0H   LINE      CODE     ---       #100
      00FF76A3H   LINE      CODE     ---       #101
      00FF76ADH   LINE      CODE     ---       #102
      00FF76C1H   LINE      CODE     ---       #103
      00FF76C4H   LINE      CODE     ---       #104
      ---         BLOCKEND  ---      ---       LVL=0

      00FF7398H   BLOCK     CODE     ---       LVL=0
      00000C8AH   SYMBOL    EDATA    WORD      dat
      00FF739CH   BLOCK     CODE     NEAR LAB  LVL=1
      00000C8CH   SYMBOL    EDATA    BYTE      i
      ---         BLOCKEND  ---      ---       LVL=1
      00FF7398H   LINE      CODE     ---       #113
      00FF739CH   LINE      CODE     ---       #114
      00FF739CH   LINE      CODE     ---       #115
      00FF73A2H   LINE      CODE     ---       #117
      00FF73A5H   LINE      CODE     ---       #118
      00FF73A8H   LINE      CODE     ---       #119
      00FF73ABH   LINE      CODE     ---       #121
      00FF73ADH   LINE      CODE     ---       #123
      00FF73C2H   LINE      CODE     ---       #124
      00FF73C5H   LINE      CODE     ---       #125
      00FF73C8H   LINE      CODE     ---       #127
      00FF73CBH   LINE      CODE     ---       #128
      00FF73D5H   LINE      CODE     ---       #129
      00FF73E9H   LINE      CODE     ---       #131
      00FF73ECH   LINE      CODE     ---       #133
      ---         BLOCKEND  ---      ---       LVL=0

      00FF70B3H   BLOCK     CODE     ---       LVL=0
      00000ADEH   SYMBOL    EDATA    WORD      x_start
      00000AE0H   SYMBOL    EDATA    WORD      y_start
      00000AE2H   SYMBOL    EDATA    WORD      x_end
      00000AE4H   SYMBOL    EDATA    WORD      y_end
      00FF70B3H   LINE      CODE     ---       #145
      00FF70C3H   LINE      CODE     ---       #163
      00FF70C8H   LINE      CODE     ---       #164
      00FF70CCH   LINE      CODE     ---       #165
      00FF70D9H   LINE      CODE     ---       #166
      00FF70DDH   LINE      CODE     ---       #167
      00FF70EAH   LINE      CODE     ---       #169
      00FF70EFH   LINE      CODE     ---       #170
      00FF70F3H   LINE      CODE     ---       #171
      00FF7100H   LINE      CODE     ---       #172
      00FF7104H   LINE      CODE     ---       #173
      00FF7111H   LINE      CODE     ---       #177
      00FF7116H   LINE      CODE     ---       #178
      ---         BLOCKEND  ---      ---       LVL=0
      00000C54H   SYMBOL    EDATA    INT       color
      00000C56H   SYMBOL    EDATA    BYTE      i
      00000C57H   SYMBOL    EDATA    BYTE      j
      00000B80H   SYMBOL    EDATA    WORD      x
      00000B82H   SYMBOL    EDATA    WORD      y
      00000B84H   SYMBOL    EDATA    WORD      color
      00000AE6H   SYMBOL    EDATA    WORD      x
      00000AE8H   SYMBOL    EDATA    WORD      y
      00000AEAH   SYMBOL    EDATA    CHAR      dat
      00000AEBH   SYMBOL    EDATA    BYTE      i
      00000AECH   SYMBOL    EDATA    BYTE      j
      00000AEDH   SYMBOL    EDATA    BYTE      temp
      0000099DH   SYMBOL    EDATA    WORD      x
      0000099FH   SYMBOL    EDATA    WORD      y
L251 LINKER/LOCATER V4.66.93.0                                                        10/06/2023  19:39:35  PAGE 53


      000009A1H   SYMBOL    EDATA    ---       dat
      000009A5H   SYMBOL    EDATA    WORD      j
      000009F7H   SYMBOL    EDATA    WORD      x
      000009F9H   SYMBOL    EDATA    WORD      y
      000009FBH   SYMBOL    EDATA    CHAR      dat
      000009FCH   SYMBOL    EDATA    ---       a
      000009FFH   SYMBOL    EDATA    BYTE      i
      00000A00H   SYMBOL    EDATA    WORD      x
      00000A02H   SYMBOL    EDATA    WORD      y
      00000A04H   SYMBOL    EDATA    BYTE      dat
      00000A05H   SYMBOL    EDATA    ---       a
      00000A08H   SYMBOL    EDATA    BYTE      i
      00000879H   SYMBOL    EDATA    WORD      x
      0000087BH   SYMBOL    EDATA    WORD      y
      0000087DH   SYMBOL    EDATA    INT       dat
      0000087FH   SYMBOL    EDATA    ---       a
      00000884H   SYMBOL    EDATA    BYTE      i
      00000885H   SYMBOL    EDATA    WORD      x
      00000887H   SYMBOL    EDATA    WORD      y
      00000889H   SYMBOL    EDATA    WORD      dat
      0000088BH   SYMBOL    EDATA    ---       a
      00000890H   SYMBOL    EDATA    BYTE      i
      000005BFH   SYMBOL    EDATA    WORD      x
      000005C1H   SYMBOL    EDATA    WORD      y
      000005C3H   SYMBOL    EDATA    LONG      dat
      000005C7H   SYMBOL    EDATA    BYTE      num
      000005C8H   SYMBOL    EDATA    ---       buff
      000005EAH   SYMBOL    EDATA    BYTE      length
      00000470H   SYMBOL    EDATA    WORD      x
      00000472H   SYMBOL    EDATA    WORD      y
      00000474H   SYMBOL    EDATA    FLOAT     dat
      00000478H   SYMBOL    EDATA    BYTE      num
      00000479H   SYMBOL    EDATA    BYTE      pointnum
      0000047AH   SYMBOL    EDATA    BYTE      length
      0000047BH   SYMBOL    EDATA    ---       buff
      0000049DH   SYMBOL    EDATA    CHAR      start
      0000049EH   SYMBOL    EDATA    CHAR      end
      0000049FH   SYMBOL    EDATA    CHAR      point

      00FF7E27H   BLOCK     CODE     ---       LVL=0
      00000D09H   SYMBOL    EDATA    BYTE      dat
      00FF7E27H   LINE      CODE     ---       #607
      00FF7E2BH   LINE      CODE     ---       #610
      00FF7E2EH   LINE      CODE     ---       #611
      00FF7E31H   LINE      CODE     ---       #612
      00FF7E38H   LINE      CODE     ---       #613
      00FF7E3BH   LINE      CODE     ---       #614
      ---         BLOCKEND  ---      ---       LVL=0

      00FF7E3CH   BLOCK     CODE     ---       LVL=0
      00000D0AH   SYMBOL    EDATA    BYTE      dat
      00FF7E3CH   LINE      CODE     ---       #623
      00FF7E40H   LINE      CODE     ---       #625
      00FF7E43H   LINE      CODE     ---       #626
      00FF7E46H   LINE      CODE     ---       #627
      00FF7E4DH   LINE      CODE     ---       #628
      00FF7E50H   LINE      CODE     ---       #629
      ---         BLOCKEND  ---      ---       LVL=0

      00FF7B12H   BLOCK     CODE     ---       LVL=0
      00000C58H   SYMBOL    EDATA    WORD      dat
      00FF7B16H   BLOCK     CODE     NEAR LAB  LVL=1
      00000C5AH   SYMBOL    EDATA    ---       dat1
      ---         BLOCKEND  ---      ---       LVL=1
      00FF7B12H   LINE      CODE     ---       #638
L251 LINKER/LOCATER V4.66.93.0                                                        10/06/2023  19:39:35  PAGE 54


      00FF7B16H   LINE      CODE     ---       #639
      00FF7B16H   LINE      CODE     ---       #642
      00FF7B1CH   LINE      CODE     ---       #643
      00FF7B24H   LINE      CODE     ---       #645
      00FF7B27H   LINE      CODE     ---       #646
      00FF7B2AH   LINE      CODE     ---       #647
      00FF7B31H   LINE      CODE     ---       #648
      00FF7B38H   LINE      CODE     ---       #649
      00FF7B3BH   LINE      CODE     ---       #651
      ---         BLOCKEND  ---      ---       LVL=0

      00FF7117H   BLOCK     CODE     ---       LVL=0
      00000AEEH   SYMBOL    EDATA    WORD      x_start
      00000AF0H   SYMBOL    EDATA    WORD      y_start
      00000AF2H   SYMBOL    EDATA    WORD      x_end
      00000AF4H   SYMBOL    EDATA    WORD      y_end
      00FF7117H   LINE      CODE     ---       #663
      00FF7127H   LINE      CODE     ---       #681
      00FF712CH   LINE      CODE     ---       #682
      00FF7130H   LINE      CODE     ---       #683
      00FF713DH   LINE      CODE     ---       #684
      00FF7141H   LINE      CODE     ---       #685
      00FF714EH   LINE      CODE     ---       #687
      00FF7153H   LINE      CODE     ---       #688
      00FF7157H   LINE      CODE     ---       #689
      00FF7164H   LINE      CODE     ---       #690
      00FF7168H   LINE      CODE     ---       #691
      00FF7175H   LINE      CODE     ---       #695
      00FF717AH   LINE      CODE     ---       #696
      ---         BLOCKEND  ---      ---       LVL=0
      00000C5CH   SYMBOL    EDATA    INT       color
      00000C5EH   SYMBOL    EDATA    BYTE      i
      00000C5FH   SYMBOL    EDATA    BYTE      j
      00000B86H   SYMBOL    EDATA    WORD      x
      00000B88H   SYMBOL    EDATA    WORD      y
      00000B8AH   SYMBOL    EDATA    WORD      color
      00000AF6H   SYMBOL    EDATA    WORD      x
      00000AF8H   SYMBOL    EDATA    WORD      y
      00000AFAH   SYMBOL    EDATA    CHAR      dat
      00000AFBH   SYMBOL    EDATA    BYTE      i
      00000AFCH   SYMBOL    EDATA    BYTE      j
      00000AFDH   SYMBOL    EDATA    BYTE      temp
      000009A7H   SYMBOL    EDATA    WORD      x
      000009A9H   SYMBOL    EDATA    WORD      y
      000009ABH   SYMBOL    EDATA    ---       dat
      000009AFH   SYMBOL    EDATA    WORD      j
      00000A09H   SYMBOL    EDATA    WORD      x
      00000A0BH   SYMBOL    EDATA    WORD      y
      00000A0DH   SYMBOL    EDATA    CHAR      dat
      00000A0EH   SYMBOL    EDATA    ---       a
      00000A11H   SYMBOL    EDATA    BYTE      i
      00000A12H   SYMBOL    EDATA    WORD      x
      00000A14H   SYMBOL    EDATA    WORD      y
      00000A16H   SYMBOL    EDATA    BYTE      dat
      00000A17H   SYMBOL    EDATA    ---       a
      00000A1AH   SYMBOL    EDATA    BYTE      i
      00000891H   SYMBOL    EDATA    WORD      x
      00000893H   SYMBOL    EDATA    WORD      y
      00000895H   SYMBOL    EDATA    INT       dat
      00000897H   SYMBOL    EDATA    ---       a
      0000089CH   SYMBOL    EDATA    BYTE      i
      0000089DH   SYMBOL    EDATA    WORD      x
      0000089FH   SYMBOL    EDATA    WORD      y
      000008A1H   SYMBOL    EDATA    WORD      dat
      000008A3H   SYMBOL    EDATA    ---       a
L251 LINKER/LOCATER V4.66.93.0                                                        10/06/2023  19:39:35  PAGE 55


      000008A8H   SYMBOL    EDATA    BYTE      i
      000005EBH   SYMBOL    EDATA    WORD      x
      000005EDH   SYMBOL    EDATA    WORD      y
      000005EFH   SYMBOL    EDATA    LONG      dat
      000005F3H   SYMBOL    EDATA    BYTE      num
      000005F4H   SYMBOL    EDATA    ---       buff
      00000616H   SYMBOL    EDATA    BYTE      length
      000004A0H   SYMBOL    EDATA    WORD      x
      000004A2H   SYMBOL    EDATA    WORD      y
      000004A4H   SYMBOL    EDATA    FLOAT     dat
      000004A8H   SYMBOL    EDATA    BYTE      num
      000004A9H   SYMBOL    EDATA    BYTE      pointnum
      000004AAH   SYMBOL    EDATA    BYTE      length
      000004ABH   SYMBOL    EDATA    ---       buff
      000004CDH   SYMBOL    EDATA    CHAR      start
      000004CEH   SYMBOL    EDATA    CHAR      end
      000004CFH   SYMBOL    EDATA    CHAR      point
      000008A9H   SYMBOL    EDATA    ---       p
      000008ADH   SYMBOL    EDATA    INT       i
      000008AFH   SYMBOL    EDATA    INT       j
      000008B1H   SYMBOL    EDATA    INT       k
      000008B3H   SYMBOL    EDATA    BYTE      picH
      000008B4H   SYMBOL    EDATA    BYTE      picL

      ---         MODULE    ---      ---       SEEKFREE_BLUETOOTH_CH9141
      00FF7D93H   PUBLIC    CODE     ---       bluetooth_ch9141_uart_callback
      000000D0H   SFRSYM    DATA     BYTE      PSW
      0000009DH   SFRSYM    DATA     BYTE      IRCBAND
      00000097H   SFRSYM    DATA     BYTE      AUXR2
      000000EFH   SFRSYM    DATA     BYTE      AUXINTIF
      000000FDH   SFRSYM    DATA     BYTE      S4CON
      000000ACH   SFRSYM    DATA     BYTE      S3CON
      0000009AH   SFRSYM    DATA     BYTE      S2CON
      000000FEH   SFRSYM    DATA     BYTE      S4BUF
      000000B7H   SFRSYM    DATA     BYTE      IPH
      000000CDH   SFRSYM    DATA     BYTE      SPSTAT
      000000DDH   SFRSYM    DATA     BYTE      T4T3M
      000000C1H   SFRSYM    DATA     BYTE      WDT_CONTR
      000000DFH   SFRSYM    DATA     BYTE      IP3
      000000F4H   SFRSYM    DATA     BYTE      USBCON
      000000B5H   SFRSYM    DATA     BYTE      IP2
      000000FFH   SFRSYM    DATA     BYTE      RSTCFG
      000000F9H   SFRSYM    DATA     BYTE      LINICR
      0000008EH   SFRSYM    DATA     BYTE      AUXR
      000000AFH   SFRSYM    DATA     BYTE      IE2
      00000080H.7 SFRSYM    DATA     BIT       P07
      00000088H   SFRSYM    DATA     BYTE      TCON
      00000098H   SFRSYM    DATA     BYTE      SCON
      000000F1H   SFRSYM    DATA     BYTE      CANICR
      00000087H   SFRSYM    DATA     BYTE      PCON
      000000BCH   SFRSYM    DATA     BYTE      ADC_CONTR
      000000E7H   SFRSYM    DATA     BYTE      CMPCR2
      000000E6H   SFRSYM    DATA     BYTE      CMPCR1
      000000B8H   SFRSYM    DATA     BYTE      IP
      0000008FH   SFRSYM    DATA     BYTE      INTCLKO
      000000EEH   SFRSYM    DATA     BYTE      IP3H
      000000B6H   SFRSYM    DATA     BYTE      IP2H
      000000A8H   SFRSYM    DATA     BYTE      IE
      000000BBH   SFRSYM    DATA     BYTE      P_SW3
      000000BAH   SFRSYM    DATA     BYTE      P_SW2
      000000A2H   SFRSYM    DATA     BYTE      P_SW1
      000000CEH   SFRSYM    DATA     BYTE      SPCTL
      000000F8H   SFRSYM    DATA     BYTE      P7
      000000E8H   SFRSYM    DATA     BYTE      P6
      000000C8H   SFRSYM    DATA     BYTE      P5
L251 LINKER/LOCATER V4.66.93.0                                                        10/06/2023  19:39:35  PAGE 56


      000000C0H   SFRSYM    DATA     BYTE      P4
      000000B0H   SFRSYM    DATA     BYTE      P3
      000000A0H   SFRSYM    DATA     BYTE      P2
      00000090H   SFRSYM    DATA     BYTE      P1
      00000080H   SFRSYM    DATA     BYTE      P0
      00000323H   SYMBOL    EDATA    ---       bluetooth_ch9141_buffer
      00000363H   SYMBOL    EDATA    BYTE      bluetooth_ch9141_data
      00000364H   SYMBOL    EDATA    ---       bluetooth_ch9141_fifo

      00FF7D93H   BLOCK     CODE     ---       LVL=0
      00FF7D93H   LINE      CODE     ---       #67
      00FF7D93H   LINE      CODE     ---       #70
      00FF7D99H   LINE      CODE     ---       #71
      00FF7DACH   LINE      CODE     ---       #72
      ---         BLOCKEND  ---      ---       LVL=0
      000009B1H   SYMBOL    EDATA    ---       buff
      000009B5H   SYMBOL    EDATA    DWORD     len
      000009B9H   SYMBOL    EDATA    WORD      time_count
      000008B5H   SYMBOL    EDATA    ---       buff
      000008B9H   SYMBOL    EDATA    DWORD     len
      000008BDH   SYMBOL    EDATA    DWORD     data_len

      ---         MODULE    ---      ---       SEEKFREE_DL1A
      00000C8DH   PUBLIC    EDATA    WORD      dl1a_distance_mm
      00000C8FH   PUBLIC    EDATA    BYTE      dl1a_finsh_flag
      000000D0H   SFRSYM    DATA     BYTE      PSW
      0000009DH   SFRSYM    DATA     BYTE      IRCBAND
      00000097H   SFRSYM    DATA     BYTE      AUXR2
      000000EFH   SFRSYM    DATA     BYTE      AUXINTIF
      000000FDH   SFRSYM    DATA     BYTE      S4CON
      000000ACH   SFRSYM    DATA     BYTE      S3CON
      0000009AH   SFRSYM    DATA     BYTE      S2CON
      000000B7H   SFRSYM    DATA     BYTE      IPH
      000000CDH   SFRSYM    DATA     BYTE      SPSTAT
      000000DDH   SFRSYM    DATA     BYTE      T4T3M
      000000C1H   SFRSYM    DATA     BYTE      WDT_CONTR
      000000DFH   SFRSYM    DATA     BYTE      IP3
      000000F4H   SFRSYM    DATA     BYTE      USBCON
      000000B5H   SFRSYM    DATA     BYTE      IP2
      000000FFH   SFRSYM    DATA     BYTE      RSTCFG
      000000F9H   SFRSYM    DATA     BYTE      LINICR
      0000008EH   SFRSYM    DATA     BYTE      AUXR
      000000AFH   SFRSYM    DATA     BYTE      IE2
      000000C0H.7 SFRSYM    DATA     BIT       P47
      000000E8H.5 SFRSYM    DATA     BIT       P65
      000000E8H.3 SFRSYM    DATA     BIT       P63
      00000088H   SFRSYM    DATA     BYTE      TCON
      00000098H   SFRSYM    DATA     BYTE      SCON
      000000F1H   SFRSYM    DATA     BYTE      CANICR
      00000087H   SFRSYM    DATA     BYTE      PCON
      000000BCH   SFRSYM    DATA     BYTE      ADC_CONTR
      000000E7H   SFRSYM    DATA     BYTE      CMPCR2
      000000E6H   SFRSYM    DATA     BYTE      CMPCR1
      000000B8H   SFRSYM    DATA     BYTE      IP
      0000008FH   SFRSYM    DATA     BYTE      INTCLKO
      000000EEH   SFRSYM    DATA     BYTE      IP3H
      000000B6H   SFRSYM    DATA     BYTE      IP2H
      000000A8H   SFRSYM    DATA     BYTE      IE
      000000BBH   SFRSYM    DATA     BYTE      P_SW3
      000000BAH   SFRSYM    DATA     BYTE      P_SW2
      000000A2H   SFRSYM    DATA     BYTE      P_SW1
      000000CEH   SFRSYM    DATA     BYTE      SPCTL
      000000F8H   SFRSYM    DATA     BYTE      P7
      000000E8H   SFRSYM    DATA     BYTE      P6
      000000C8H   SFRSYM    DATA     BYTE      P5
L251 LINKER/LOCATER V4.66.93.0                                                        10/06/2023  19:39:35  PAGE 57


      000000C0H   SFRSYM    DATA     BYTE      P4
      000000B0H   SFRSYM    DATA     BYTE      P3
      000000A0H   SFRSYM    DATA     BYTE      P2
      00000090H   SFRSYM    DATA     BYTE      P1
      00000080H   SFRSYM    DATA     BYTE      P0
      00FF7B90H   SYMBOL    CODE     ---       dl1a_simiic_sendack
      00FF753DH   SYMBOL    CODE     ---       dl1a_timeout_microseconds_to_mclks
      00FF74EAH   SYMBOL    CODE     ---       dl1a_timeout_mclks_to_microseconds
      00FF6F77H   SYMBOL    CODE     ---       dl1a_read_ch
      00FF7B3CH   SYMBOL    CODE     ---       dl1a_decode_timeout
      00FF77F4H   SYMBOL    CODE     ---       dl1a_send_ch
      00FF6C49H   SYMBOL    CODE     ---       dl1a_encode_timeout
      00FF6B38H   SYMBOL    CODE     ---       dl1a_get_sequence_step_enables
      00FF7C99H   SYMBOL    CODE     ---       dl1a_sccb_waitack
      00FF0026H   SYMBOL    CODE     ---       dl1a_simiic_delay
      00FF5FD5H   SYMBOL    CODE     ---       dl1a_get_sequence_step_timeouts
      00FF7EB9H   SYMBOL    CODE     ---       dl1a_simiic_start
      00FF704BH   SYMBOL    CODE     ---       dl1a_simiic_read_regs
      00FF7911H   SYMBOL    CODE     ---       dl1a_simiic_write_dats
      00FF7DFBH   SYMBOL    CODE     ---       dl1a_simiic_stop
      00FF6CC8H   SYMBOL    CODE     ---       dl1a_get_vcsel_pulse_period

      00FF0026H   BLOCK     CODE     ---       LVL=0
      00000CCBH   SYMBOL    EDATA    WORD      j
      00FF0026H   LINE      CODE     ---       #59
      00FF0026H   LINE      CODE     ---       #60
      00FF0026H   LINE      CODE     ---       #61
      00FF002CH   LINE      CODE     ---       #62
      00FF0042H   LINE      CODE     ---       #63
      ---         BLOCKEND  ---      ---       LVL=0

      00FF7EB9H   BLOCK     CODE     ---       LVL=0
      00FF7EB9H   LINE      CODE     ---       #66
      00FF7EB9H   LINE      CODE     ---       #68
      00FF7EBCH   LINE      CODE     ---       #69
      00FF7EBFH   LINE      CODE     ---       #70
      00FF7EC2H   LINE      CODE     ---       #71
      00FF7EC5H   LINE      CODE     ---       #72
      00FF7EC8H   LINE      CODE     ---       #73
      00FF7ECBH   LINE      CODE     ---       #74
      ---         BLOCKEND  ---      ---       LVL=0

      00FF7DFBH   BLOCK     CODE     ---       LVL=0
      00FF7DFBH   LINE      CODE     ---       #77
      00FF7DFBH   LINE      CODE     ---       #79
      00FF7DFEH   LINE      CODE     ---       #80
      00FF7E01H   LINE      CODE     ---       #81
      00FF7E04H   LINE      CODE     ---       #82
      00FF7E07H   LINE      CODE     ---       #83
      00FF7E0AH   LINE      CODE     ---       #84
      00FF7E0DH   LINE      CODE     ---       #85
      00FF7E10H   LINE      CODE     ---       #86
      ---         BLOCKEND  ---      ---       LVL=0

      00FF7B90H   BLOCK     CODE     ---       LVL=0
      00000D0BH   SYMBOL    EDATA    BYTE      ack_dat
      00FF7B90H   LINE      CODE     ---       #90
      00FF7B94H   LINE      CODE     ---       #92
      00FF7B97H   LINE      CODE     ---       #93
      00FF7B9AH   LINE      CODE     ---       #94
      00FF7BA8H   LINE      CODE     ---       #95
      00FF7BABH   LINE      CODE     ---       #97
      00FF7BAEH   LINE      CODE     ---       #98
      00FF7BB1H   LINE      CODE     ---       #99
      00FF7BB4H   LINE      CODE     ---       #100
L251 LINKER/LOCATER V4.66.93.0                                                        10/06/2023  19:39:35  PAGE 58


      00FF7BB7H   LINE      CODE     ---       #101
      ---         BLOCKEND  ---      ---       LVL=0

      00FF7C99H   BLOCK     CODE     ---       LVL=0
      00FF7C99H   LINE      CODE     ---       #104
      00FF7C99H   LINE      CODE     ---       #106
      00FF7C9CH   LINE      CODE     ---       #108
      00FF7C9FH   LINE      CODE     ---       #110
      00FF7CA2H   LINE      CODE     ---       #111
      00FF7CA5H   LINE      CODE     ---       #113
      00FF7CA8H   LINE      CODE     ---       #116
      00FF7CABH   LINE      CODE     ---       #117
      00FF7CAFH   LINE      CODE     ---       #118
      00FF7CAFH   LINE      CODE     ---       #120
      00FF7CB2H   LINE      CODE     ---       #121
      00FF7CB5H   LINE      CODE     ---       #122
      00FF7CB9H   LINE      CODE     ---       #123
      ---         BLOCKEND  ---      ---       LVL=0

      00FF77F4H   BLOCK     CODE     ---       LVL=0
      00000CCDH   SYMBOL    EDATA    BYTE      c
      00FF77F8H   BLOCK     CODE     NEAR LAB  LVL=1
      00000CCEH   SYMBOL    EDATA    BYTE      i
      ---         BLOCKEND  ---      ---       LVL=1
      00FF77F4H   LINE      CODE     ---       #129
      00FF77F8H   LINE      CODE     ---       #130
      00FF77F8H   LINE      CODE     ---       #131
      00FF77FEH   LINE      CODE     ---       #132
      00FF7800H   LINE      CODE     ---       #134
      00FF780CH   LINE      CODE     ---       #135
      00FF780FH   LINE      CODE     ---       #136
      00FF7819H   LINE      CODE     ---       #137
      00FF781CH   LINE      CODE     ---       #138
      00FF781FH   LINE      CODE     ---       #139
      00FF7822H   LINE      CODE     ---       #140
      00FF7825H   LINE      CODE     ---       #141
      00FF7839H   LINE      CODE     ---       #142
      00FF783CH   LINE      CODE     ---       #143
      ---         BLOCKEND  ---      ---       LVL=0

      00FF6F77H   BLOCK     CODE     ---       LVL=0
      00000C90H   SYMBOL    EDATA    BYTE      ack_x
      00FF6F7BH   BLOCK     CODE     NEAR LAB  LVL=1
      00000C91H   SYMBOL    EDATA    BYTE      i
      00000C92H   SYMBOL    EDATA    BYTE      c
      ---         BLOCKEND  ---      ---       LVL=1
      00FF6F77H   LINE      CODE     ---       #149
      00FF6F7BH   LINE      CODE     ---       #150
      00FF6F7BH   LINE      CODE     ---       #153
      00FF6F80H   LINE      CODE     ---       #154
      00FF6F83H   LINE      CODE     ---       #155
      00FF6F86H   LINE      CODE     ---       #156
      00FF6F89H   LINE      CODE     ---       #158
      00FF6F90H   LINE      CODE     ---       #160
      00FF6F93H   LINE      CODE     ---       #161
      00FF6F96H   LINE      CODE     ---       #162
      00FF6F99H   LINE      CODE     ---       #163
      00FF6F9CH   LINE      CODE     ---       #164
      00FF6F9FH   LINE      CODE     ---       #165
      00FF6FA9H   LINE      CODE     ---       #166
      00FF6FACH   LINE      CODE     ---       #168
      00FF6FB8H   LINE      CODE     ---       #169
      00FF6FCFH   LINE      CODE     ---       #172
      00FF6FD2H   LINE      CODE     ---       #173
      00FF6FD5H   LINE      CODE     ---       #174
L251 LINKER/LOCATER V4.66.93.0                                                        10/06/2023  19:39:35  PAGE 59


      00FF6FDCH   LINE      CODE     ---       #176
      00FF6FE0H   LINE      CODE     ---       #177
      ---         BLOCKEND  ---      ---       LVL=0

      00FF7911H   BLOCK     CODE     ---       LVL=0
      00000A1BH   SYMBOL    EDATA    BYTE      dev_add
      00000A1CH   SYMBOL    EDATA    ---       dat
      00000A20H   SYMBOL    EDATA    DWORD     len
      00FF7911H   LINE      CODE     ---       #189
      00FF791DH   LINE      CODE     ---       #191
      00FF7920H   LINE      CODE     ---       #192
      00FF7929H   LINE      CODE     ---       #193
      00FF792BH   LINE      CODE     ---       #195
      00FF793BH   LINE      CODE     ---       #196
      00FF794FH   LINE      CODE     ---       #199
      00FF7952H   LINE      CODE     ---       #200
      ---         BLOCKEND  ---      ---       LVL=0
      00000C93H   SYMBOL    EDATA    BYTE      dev_add
      00000C94H   SYMBOL    EDATA    BYTE      reg
      00000C95H   SYMBOL    EDATA    BYTE      dat
      00000C96H   SYMBOL    EDATA    BYTE      dev_add
      00000C97H   SYMBOL    EDATA    BYTE      reg
      00000C98H   SYMBOL    EDATA    BYTE      dat

      00FF704BH   BLOCK     CODE     ---       LVL=0
      000009BBH   SYMBOL    EDATA    BYTE      dev_add
      000009BCH   SYMBOL    EDATA    BYTE      reg
      000009BDH   SYMBOL    EDATA    ---       dat_add
      000009C1H   SYMBOL    EDATA    DWORD     num
      00FF704BH   LINE      CODE     ---       #257
      00FF7057H   LINE      CODE     ---       #259
      00FF705AH   LINE      CODE     ---       #260
      00FF7063H   LINE      CODE     ---       #261
      00FF706AH   LINE      CODE     ---       #264
      00FF706DH   LINE      CODE     ---       #265
      00FF707AH   LINE      CODE     ---       #266
      00FF707CH   LINE      CODE     ---       #268
      00FF7088H   LINE      CODE     ---       #269
      00FF7092H   LINE      CODE     ---       #270
      00FF70A4H   LINE      CODE     ---       #271
      00FF70AFH   LINE      CODE     ---       #272
      00FF70B2H   LINE      CODE     ---       #273
      ---         BLOCKEND  ---      ---       LVL=0
      000009C5H   SYMBOL    EDATA    BYTE      dev_add
      000009C6H   SYMBOL    EDATA    BYTE      reg
      000009C7H   SYMBOL    EDATA    ---       dat_add
      000009CBH   SYMBOL    EDATA    DWORD     num
      000008C1H   SYMBOL    EDATA    ---       index
      000008C5H   SYMBOL    EDATA    ---       type_is_aperture
      000008C9H   SYMBOL    EDATA    BYTE      tmp
      000008CAH   SYMBOL    EDATA    BYTE      return_state
      000008CBH   SYMBOL    EDATA    WORD      loop_count

      00FF74EAH   BLOCK     CODE     ---       LVL=0
      00000B45H   SYMBOL    EDATA    WORD      timeout_period_mclks
      00000B47H   SYMBOL    EDATA    BYTE      vcsel_period_pclks
      00FF74F2H   BLOCK     CODE     NEAR LAB  LVL=1
      00000B48H   SYMBOL    EDATA    DWORD     macro_period_ns
      ---         BLOCKEND  ---      ---       LVL=1
      00FF74EAH   LINE      CODE     ---       #401
      00FF74F2H   LINE      CODE     ---       #402
      00FF74F2H   LINE      CODE     ---       #403
      00FF7519H   LINE      CODE     ---       #405
      00FF753CH   LINE      CODE     ---       #406
      ---         BLOCKEND  ---      ---       LVL=0
L251 LINKER/LOCATER V4.66.93.0                                                        10/06/2023  19:39:35  PAGE 60



      00FF753DH   BLOCK     CODE     ---       LVL=0
      00000A24H   SYMBOL    EDATA    DWORD     timeout_period_us
      00000A28H   SYMBOL    EDATA    BYTE      vcsel_period_pclks
      00FF7545H   BLOCK     CODE     NEAR LAB  LVL=1
      00000A29H   SYMBOL    EDATA    DWORD     macro_period_ns
      ---         BLOCKEND  ---      ---       LVL=1
      00FF753DH   LINE      CODE     ---       #416
      00FF7545H   LINE      CODE     ---       #417
      00FF7545H   LINE      CODE     ---       #418
      00FF756CH   LINE      CODE     ---       #420
      00FF758DH   LINE      CODE     ---       #421
      ---         BLOCKEND  ---      ---       LVL=0

      00FF7B3CH   BLOCK     CODE     ---       LVL=0
      00000CCFH   SYMBOL    EDATA    WORD      reg_val
      00FF7B3CH   LINE      CODE     ---       #430
      00FF7B40H   LINE      CODE     ---       #433
      00FF7B65H   LINE      CODE     ---       #435
      ---         BLOCKEND  ---      ---       LVL=0

      00FF6C49H   BLOCK     CODE     ---       LVL=0
      000009CFH   SYMBOL    EDATA    WORD      timeout_mclks
      00FF6C4DH   BLOCK     CODE     NEAR LAB  LVL=1
      000009D1H   SYMBOL    EDATA    DWORD     ls_byte
      000009D5H   SYMBOL    EDATA    WORD      ms_byte
      000009D7H   SYMBOL    EDATA    WORD      return_data
      ---         BLOCKEND  ---      ---       LVL=1
      00FF6C49H   LINE      CODE     ---       #444
      00FF6C4DH   LINE      CODE     ---       #445
      00FF6C4DH   LINE      CODE     ---       #446
      00FF6C53H   LINE      CODE     ---       #447
      00FF6C59H   LINE      CODE     ---       #448
      00FF6C5FH   LINE      CODE     ---       #450
      00FF6C69H   LINE      CODE     ---       #453
      00FF6C79H   LINE      CODE     ---       #454
      00FF6C7BH   LINE      CODE     ---       #456
      00FF6C8CH   LINE      CODE     ---       #457
      00FF6C9AH   LINE      CODE     ---       #458
      00FF6CABH   LINE      CODE     ---       #459
      00FF6CC3H   LINE      CODE     ---       #460
      00FF6CC3H   LINE      CODE     ---       #461
      00FF6CC7H   LINE      CODE     ---       #462
      ---         BLOCKEND  ---      ---       LVL=0

      00FF6B38H   BLOCK     CODE     ---       LVL=0
      00000C0FH   SYMBOL    EDATA    ---       enables
      00FF6B3CH   BLOCK     CODE     NEAR LAB  LVL=1
      00000C13H   SYMBOL    EDATA    BYTE      sequence_config
      ---         BLOCKEND  ---      ---       LVL=1
      00FF6B38H   LINE      CODE     ---       #471
      00FF6B3CH   LINE      CODE     ---       #472
      00FF6B3CH   LINE      CODE     ---       #473
      00FF6B41H   LINE      CODE     ---       #474
      00FF6B55H   LINE      CODE     ---       #476
      00FF6B69H   LINE      CODE     ---       #477
      00FF6B80H   LINE      CODE     ---       #478
      00FF6B96H   LINE      CODE     ---       #479
      00FF6BAFH   LINE      CODE     ---       #480
      00FF6BC5H   LINE      CODE     ---       #481
      ---         BLOCKEND  ---      ---       LVL=0

      00FF6CC8H   BLOCK     CODE     ---       LVL=0
      00000C99H   SYMBOL    EDATA    INT       type
      00FF6CCCH   BLOCK     CODE     NEAR LAB  LVL=1
L251 LINKER/LOCATER V4.66.93.0                                                        10/06/2023  19:39:35  PAGE 61


      00000C9BH   SYMBOL    EDATA    BYTE      data_buffer
      ---         BLOCKEND  ---      ---       LVL=1
      00FF6CC8H   LINE      CODE     ---       #490
      00FF6CCCH   LINE      CODE     ---       #491
      00FF6CCCH   LINE      CODE     ---       #492
      00FF6CD1H   LINE      CODE     ---       #493
      00FF6CDBH   LINE      CODE     ---       #495
      00FF6CEFH   LINE      CODE     ---       #496
      00FF6D01H   LINE      CODE     ---       #497
      00FF6D03H   LINE      CODE     ---       #498
      00FF6D0FH   LINE      CODE     ---       #500
      00FF6D23H   LINE      CODE     ---       #501
      00FF6D35H   LINE      CODE     ---       #502
      00FF6D37H   LINE      CODE     ---       #505
      00FF6D3DH   LINE      CODE     ---       #506
      00FF6D3DH   LINE      CODE     ---       #507
      00FF6D41H   LINE      CODE     ---       #508
      ---         BLOCKEND  ---      ---       LVL=0

      00FF5FD5H   BLOCK     CODE     ---       LVL=0
      000008CDH   SYMBOL    EDATA    ---       enables
      000008D1H   SYMBOL    EDATA    ---       timeouts
      00FF5FDDH   BLOCK     CODE     NEAR LAB  LVL=1
      000008D5H   SYMBOL    EDATA    ---       reg_buffer
      000008D7H   SYMBOL    EDATA    WORD      reg16_buffer
      ---         BLOCKEND  ---      ---       LVL=1
      00FF5FD5H   LINE      CODE     ---       #518
      00FF5FDDH   LINE      CODE     ---       #519
      00FF5FDDH   LINE      CODE     ---       #521
      00FF5FE3H   LINE      CODE     ---       #523
      00FF5FF1H   LINE      CODE     ---       #525
      00FF6005H   LINE      CODE     ---       #526
      00FF601AH   LINE      CODE     ---       #527
      00FF603EH   LINE      CODE     ---       #529
      00FF6052H   LINE      CODE     ---       #530
      00FF6068H   LINE      CODE     ---       #531
      00FF6078H   LINE      CODE     ---       #532
      00FF609EH   LINE      CODE     ---       #534
      00FF60B0H   LINE      CODE     ---       #536
      00FF60C4H   LINE      CODE     ---       #537
      00FF60DAH   LINE      CODE     ---       #538
      00FF60EAH   LINE      CODE     ---       #540
      00FF60FAH   LINE      CODE     ---       #542
      00FF6115H   LINE      CODE     ---       #543
      00FF6115H   LINE      CODE     ---       #545
      00FF613DH   LINE      CODE     ---       #546
      ---         BLOCKEND  ---      ---       LVL=0
      00000C14H   SYMBOL    EDATA    BYTE      vhv_init_byte
      00000C15H   SYMBOL    EDATA    BYTE      return_state
      00000C16H   SYMBOL    EDATA    BYTE      data_buffer
      00000C17H   SYMBOL    EDATA    WORD      loop_count
      00000590H   SYMBOL    EDATA    DWORD     budget_us
      00000594H   SYMBOL    EDATA    BYTE      return_state
      00000595H   SYMBOL    EDATA    ---       data_buffer
      00000598H   SYMBOL    EDATA    WORD      dat
      0000059AH   SYMBOL    EDATA    DWORD     used_budget_us
      0000059EH   SYMBOL    EDATA    DWORD     final_range_timeout_us
      000005A2H   SYMBOL    EDATA    WORD      final_range_timeout_mclks
      000005A4H   SYMBOL    EDATA    ---       enables
      000005A9H   SYMBOL    EDATA    ---       timeouts
      0000070CH   SYMBOL    EDATA    ---       enables
      00000711H   SYMBOL    EDATA    ---       timeouts
      00000727H   SYMBOL    EDATA    DWORD     budget_us
      00000A2DH   SYMBOL    EDATA    FLOAT     limit_mcps
      00000A31H   SYMBOL    EDATA    ---       data_buffer
L251 LINKER/LOCATER V4.66.93.0                                                        10/06/2023  19:39:35  PAGE 62


      00000A34H   SYMBOL    EDATA    WORD      limit_mcps_16bit
      00000C9CH   SYMBOL    EDATA    ---       reg_databuffer
      0000072BH   SYMBOL    EDATA    DWORD     measurement_timing_budget_us
      0000072FH   SYMBOL    EDATA    BYTE      stop_variable
      00000730H   SYMBOL    EDATA    BYTE      return_state
      00000731H   SYMBOL    EDATA    BYTE      reg_data_buffer
      00000732H   SYMBOL    EDATA    ---       ref_spad_map
      00000738H   SYMBOL    EDATA    ---       data_buffer
      0000073FH   SYMBOL    EDATA    BYTE      i

      ---         MODULE    ---      ---       SEEKFREE_DL1B
      00000C60H   PUBLIC    EDATA    WORD      dl1b_distance_mm
      00000C62H   PUBLIC    EDATA    BYTE      dl1b_finsh_flag
      00000C63H   PUBLIC    EDATA    BYTE      dl1b_init_flag
      000007FDH   PUBLIC    EDATA    BYTE      ?dl1b_iic_transfer_8bit_array?BYTE
      000000D0H   SFRSYM    DATA     BYTE      PSW
      0000009DH   SFRSYM    DATA     BYTE      IRCBAND
      00000097H   SFRSYM    DATA     BYTE      AUXR2
      000000EFH   SFRSYM    DATA     BYTE      AUXINTIF
      000000FDH   SFRSYM    DATA     BYTE      S4CON
      000000ACH   SFRSYM    DATA     BYTE      S3CON
      0000009AH   SFRSYM    DATA     BYTE      S2CON
      000000B7H   SFRSYM    DATA     BYTE      IPH
      000000CDH   SFRSYM    DATA     BYTE      SPSTAT
      000000DDH   SFRSYM    DATA     BYTE      T4T3M
      000000C1H   SFRSYM    DATA     BYTE      WDT_CONTR
      000000DFH   SFRSYM    DATA     BYTE      IP3
      000000F4H   SFRSYM    DATA     BYTE      USBCON
      000000B5H   SFRSYM    DATA     BYTE      IP2
      000000FFH   SFRSYM    DATA     BYTE      RSTCFG
      000000F9H   SFRSYM    DATA     BYTE      LINICR
      0000008EH   SFRSYM    DATA     BYTE      AUXR
      000000AFH   SFRSYM    DATA     BYTE      IE2
      000000C0H.7 SFRSYM    DATA     BIT       P47
      000000E8H.5 SFRSYM    DATA     BIT       P65
      000000E8H.3 SFRSYM    DATA     BIT       P63
      00000088H   SFRSYM    DATA     BYTE      TCON
      00000098H   SFRSYM    DATA     BYTE      SCON
      000000F1H   SFRSYM    DATA     BYTE      CANICR
      00000087H   SFRSYM    DATA     BYTE      PCON
      000000BCH   SFRSYM    DATA     BYTE      ADC_CONTR
      000000E7H   SFRSYM    DATA     BYTE      CMPCR2
      000000E6H   SFRSYM    DATA     BYTE      CMPCR1
      000000B8H   SFRSYM    DATA     BYTE      IP
      0000008FH   SFRSYM    DATA     BYTE      INTCLKO
      000000EEH   SFRSYM    DATA     BYTE      IP3H
      000000B6H   SFRSYM    DATA     BYTE      IP2H
      000000A8H   SFRSYM    DATA     BYTE      IE
      000000BBH   SFRSYM    DATA     BYTE      P_SW3
      000000BAH   SFRSYM    DATA     BYTE      P_SW2
      000000A2H   SFRSYM    DATA     BYTE      P_SW1
      000000CEH   SFRSYM    DATA     BYTE      SPCTL
      000000F8H   SFRSYM    DATA     BYTE      P7
      000000E8H   SFRSYM    DATA     BYTE      P6
      000000C8H   SFRSYM    DATA     BYTE      P5
      000000C0H   SFRSYM    DATA     BYTE      P4
      000000B0H   SFRSYM    DATA     BYTE      P3
      000000A0H   SFRSYM    DATA     BYTE      P2
      00000090H   SFRSYM    DATA     BYTE      P1
      00000080H   SFRSYM    DATA     BYTE      P0
      00FF7BB8H   SYMBOL    CODE     ---       dl1b_simiic_sendack
      00FF6FE1H   SYMBOL    CODE     ---       dl1b_read_ch
      00FF783DH   SYMBOL    CODE     ---       dl1b_send_ch
      00FF7CBAH   SYMBOL    CODE     ---       dl1b_sccb_waitack
      00FF0066H   SYMBOL    CODE     ---       dl1b_simiic_delay
L251 LINKER/LOCATER V4.66.93.0                                                        10/06/2023  19:39:35  PAGE 63



      00FF0066H   BLOCK     CODE     ---       LVL=0
      00000CD1H   SYMBOL    EDATA    WORD      j
      00FF0066H   LINE      CODE     ---       #76
      00FF0066H   LINE      CODE     ---       #77
      00FF0066H   LINE      CODE     ---       #78
      00FF006CH   LINE      CODE     ---       #79
      00FF0082H   LINE      CODE     ---       #80
      ---         BLOCKEND  ---      ---       LVL=0

      00FF7BB8H   BLOCK     CODE     ---       LVL=0
      00000D0CH   SYMBOL    EDATA    BYTE      ack_dat
      00FF7BB8H   LINE      CODE     ---       #107
      00FF7BBCH   LINE      CODE     ---       #109
      00FF7BBFH   LINE      CODE     ---       #110
      00FF7BC2H   LINE      CODE     ---       #111
      00FF7BD0H   LINE      CODE     ---       #112
      00FF7BD3H   LINE      CODE     ---       #114
      00FF7BD6H   LINE      CODE     ---       #115
      00FF7BD9H   LINE      CODE     ---       #116
      00FF7BDCH   LINE      CODE     ---       #117
      00FF7BDFH   LINE      CODE     ---       #118
      ---         BLOCKEND  ---      ---       LVL=0

      00FF7CBAH   BLOCK     CODE     ---       LVL=0
      00FF7CBAH   LINE      CODE     ---       #121
      00FF7CBAH   LINE      CODE     ---       #123
      00FF7CBDH   LINE      CODE     ---       #125
      00FF7CC0H   LINE      CODE     ---       #127
      00FF7CC3H   LINE      CODE     ---       #128
      00FF7CC6H   LINE      CODE     ---       #130
      00FF7CC9H   LINE      CODE     ---       #133
      00FF7CCCH   LINE      CODE     ---       #134
      00FF7CD0H   LINE      CODE     ---       #135
      00FF7CD0H   LINE      CODE     ---       #137
      00FF7CD3H   LINE      CODE     ---       #138
      00FF7CD6H   LINE      CODE     ---       #139
      00FF7CDAH   LINE      CODE     ---       #140
      ---         BLOCKEND  ---      ---       LVL=0

      00FF783DH   BLOCK     CODE     ---       LVL=0
      00000CD3H   SYMBOL    EDATA    BYTE      c
      00FF7841H   BLOCK     CODE     NEAR LAB  LVL=1
      00000CD4H   SYMBOL    EDATA    BYTE      i
      ---         BLOCKEND  ---      ---       LVL=1
      00FF783DH   LINE      CODE     ---       #146
      00FF7841H   LINE      CODE     ---       #147
      00FF7841H   LINE      CODE     ---       #148
      00FF7847H   LINE      CODE     ---       #149
      00FF7849H   LINE      CODE     ---       #151
      00FF7855H   LINE      CODE     ---       #152
      00FF7858H   LINE      CODE     ---       #153
      00FF7862H   LINE      CODE     ---       #154
      00FF7865H   LINE      CODE     ---       #155
      00FF7868H   LINE      CODE     ---       #156
      00FF786BH   LINE      CODE     ---       #157
      00FF786EH   LINE      CODE     ---       #158
      00FF7882H   LINE      CODE     ---       #159
      00FF7885H   LINE      CODE     ---       #160
      ---         BLOCKEND  ---      ---       LVL=0

      00FF6FE1H   BLOCK     CODE     ---       LVL=0
      00000C9FH   SYMBOL    EDATA    BYTE      ack_x
      00FF6FE5H   BLOCK     CODE     NEAR LAB  LVL=1
      00000CA0H   SYMBOL    EDATA    BYTE      i
L251 LINKER/LOCATER V4.66.93.0                                                        10/06/2023  19:39:35  PAGE 64


      00000CA1H   SYMBOL    EDATA    BYTE      c
      ---         BLOCKEND  ---      ---       LVL=1
      00FF6FE1H   LINE      CODE     ---       #166
      00FF6FE5H   LINE      CODE     ---       #167
      00FF6FE5H   LINE      CODE     ---       #170
      00FF6FEAH   LINE      CODE     ---       #171
      00FF6FEDH   LINE      CODE     ---       #172
      00FF6FF0H   LINE      CODE     ---       #173
      00FF6FF3H   LINE      CODE     ---       #175
      00FF6FFAH   LINE      CODE     ---       #177
      00FF6FFDH   LINE      CODE     ---       #178
      00FF7000H   LINE      CODE     ---       #179
      00FF7003H   LINE      CODE     ---       #180
      00FF7006H   LINE      CODE     ---       #181
      00FF7009H   LINE      CODE     ---       #182
      00FF7013H   LINE      CODE     ---       #183
      00FF7016H   LINE      CODE     ---       #185
      00FF7022H   LINE      CODE     ---       #186
      00FF7039H   LINE      CODE     ---       #189
      00FF703CH   LINE      CODE     ---       #190
      00FF703FH   LINE      CODE     ---       #191
      00FF7046H   LINE      CODE     ---       #193
      00FF704AH   LINE      CODE     ---       #194
      ---         BLOCKEND  ---      ---       LVL=0
      000007FDH   SYMBOL    EDATA    ---       write_data
      00000801H   SYMBOL    EDATA    DWORD     write_len
      00000805H   SYMBOL    EDATA    ---       read_data
      00000809H   SYMBOL    EDATA    DWORD     read_len
      00000C19H   SYMBOL    EDATA    ---       data_buffer
      00000C1CH   SYMBOL    EDATA    INT       dl1b_distance_temp
      00000238H   SYMBOL    EDATA    BYTE      return_state
      00000239H   SYMBOL    EDATA    ---       data_buffer
      000002C2H   SYMBOL    EDATA    WORD      time_out_count

      ---         MODULE    ---      ---       SEEKFREE_FONT
      00FF212DH   PUBLIC    CODE     ---       oled_8x16
      00FF271DH   PUBLIC    CODE     ---       tft_ascii
      00FF2D0DH   PUBLIC    CODE     ---       oled_6x8
      000000D0H   SFRSYM    DATA     BYTE      PSW
      0000009DH   SFRSYM    DATA     BYTE      IRCBAND
      00000097H   SFRSYM    DATA     BYTE      AUXR2
      000000EFH   SFRSYM    DATA     BYTE      AUXINTIF
      000000FDH   SFRSYM    DATA     BYTE      S4CON
      000000ACH   SFRSYM    DATA     BYTE      S3CON
      0000009AH   SFRSYM    DATA     BYTE      S2CON
      000000B7H   SFRSYM    DATA     BYTE      IPH
      000000CDH   SFRSYM    DATA     BYTE      SPSTAT
      000000DDH   SFRSYM    DATA     BYTE      T4T3M
      000000C1H   SFRSYM    DATA     BYTE      WDT_CONTR
      000000DFH   SFRSYM    DATA     BYTE      IP3
      000000F4H   SFRSYM    DATA     BYTE      USBCON
      000000B5H   SFRSYM    DATA     BYTE      IP2
      000000FFH   SFRSYM    DATA     BYTE      RSTCFG
      000000F9H   SFRSYM    DATA     BYTE      LINICR
      0000008EH   SFRSYM    DATA     BYTE      AUXR
      000000AFH   SFRSYM    DATA     BYTE      IE2
      00000088H   SFRSYM    DATA     BYTE      TCON
      00000098H   SFRSYM    DATA     BYTE      SCON
      000000F1H   SFRSYM    DATA     BYTE      CANICR
      00000087H   SFRSYM    DATA     BYTE      PCON
      000000BCH   SFRSYM    DATA     BYTE      ADC_CONTR
      000000E7H   SFRSYM    DATA     BYTE      CMPCR2
      000000E6H   SFRSYM    DATA     BYTE      CMPCR1
      000000B8H   SFRSYM    DATA     BYTE      IP
      0000008FH   SFRSYM    DATA     BYTE      INTCLKO
L251 LINKER/LOCATER V4.66.93.0                                                        10/06/2023  19:39:35  PAGE 65


      000000EEH   SFRSYM    DATA     BYTE      IP3H
      000000B6H   SFRSYM    DATA     BYTE      IP2H
      000000A8H   SFRSYM    DATA     BYTE      IE
      000000BBH   SFRSYM    DATA     BYTE      P_SW3
      000000BAH   SFRSYM    DATA     BYTE      P_SW2
      000000A2H   SFRSYM    DATA     BYTE      P_SW1
      000000CEH   SFRSYM    DATA     BYTE      SPCTL
      000000F8H   SFRSYM    DATA     BYTE      P7
      000000E8H   SFRSYM    DATA     BYTE      P6
      000000C8H   SFRSYM    DATA     BYTE      P5
      000000C0H   SFRSYM    DATA     BYTE      P4
      000000B0H   SFRSYM    DATA     BYTE      P3
      000000A0H   SFRSYM    DATA     BYTE      P2
      00000090H   SFRSYM    DATA     BYTE      P1
      00000080H   SFRSYM    DATA     BYTE      P0

      ---         MODULE    ---      ---       SEEKFREE_ICM20602
      000008D9H   PUBLIC    EDATA    INT       icm20602_acc_x
      000008DBH   PUBLIC    EDATA    INT       icm20602_acc_y
      000008DDH   PUBLIC    EDATA    INT       icm20602_acc_z
      000008DFH   PUBLIC    EDATA    INT       icm20602_gyro_x
      000008E1H   PUBLIC    EDATA    INT       icm20602_gyro_y
      000008E3H   PUBLIC    EDATA    INT       icm20602_gyro_z
      000000D0H   SFRSYM    DATA     BYTE      PSW
      0000009DH   SFRSYM    DATA     BYTE      IRCBAND
      00000097H   SFRSYM    DATA     BYTE      AUXR2
      000000EFH   SFRSYM    DATA     BYTE      AUXINTIF
      000000FDH   SFRSYM    DATA     BYTE      S4CON
      000000ACH   SFRSYM    DATA     BYTE      S3CON
      0000009AH   SFRSYM    DATA     BYTE      S2CON
      000000B7H   SFRSYM    DATA     BYTE      IPH
      000000CDH   SFRSYM    DATA     BYTE      SPSTAT
      000000DDH   SFRSYM    DATA     BYTE      T4T3M
      000000C1H   SFRSYM    DATA     BYTE      WDT_CONTR
      000000DFH   SFRSYM    DATA     BYTE      IP3
      000000F4H   SFRSYM    DATA     BYTE      USBCON
      000000B5H   SFRSYM    DATA     BYTE      IP2
      000000FFH   SFRSYM    DATA     BYTE      RSTCFG
      000000F9H   SFRSYM    DATA     BYTE      LINICR
      0000008EH   SFRSYM    DATA     BYTE      AUXR
      000000AFH   SFRSYM    DATA     BYTE      IE2
      000000C0H.3 SFRSYM    DATA     BIT       P43
      000000C0H.2 SFRSYM    DATA     BIT       P42
      00000088H   SFRSYM    DATA     BYTE      TCON
      000000C0H.1 SFRSYM    DATA     BIT       P41
      00000098H   SFRSYM    DATA     BYTE      SCON
      000000C0H.0 SFRSYM    DATA     BIT       P40
      000000F1H   SFRSYM    DATA     BYTE      CANICR
      00000087H   SFRSYM    DATA     BYTE      PCON
      000000BCH   SFRSYM    DATA     BYTE      ADC_CONTR
      000000E7H   SFRSYM    DATA     BYTE      CMPCR2
      000000E6H   SFRSYM    DATA     BYTE      CMPCR1
      000000B8H   SFRSYM    DATA     BYTE      IP
      0000008FH   SFRSYM    DATA     BYTE      INTCLKO
      000000EEH   SFRSYM    DATA     BYTE      IP3H
      000000B6H   SFRSYM    DATA     BYTE      IP2H
      000000A8H   SFRSYM    DATA     BYTE      IE
      000000BBH   SFRSYM    DATA     BYTE      P_SW3
      000000BAH   SFRSYM    DATA     BYTE      P_SW2
      000000A2H   SFRSYM    DATA     BYTE      P_SW1
      000000CEH   SFRSYM    DATA     BYTE      SPCTL
      000000F8H   SFRSYM    DATA     BYTE      P7
      000000E8H   SFRSYM    DATA     BYTE      P6
      000000C8H   SFRSYM    DATA     BYTE      P5
      000000C0H   SFRSYM    DATA     BYTE      P4
L251 LINKER/LOCATER V4.66.93.0                                                        10/06/2023  19:39:35  PAGE 66


      000000B0H   SFRSYM    DATA     BYTE      P3
      000000A0H   SFRSYM    DATA     BYTE      P2
      00000090H   SFRSYM    DATA     BYTE      P1
      00000080H   SFRSYM    DATA     BYTE      P0
      00FF7D1CH   SYMBOL    CODE     ---       icm20602_read_register
      00FF7237H   SYMBOL    CODE     ---       icm20602_simspi_wr_byte
      00FF758EH   SYMBOL    CODE     ---       icm20602_simspi_r_reg_bytes
      00FF7C08H   SYMBOL    CODE     ---       icm20602_simspi_r_reg_byte

      00FF7237H   BLOCK     CODE     ---       LVL=0
      00000CD5H   SYMBOL    EDATA    BYTE      byte
      00FF723BH   BLOCK     CODE     NEAR LAB  LVL=1
      00000CD6H   SYMBOL    EDATA    BYTE      i
      ---         BLOCKEND  ---      ---       LVL=1
      00FF7237H   LINE      CODE     ---       #278
      00FF723BH   LINE      CODE     ---       #279
      00FF723BH   LINE      CODE     ---       #282
      00FF7242H   LINE      CODE     ---       #284
      00FF7250H   LINE      CODE     ---       #285
      00FF725AH   LINE      CODE     ---       #286
      00FF725DH   LINE      CODE     ---       #287
      00FF7260H   LINE      CODE     ---       #289
      00FF7263H   LINE      CODE     ---       #290
      00FF7266H   LINE      CODE     ---       #291
      00FF7274H   LINE      CODE     ---       #292
      00FF728BH   LINE      CODE     ---       #293
      00FF728FH   LINE      CODE     ---       #294
      ---         BLOCKEND  ---      ---       LVL=0
      00000CD7H   SYMBOL    EDATA    BYTE      cmd
      00000CD8H   SYMBOL    EDATA    BYTE      val

      00FF7C08H   BLOCK     CODE     ---       LVL=0
      00000C1EH   SYMBOL    EDATA    BYTE      cmd
      00000C1FH   SYMBOL    EDATA    ---       val
      00FF7C08H   LINE      CODE     ---       #340
      00FF7C10H   LINE      CODE     ---       #343
      00FF7C1CH   LINE      CODE     ---       #344
      00FF7C23H   LINE      CODE     ---       #345
      00FF7C2EH   LINE      CODE     ---       #347
      ---         BLOCKEND  ---      ---       LVL=0

      00FF758EH   BLOCK     CODE     ---       LVL=0
      00000853H   SYMBOL    EDATA    BYTE      cmd
      00000854H   SYMBOL    EDATA    ---       val
      00000858H   SYMBOL    EDATA    DWORD     num
      00FF759AH   BLOCK     CODE     NEAR LAB  LVL=1
      0000085CH   SYMBOL    EDATA    DWORD     i
      ---         BLOCKEND  ---      ---       LVL=1
      00FF758EH   LINE      CODE     ---       #357
      00FF759AH   LINE      CODE     ---       #358
      00FF759AH   LINE      CODE     ---       #359
      00FF75A0H   LINE      CODE     ---       #360
      00FF75ACH   LINE      CODE     ---       #361
      00FF75B3H   LINE      CODE     ---       #363
      00FF75B5H   LINE      CODE     ---       #365
      00FF75CAH   LINE      CODE     ---       #366
      00FF75DEH   LINE      CODE     ---       #367
      ---         BLOCKEND  ---      ---       LVL=0
      00000CD9H   SYMBOL    EDATA    BYTE      reg
      00000CDAH   SYMBOL    EDATA    BYTE      dat

      00FF7D1CH   BLOCK     CODE     ---       LVL=0
      00000CDBH   SYMBOL    EDATA    BYTE      reg
      00FF7D20H   BLOCK     CODE     NEAR LAB  LVL=1
      00000CDCH   SYMBOL    EDATA    BYTE      dat
L251 LINKER/LOCATER V4.66.93.0                                                        10/06/2023  19:39:35  PAGE 67


      ---         BLOCKEND  ---      ---       LVL=1
      00FF7D1CH   LINE      CODE     ---       #407
      00FF7D20H   LINE      CODE     ---       #408
      00FF7D20H   LINE      CODE     ---       #410
      00FF7D23H   LINE      CODE     ---       #411
      00FF7D32H   LINE      CODE     ---       #412
      00FF7D35H   LINE      CODE     ---       #413
      00FF7D39H   LINE      CODE     ---       #414
      ---         BLOCKEND  ---      ---       LVL=0
      00000A36H   SYMBOL    EDATA    BYTE      reg
      00000A37H   SYMBOL    EDATA    ---       dat
      00000A3BH   SYMBOL    EDATA    DWORD     len
      00000C64H   SYMBOL    EDATA    BYTE      dat
      00000C65H   SYMBOL    EDATA    BYTE      return_state
      00000C66H   SYMBOL    EDATA    WORD      timeout_count
      00000B8CH   SYMBOL    EDATA    ---       dat
      00000B92H   SYMBOL    EDATA    ---       dat
      00000B98H   SYMBOL    EDATA    INT       acc_value
      00000B9AH   SYMBOL    EDATA    FLOAT     acc_data
      00000B9EH   SYMBOL    EDATA    INT       gyro_value
      00000BA0H   SYMBOL    EDATA    FLOAT     gyro_data
      00000C68H   SYMBOL    EDATA    BYTE      val
      00000C69H   SYMBOL    EDATA    BYTE      return_state
      00000C6AH   SYMBOL    EDATA    WORD      timeout_count

      ---         MODULE    ---      ---       SEEKFREE_IMU660RA
      000008E5H   PUBLIC    EDATA    INT       imu660ra_acc_x
      000008E7H   PUBLIC    EDATA    INT       imu660ra_acc_y
      000008E9H   PUBLIC    EDATA    INT       imu660ra_acc_z
      000008EBH   PUBLIC    EDATA    INT       imu660ra_gyro_x
      000008EDH   PUBLIC    EDATA    INT       imu660ra_gyro_y
      000008EFH   PUBLIC    EDATA    INT       imu660ra_gyro_z
      000000D0H   SFRSYM    DATA     BYTE      PSW
      0000009DH   SFRSYM    DATA     BYTE      IRCBAND
      00000097H   SFRSYM    DATA     BYTE      AUXR2
      000000EFH   SFRSYM    DATA     BYTE      AUXINTIF
      000000FDH   SFRSYM    DATA     BYTE      S4CON
      000000ACH   SFRSYM    DATA     BYTE      S3CON
      0000009AH   SFRSYM    DATA     BYTE      S2CON
      000000B7H   SFRSYM    DATA     BYTE      IPH
      000000CDH   SFRSYM    DATA     BYTE      SPSTAT
      000000DDH   SFRSYM    DATA     BYTE      T4T3M
      000000C1H   SFRSYM    DATA     BYTE      WDT_CONTR
      000000DFH   SFRSYM    DATA     BYTE      IP3
      000000F4H   SFRSYM    DATA     BYTE      USBCON
      000000B5H   SFRSYM    DATA     BYTE      IP2
      000000FFH   SFRSYM    DATA     BYTE      RSTCFG
      000000F9H   SFRSYM    DATA     BYTE      LINICR
      0000008EH   SFRSYM    DATA     BYTE      AUXR
      000000AFH   SFRSYM    DATA     BYTE      IE2
      000000C0H.3 SFRSYM    DATA     BIT       P43
      000000C0H.2 SFRSYM    DATA     BIT       P42
      00000088H   SFRSYM    DATA     BYTE      TCON
      000000C0H.1 SFRSYM    DATA     BIT       P41
      00000098H   SFRSYM    DATA     BYTE      SCON
      000000C0H.0 SFRSYM    DATA     BIT       P40
      000000F1H   SFRSYM    DATA     BYTE      CANICR
      00000087H   SFRSYM    DATA     BYTE      PCON
      000000BCH   SFRSYM    DATA     BYTE      ADC_CONTR
      000000E7H   SFRSYM    DATA     BYTE      CMPCR2
      000000E6H   SFRSYM    DATA     BYTE      CMPCR1
      000000B8H   SFRSYM    DATA     BYTE      IP
      0000008FH   SFRSYM    DATA     BYTE      INTCLKO
      000000EEH   SFRSYM    DATA     BYTE      IP3H
      000000B6H   SFRSYM    DATA     BYTE      IP2H
L251 LINKER/LOCATER V4.66.93.0                                                        10/06/2023  19:39:35  PAGE 68


      000000A8H   SFRSYM    DATA     BYTE      IE
      000000BBH   SFRSYM    DATA     BYTE      P_SW3
      000000BAH   SFRSYM    DATA     BYTE      P_SW2
      000000A2H   SFRSYM    DATA     BYTE      P_SW1
      000000CEH   SFRSYM    DATA     BYTE      SPCTL
      000000F8H   SFRSYM    DATA     BYTE      P7
      000000E8H   SFRSYM    DATA     BYTE      P6
      000000C8H   SFRSYM    DATA     BYTE      P5
      000000C0H   SFRSYM    DATA     BYTE      P4
      000000B0H   SFRSYM    DATA     BYTE      P3
      000000A0H   SFRSYM    DATA     BYTE      P2
      00000090H   SFRSYM    DATA     BYTE      P1
      00000080H   SFRSYM    DATA     BYTE      P0
      00FF7C77H   SYMBOL    CODE     ---       imu660ra_read_register
      00FF7290H   SYMBOL    CODE     ---       imu660ra_simspi_wr_byte
      00FF77A9H   SYMBOL    CODE     ---       imu660ra_simspi_r_reg_bytes

      00FF7290H   BLOCK     CODE     ---       LVL=0
      00000CDDH   SYMBOL    EDATA    BYTE      byte
      00FF7294H   BLOCK     CODE     NEAR LAB  LVL=1
      00000CDEH   SYMBOL    EDATA    BYTE      i
      ---         BLOCKEND  ---      ---       LVL=1
      00FF7290H   LINE      CODE     ---       #309
      00FF7294H   LINE      CODE     ---       #310
      00FF7294H   LINE      CODE     ---       #313
      00FF729BH   LINE      CODE     ---       #315
      00FF72A9H   LINE      CODE     ---       #316
      00FF72B3H   LINE      CODE     ---       #317
      00FF72B6H   LINE      CODE     ---       #318
      00FF72B9H   LINE      CODE     ---       #319
      00FF72BCH   LINE      CODE     ---       #320
      00FF72BFH   LINE      CODE     ---       #322
      00FF72CDH   LINE      CODE     ---       #323
      00FF72E4H   LINE      CODE     ---       #324
      00FF72E8H   LINE      CODE     ---       #325
      ---         BLOCKEND  ---      ---       LVL=0
      00000CDFH   SYMBOL    EDATA    BYTE      cmd
      00000CE0H   SYMBOL    EDATA    BYTE      val
      00000A3FH   SYMBOL    EDATA    BYTE      cmd
      00000A40H   SYMBOL    EDATA    ---       dat_addr
      00000A44H   SYMBOL    EDATA    DWORD     len

      00FF77A9H   BLOCK     CODE     ---       LVL=0
      00000A48H   SYMBOL    EDATA    BYTE      cmd
      00000A49H   SYMBOL    EDATA    ---       val
      00000A4DH   SYMBOL    EDATA    DWORD     num
      00FF77A9H   LINE      CODE     ---       #382
      00FF77B5H   LINE      CODE     ---       #384
      00FF77C1H   LINE      CODE     ---       #385
      00FF77C8H   LINE      CODE     ---       #387
      00FF77CAH   LINE      CODE     ---       #389
      00FF77DFH   LINE      CODE     ---       #390
      00FF77F3H   LINE      CODE     ---       #391
      ---         BLOCKEND  ---      ---       LVL=0
      00000CE1H   SYMBOL    EDATA    BYTE      reg
      00000CE2H   SYMBOL    EDATA    BYTE      dat
      00000A51H   SYMBOL    EDATA    BYTE      reg
      00000A52H   SYMBOL    EDATA    ---       dat
      00000A56H   SYMBOL    EDATA    DWORD     len

      00FF7C77H   BLOCK     CODE     ---       LVL=0
      00000CA2H   SYMBOL    EDATA    BYTE      reg
      00FF7C7BH   BLOCK     CODE     NEAR LAB  LVL=1
      00000CA3H   SYMBOL    EDATA    ---       dat
      ---         BLOCKEND  ---      ---       LVL=1
L251 LINKER/LOCATER V4.66.93.0                                                        10/06/2023  19:39:35  PAGE 69


      00FF7C77H   LINE      CODE     ---       #432
      00FF7C7BH   LINE      CODE     ---       #433
      00FF7C7BH   LINE      CODE     ---       #435
      00FF7C7EH   LINE      CODE     ---       #436
      00FF7C91H   LINE      CODE     ---       #437
      00FF7C94H   LINE      CODE     ---       #438
      00FF7C98H   LINE      CODE     ---       #439
      ---         BLOCKEND  ---      ---       LVL=0
      00000A5AH   SYMBOL    EDATA    BYTE      reg
      00000A5BH   SYMBOL    EDATA    ---       dat
      00000A5FH   SYMBOL    EDATA    DWORD     len
      00000C6CH   SYMBOL    EDATA    BYTE      dat
      00000C6DH   SYMBOL    EDATA    BYTE      return_state
      00000C6EH   SYMBOL    EDATA    WORD      timeout_count
      00000B4CH   SYMBOL    EDATA    ---       dat
      00000B53H   SYMBOL    EDATA    ---       dat
      00000BA4H   SYMBOL    EDATA    INT       acc_value
      00000BA6H   SYMBOL    EDATA    FLOAT     acc_dat
      00000BAAH   SYMBOL    EDATA    INT       gyro_value
      00000BACH   SYMBOL    EDATA    FLOAT     gyro_dat
      00000D0DH   SYMBOL    EDATA    BYTE      return_state

      ---         MODULE    ---      ---       SEEKFREE_IMU963RA
      000007B7H   PUBLIC    EDATA    INT       imu963ra_acc_x
      000007B9H   PUBLIC    EDATA    INT       imu963ra_acc_y
      000007BBH   PUBLIC    EDATA    INT       imu963ra_acc_z
      000007BDH   PUBLIC    EDATA    INT       imu963ra_mag_x
      000007BFH   PUBLIC    EDATA    INT       imu963ra_mag_y
      000007C1H   PUBLIC    EDATA    INT       imu963ra_mag_z
      000007C3H   PUBLIC    EDATA    INT       imu963ra_gyro_x
      000007C5H   PUBLIC    EDATA    INT       imu963ra_gyro_y
      000007C7H   PUBLIC    EDATA    INT       imu963ra_gyro_z
      000000D0H   SFRSYM    DATA     BYTE      PSW
      0000009DH   SFRSYM    DATA     BYTE      IRCBAND
      00000097H   SFRSYM    DATA     BYTE      AUXR2
      000000EFH   SFRSYM    DATA     BYTE      AUXINTIF
      000000FDH   SFRSYM    DATA     BYTE      S4CON
      000000ACH   SFRSYM    DATA     BYTE      S3CON
      0000009AH   SFRSYM    DATA     BYTE      S2CON
      000000B7H   SFRSYM    DATA     BYTE      IPH
      000000CDH   SFRSYM    DATA     BYTE      SPSTAT
      000000DDH   SFRSYM    DATA     BYTE      T4T3M
      000000C1H   SFRSYM    DATA     BYTE      WDT_CONTR
      000000DFH   SFRSYM    DATA     BYTE      IP3
      000000F4H   SFRSYM    DATA     BYTE      USBCON
      000000B5H   SFRSYM    DATA     BYTE      IP2
      000000FFH   SFRSYM    DATA     BYTE      RSTCFG
      000000F9H   SFRSYM    DATA     BYTE      LINICR
      0000008EH   SFRSYM    DATA     BYTE      AUXR
      000000AFH   SFRSYM    DATA     BYTE      IE2
      000000C0H.3 SFRSYM    DATA     BIT       P43
      000000C0H.2 SFRSYM    DATA     BIT       P42
      00000088H   SFRSYM    DATA     BYTE      TCON
      000000C0H.1 SFRSYM    DATA     BIT       P41
      00000098H   SFRSYM    DATA     BYTE      SCON
      000000C0H.0 SFRSYM    DATA     BIT       P40
      000000F1H   SFRSYM    DATA     BYTE      CANICR
      00000087H   SFRSYM    DATA     BYTE      PCON
      000000BCH   SFRSYM    DATA     BYTE      ADC_CONTR
      000000E7H   SFRSYM    DATA     BYTE      CMPCR2
      000000E6H   SFRSYM    DATA     BYTE      CMPCR1
      000000B8H   SFRSYM    DATA     BYTE      IP
      0000008FH   SFRSYM    DATA     BYTE      INTCLKO
      000000EEH   SFRSYM    DATA     BYTE      IP3H
      000000B6H   SFRSYM    DATA     BYTE      IP2H
L251 LINKER/LOCATER V4.66.93.0                                                        10/06/2023  19:39:35  PAGE 70


      000000A8H   SFRSYM    DATA     BYTE      IE
      000000BBH   SFRSYM    DATA     BYTE      P_SW3
      000000BAH   SFRSYM    DATA     BYTE      P_SW2
      000000A2H   SFRSYM    DATA     BYTE      P_SW1
      000000CEH   SFRSYM    DATA     BYTE      SPCTL
      000000F8H   SFRSYM    DATA     BYTE      P7
      000000E8H   SFRSYM    DATA     BYTE      P6
      000000C8H   SFRSYM    DATA     BYTE      P5
      000000C0H   SFRSYM    DATA     BYTE      P4
      000000B0H   SFRSYM    DATA     BYTE      P3
      000000A0H   SFRSYM    DATA     BYTE      P2
      00000090H   SFRSYM    DATA     BYTE      P1
      00000080H   SFRSYM    DATA     BYTE      P0
      00FF72E9H   SYMBOL    CODE     ---       imu963ra_simspi_wr_byte
      00FF6EA1H   SYMBOL    CODE     ---       imu963ra_read_mag_register
      00FF7C54H   SYMBOL    CODE     ---       imu963ra_read_acc_gyro_register
      00FF7AE5H   SYMBOL    CODE     ---       imu963ra_simspi_r_reg_byte
      00FF7DADH   SYMBOL    CODE     ---       imu963ra_write_acc_gyro_register
      00FF7CDBH   SYMBOL    CODE     ---       imu963ra_simspi_w_reg_byte

      00FF72E9H   BLOCK     CODE     ---       LVL=0
      00000CE3H   SYMBOL    EDATA    BYTE      byte
      00FF72EDH   BLOCK     CODE     NEAR LAB  LVL=1
      00000CE4H   SYMBOL    EDATA    BYTE      i
      ---         BLOCKEND  ---      ---       LVL=1
      00FF72E9H   LINE      CODE     ---       #344
      00FF72EDH   LINE      CODE     ---       #345
      00FF72EDH   LINE      CODE     ---       #348
      00FF72F4H   LINE      CODE     ---       #350
      00FF7302H   LINE      CODE     ---       #351
      00FF730CH   LINE      CODE     ---       #352
      00FF730FH   LINE      CODE     ---       #353
      00FF7312H   LINE      CODE     ---       #355
      00FF7315H   LINE      CODE     ---       #356
      00FF7318H   LINE      CODE     ---       #357
      00FF7326H   LINE      CODE     ---       #358
      00FF733DH   LINE      CODE     ---       #359
      00FF7341H   LINE      CODE     ---       #360
      ---         BLOCKEND  ---      ---       LVL=0

      00FF7CDBH   BLOCK     CODE     ---       LVL=0
      00000CE5H   SYMBOL    EDATA    BYTE      cmd
      00000CE6H   SYMBOL    EDATA    BYTE      val
      00FF7CDBH   LINE      CODE     ---       #368
      00FF7CE3H   LINE      CODE     ---       #370
      00FF7CE6H   LINE      CODE     ---       #371
      00FF7CEAH   LINE      CODE     ---       #372
      00FF7CF1H   LINE      CODE     ---       #373
      00FF7CF8H   LINE      CODE     ---       #374
      00FF7CFBH   LINE      CODE     ---       #375
      ---         BLOCKEND  ---      ---       LVL=0

      00FF7AE5H   BLOCK     CODE     ---       LVL=0
      00000C23H   SYMBOL    EDATA    BYTE      cmd
      00000C24H   SYMBOL    EDATA    ---       val
      00FF7AE5H   LINE      CODE     ---       #406
      00FF7AEDH   LINE      CODE     ---       #408
      00FF7AF0H   LINE      CODE     ---       #409
      00FF7AFCH   LINE      CODE     ---       #410
      00FF7B03H   LINE      CODE     ---       #411
      00FF7B0EH   LINE      CODE     ---       #412
      00FF7B11H   LINE      CODE     ---       #413
      ---         BLOCKEND  ---      ---       LVL=0
      00000A63H   SYMBOL    EDATA    BYTE      cmd
      00000A64H   SYMBOL    EDATA    ---       val
L251 LINKER/LOCATER V4.66.93.0                                                        10/06/2023  19:39:35  PAGE 71


      00000A68H   SYMBOL    EDATA    DWORD     num

      00FF7DADH   BLOCK     CODE     ---       LVL=0
      00000CE7H   SYMBOL    EDATA    BYTE      reg
      00000CE8H   SYMBOL    EDATA    BYTE      dat
      00FF7DADH   LINE      CODE     ---       #445
      00FF7DB5H   LINE      CODE     ---       #447
      00FF7DB8H   LINE      CODE     ---       #448
      00FF7DC3H   LINE      CODE     ---       #450
      00FF7DC6H   LINE      CODE     ---       #451
      ---         BLOCKEND  ---      ---       LVL=0

      00FF7C54H   BLOCK     CODE     ---       LVL=0
      00000CE9H   SYMBOL    EDATA    BYTE      reg
      00FF7C58H   BLOCK     CODE     NEAR LAB  LVL=1
      00000CEAH   SYMBOL    EDATA    BYTE      dat
      ---         BLOCKEND  ---      ---       LVL=1
      00FF7C54H   LINE      CODE     ---       #460
      00FF7C58H   LINE      CODE     ---       #461
      00FF7C58H   LINE      CODE     ---       #462
      00FF7C5DH   LINE      CODE     ---       #463
      00FF7C60H   LINE      CODE     ---       #464
      00FF7C6FH   LINE      CODE     ---       #465
      00FF7C72H   LINE      CODE     ---       #466
      00FF7C76H   LINE      CODE     ---       #467
      ---         BLOCKEND  ---      ---       LVL=0
      00000A6CH   SYMBOL    EDATA    BYTE      reg
      00000A6DH   SYMBOL    EDATA    ---       dat
      00000A71H   SYMBOL    EDATA    DWORD     len
      00000BB0H   SYMBOL    EDATA    BYTE      addr
      00000BB1H   SYMBOL    EDATA    BYTE      reg
      00000BB2H   SYMBOL    EDATA    BYTE      dat
      00000BB3H   SYMBOL    EDATA    BYTE      return_state
      00000BB4H   SYMBOL    EDATA    WORD      timeout_count

      00FF6EA1H   BLOCK     CODE     ---       LVL=0
      00000C70H   SYMBOL    EDATA    BYTE      addr
      00000C71H   SYMBOL    EDATA    BYTE      reg
      00FF6EA9H   BLOCK     CODE     NEAR LAB  LVL=1
      00000C72H   SYMBOL    EDATA    WORD      timeout_count
      ---         BLOCKEND  ---      ---       LVL=1
      00FF6EA1H   LINE      CODE     ---       #529
      00FF6EA9H   LINE      CODE     ---       #530
      00FF6EA9H   LINE      CODE     ---       #531
      00FF6EAFH   LINE      CODE     ---       #533
      00FF6EB9H   LINE      CODE     ---       #534
      00FF6EC7H   LINE      CODE     ---       #535
      00FF6ED0H   LINE      CODE     ---       #536
      00FF6ED8H   LINE      CODE     ---       #537
      00FF6EE0H   LINE      CODE     ---       #540
      00FF6EE2H   LINE      CODE     ---       #542
      00FF6EF8H   LINE      CODE     ---       #544
      00FF6EF8H   LINE      CODE     ---       #545
      00FF6EF8H   LINE      CODE     ---       #546
      00FF6EFFH   LINE      CODE     ---       #547
      00FF6F07H   LINE      CODE     ---       #549
      00FF6F0CH   LINE      CODE     ---       #550
      ---         BLOCKEND  ---      ---       LVL=0
      00000CEBH   SYMBOL    EDATA    BYTE      addr
      00000CECH   SYMBOL    EDATA    BYTE      reg
      00000C74H   SYMBOL    EDATA    BYTE      return_state
      00000C75H   SYMBOL    EDATA    BYTE      dat
      00000C76H   SYMBOL    EDATA    WORD      timeout_count
      00000C78H   SYMBOL    EDATA    BYTE      return_state
      00000C79H   SYMBOL    EDATA    BYTE      dat
L251 LINKER/LOCATER V4.66.93.0                                                        10/06/2023  19:39:35  PAGE 72


      00000C7AH   SYMBOL    EDATA    WORD      timeout_count
      00000BB6H   SYMBOL    EDATA    ---       dat
      00000BBCH   SYMBOL    EDATA    ---       dat
      00000B5AH   SYMBOL    EDATA    BYTE      temp_status
      00000B5BH   SYMBOL    EDATA    ---       dat
      00000BC2H   SYMBOL    EDATA    INT       acc_value
      00000BC4H   SYMBOL    EDATA    FLOAT     acc_dat
      00000BC8H   SYMBOL    EDATA    INT       gyro_value
      00000BCAH   SYMBOL    EDATA    FLOAT     gyro_dat
      00000BCEH   SYMBOL    EDATA    INT       mag_value
      00000BD0H   SYMBOL    EDATA    FLOAT     mag_dat
      00000D0EH   SYMBOL    EDATA    BYTE      return_state

      ---         MODULE    ---      ---       SEEKFREE_IPS114_SPI
      00FF7B66H   PUBLIC    CODE     ---       ips114_writedata_16bit
      00FF6879H   PUBLIC    CODE     ---       ips114_showchar
      00FF67ACH   PUBLIC    CODE     ---       ips114_showuint16
      00FF717BH   PUBLIC    CODE     ---       ips114_clear
      00FF73EDH   PUBLIC    CODE     ---       ips114_writeDatai_16bit_simspi
      00FF76C5H   PUBLIC    CODE     ---       ips114_writeIndex_simspi
      00FF7E51H   PUBLIC    CODE     ---       ips114_writeIndex
      00FF7E66H   PUBLIC    CODE     ---       ips114_writeData
      00FF7496H   PUBLIC    CODE     ---       ips114_set_region
      00FF5E61H   PUBLIC    CODE     ---       ips114_init
      000004D0H   PUBLIC    EDATA    BYTE      ?ips114_showfloat_simspi?BYTE
      00000500H   PUBLIC    EDATA    BYTE      ?ips114_showfloat?BYTE
      000000D0H   SFRSYM    DATA     BYTE      PSW
      0000009DH   SFRSYM    DATA     BYTE      IRCBAND
      00000097H   SFRSYM    DATA     BYTE      AUXR2
      000000EFH   SFRSYM    DATA     BYTE      AUXINTIF
      000000FDH   SFRSYM    DATA     BYTE      S4CON
      000000ACH   SFRSYM    DATA     BYTE      S3CON
      0000009AH   SFRSYM    DATA     BYTE      S2CON
      000000B7H   SFRSYM    DATA     BYTE      IPH
      000000CDH   SFRSYM    DATA     BYTE      SPSTAT
      000000DDH   SFRSYM    DATA     BYTE      T4T3M
      000000C1H   SFRSYM    DATA     BYTE      WDT_CONTR
      000000DFH   SFRSYM    DATA     BYTE      IP3
      000000F4H   SFRSYM    DATA     BYTE      USBCON
      000000B5H   SFRSYM    DATA     BYTE      IP2
      000000FFH   SFRSYM    DATA     BYTE      RSTCFG
      000000F9H   SFRSYM    DATA     BYTE      LINICR
      0000008EH   SFRSYM    DATA     BYTE      AUXR
      000000AFH   SFRSYM    DATA     BYTE      IE2
      000000A0H.7 SFRSYM    DATA     BIT       P27
      000000A0H.5 SFRSYM    DATA     BIT       P25
      00000088H   SFRSYM    DATA     BYTE      TCON
      000000A0H.3 SFRSYM    DATA     BIT       P23
      00000098H   SFRSYM    DATA     BYTE      SCON
      000000A0H.2 SFRSYM    DATA     BIT       P22
      000000A0H.1 SFRSYM    DATA     BIT       P21
      000000A0H.0 SFRSYM    DATA     BIT       P20
      000000F1H   SFRSYM    DATA     BYTE      CANICR
      00000087H   SFRSYM    DATA     BYTE      PCON
      000000BCH   SFRSYM    DATA     BYTE      ADC_CONTR
      000000E7H   SFRSYM    DATA     BYTE      CMPCR2
      000000E6H   SFRSYM    DATA     BYTE      CMPCR1
      000000B8H   SFRSYM    DATA     BYTE      IP
      0000008FH   SFRSYM    DATA     BYTE      INTCLKO
      000000EEH   SFRSYM    DATA     BYTE      IP3H
      000000B6H   SFRSYM    DATA     BYTE      IP2H
      000000A8H   SFRSYM    DATA     BYTE      IE
      000000BBH   SFRSYM    DATA     BYTE      P_SW3
      000000BAH   SFRSYM    DATA     BYTE      P_SW2
      000000A2H   SFRSYM    DATA     BYTE      P_SW1
L251 LINKER/LOCATER V4.66.93.0                                                        10/06/2023  19:39:35  PAGE 73


      000000CEH   SFRSYM    DATA     BYTE      SPCTL
      000000F8H   SFRSYM    DATA     BYTE      P7
      000000E8H   SFRSYM    DATA     BYTE      P6
      000000C8H   SFRSYM    DATA     BYTE      P5
      000000C0H   SFRSYM    DATA     BYTE      P4
      000000B0H   SFRSYM    DATA     BYTE      P3
      000000A0H   SFRSYM    DATA     BYTE      P2
      00000090H   SFRSYM    DATA     BYTE      P1
      00000080H   SFRSYM    DATA     BYTE      P0

      00FF76C5H   BLOCK     CODE     ---       LVL=0
      00000CEDH   SYMBOL    EDATA    BYTE      dat
      00FF76C9H   BLOCK     CODE     NEAR LAB  LVL=1
      00000CEEH   SYMBOL    EDATA    BYTE      i
      ---         BLOCKEND  ---      ---       LVL=1
      00FF76C5H   LINE      CODE     ---       #61
      00FF76C9H   LINE      CODE     ---       #62
      00FF76C9H   LINE      CODE     ---       #63
      00FF76CFH   LINE      CODE     ---       #64
      00FF76D2H   LINE      CODE     ---       #65
      00FF76D5H   LINE      CODE     ---       #67
      00FF76D8H   LINE      CODE     ---       #69
      00FF76DAH   LINE      CODE     ---       #71
      00FF76E6H   LINE      CODE     ---       #72
      00FF76E9H   LINE      CODE     ---       #73
      00FF76ECH   LINE      CODE     ---       #75
      00FF76EFH   LINE      CODE     ---       #76
      00FF76F9H   LINE      CODE     ---       #77
      00FF770DH   LINE      CODE     ---       #78
      00FF7710H   LINE      CODE     ---       #79
      ---         BLOCKEND  ---      ---       LVL=0
      00000CEFH   SYMBOL    EDATA    BYTE      dat
      00000CF0H   SYMBOL    EDATA    BYTE      i

      00FF73EDH   BLOCK     CODE     ---       LVL=0
      00000CA5H   SYMBOL    EDATA    WORD      dat
      00FF73F1H   BLOCK     CODE     NEAR LAB  LVL=1
      00000CA7H   SYMBOL    EDATA    BYTE      i
      ---         BLOCKEND  ---      ---       LVL=1
      00FF73EDH   LINE      CODE     ---       #115
      00FF73F1H   LINE      CODE     ---       #116
      00FF73F1H   LINE      CODE     ---       #117
      00FF73F7H   LINE      CODE     ---       #118
      00FF73FAH   LINE      CODE     ---       #119
      00FF73FDH   LINE      CODE     ---       #120
      00FF7400H   LINE      CODE     ---       #121
      00FF7402H   LINE      CODE     ---       #123
      00FF7417H   LINE      CODE     ---       #124
      00FF741AH   LINE      CODE     ---       #125
      00FF741DH   LINE      CODE     ---       #127
      00FF7420H   LINE      CODE     ---       #128
      00FF742AH   LINE      CODE     ---       #129
      00FF743EH   LINE      CODE     ---       #130
      00FF7441H   LINE      CODE     ---       #131
      ---         BLOCKEND  ---      ---       LVL=0
      00000AFEH   SYMBOL    EDATA    WORD      x1
      00000B00H   SYMBOL    EDATA    WORD      y1
      00000B02H   SYMBOL    EDATA    WORD      x2
      00000B04H   SYMBOL    EDATA    WORD      y2
      00000BD4H   SYMBOL    EDATA    WORD      color
      00000BD6H   SYMBOL    EDATA    WORD      i
      00000BD8H   SYMBOL    EDATA    WORD      j
      00000BDAH   SYMBOL    EDATA    WORD      x
      00000BDCH   SYMBOL    EDATA    WORD      y
      00000BDEH   SYMBOL    EDATA    WORD      color
L251 LINKER/LOCATER V4.66.93.0                                                        10/06/2023  19:39:35  PAGE 74


      00000B06H   SYMBOL    EDATA    WORD      x
      00000B08H   SYMBOL    EDATA    WORD      y
      00000B0AH   SYMBOL    EDATA    CHAR      dat
      00000B0BH   SYMBOL    EDATA    BYTE      i
      00000B0CH   SYMBOL    EDATA    BYTE      j
      00000B0DH   SYMBOL    EDATA    BYTE      temp
      000009D9H   SYMBOL    EDATA    WORD      x
      000009DBH   SYMBOL    EDATA    WORD      y
      000009DDH   SYMBOL    EDATA    ---       dat
      000009E1H   SYMBOL    EDATA    WORD      j
      00000A75H   SYMBOL    EDATA    WORD      x
      00000A77H   SYMBOL    EDATA    WORD      y
      00000A79H   SYMBOL    EDATA    CHAR      dat
      00000A7AH   SYMBOL    EDATA    ---       a
      00000A7DH   SYMBOL    EDATA    BYTE      i
      00000A7EH   SYMBOL    EDATA    WORD      x
      00000A80H   SYMBOL    EDATA    WORD      y
      00000A82H   SYMBOL    EDATA    BYTE      dat
      00000A83H   SYMBOL    EDATA    ---       a
      00000A86H   SYMBOL    EDATA    BYTE      i
      000008F1H   SYMBOL    EDATA    WORD      x
      000008F3H   SYMBOL    EDATA    WORD      y
      000008F5H   SYMBOL    EDATA    INT       dat
      000008F7H   SYMBOL    EDATA    ---       a
      000008FCH   SYMBOL    EDATA    BYTE      i
      000008FDH   SYMBOL    EDATA    WORD      x
      000008FFH   SYMBOL    EDATA    WORD      y
      00000901H   SYMBOL    EDATA    WORD      dat
      00000903H   SYMBOL    EDATA    ---       a
      00000908H   SYMBOL    EDATA    BYTE      i
      00000617H   SYMBOL    EDATA    WORD      x
      00000619H   SYMBOL    EDATA    WORD      y
      0000061BH   SYMBOL    EDATA    LONG      dat
      0000061FH   SYMBOL    EDATA    BYTE      num
      00000620H   SYMBOL    EDATA    ---       buff
      00000642H   SYMBOL    EDATA    BYTE      length
      000004D0H   SYMBOL    EDATA    WORD      x
      000004D2H   SYMBOL    EDATA    WORD      y
      000004D4H   SYMBOL    EDATA    FLOAT     dat
      000004D8H   SYMBOL    EDATA    BYTE      num
      000004D9H   SYMBOL    EDATA    BYTE      pointnum
      000004DAH   SYMBOL    EDATA    BYTE      length
      000004DBH   SYMBOL    EDATA    ---       buff
      000004FDH   SYMBOL    EDATA    CHAR      start
      000004FEH   SYMBOL    EDATA    CHAR      end
      000004FFH   SYMBOL    EDATA    CHAR      point

      00FF7E51H   BLOCK     CODE     ---       LVL=0
      00000D0FH   SYMBOL    EDATA    BYTE      dat
      00FF7E51H   LINE      CODE     ---       #594
      00FF7E55H   LINE      CODE     ---       #596
      00FF7E58H   LINE      CODE     ---       #597
      00FF7E5BH   LINE      CODE     ---       #599
      00FF7E62H   LINE      CODE     ---       #600
      00FF7E65H   LINE      CODE     ---       #601
      ---         BLOCKEND  ---      ---       LVL=0

      00FF7E66H   BLOCK     CODE     ---       LVL=0
      00000D10H   SYMBOL    EDATA    BYTE      dat
      00FF7E66H   LINE      CODE     ---       #610
      00FF7E6AH   LINE      CODE     ---       #612
      00FF7E6DH   LINE      CODE     ---       #613
      00FF7E70H   LINE      CODE     ---       #615
      00FF7E77H   LINE      CODE     ---       #616
      00FF7E7AH   LINE      CODE     ---       #617
L251 LINKER/LOCATER V4.66.93.0                                                        10/06/2023  19:39:35  PAGE 75


      ---         BLOCKEND  ---      ---       LVL=0

      00FF7B66H   BLOCK     CODE     ---       LVL=0
      00000C7CH   SYMBOL    EDATA    WORD      dat
      00FF7B6AH   BLOCK     CODE     NEAR LAB  LVL=1
      00000C7EH   SYMBOL    EDATA    ---       dat1
      ---         BLOCKEND  ---      ---       LVL=1
      00FF7B66H   LINE      CODE     ---       #626
      00FF7B6AH   LINE      CODE     ---       #627
      00FF7B6AH   LINE      CODE     ---       #629
      00FF7B70H   LINE      CODE     ---       #630
      00FF7B78H   LINE      CODE     ---       #631
      00FF7B7BH   LINE      CODE     ---       #632
      00FF7B7EH   LINE      CODE     ---       #633
      00FF7B85H   LINE      CODE     ---       #634
      00FF7B8CH   LINE      CODE     ---       #635
      00FF7B8FH   LINE      CODE     ---       #636
      ---         BLOCKEND  ---      ---       LVL=0

      00FF5E61H   BLOCK     CODE     ---       LVL=0
      00FF5E61H   LINE      CODE     ---       #644
      00FF5E61H   LINE      CODE     ---       #646
      00FF5E81H   LINE      CODE     ---       #648
      00FF5E84H   LINE      CODE     ---       #649
      00FF5E87H   LINE      CODE     ---       #650
      00FF5E8AH   LINE      CODE     ---       #652
      00FF5E91H   LINE      CODE     ---       #654
      00FF5E94H   LINE      CODE     ---       #655
      00FF5E9BH   LINE      CODE     ---       #657
      00FF5EA0H   LINE      CODE     ---       #666
      00FF5EA5H   LINE      CODE     ---       #669
      00FF5EAAH   LINE      CODE     ---       #670
      00FF5EAFH   LINE      CODE     ---       #672
      00FF5EB4H   LINE      CODE     ---       #673
      00FF5EB9H   LINE      CODE     ---       #674
      00FF5EBEH   LINE      CODE     ---       #675
      00FF5EC2H   LINE      CODE     ---       #676
      00FF5EC7H   LINE      CODE     ---       #677
      00FF5ECCH   LINE      CODE     ---       #679
      00FF5ED1H   LINE      CODE     ---       #680
      00FF5ED6H   LINE      CODE     ---       #682
      00FF5EDBH   LINE      CODE     ---       #683
      00FF5EE0H   LINE      CODE     ---       #685
      00FF5EE5H   LINE      CODE     ---       #686
      00FF5EEAH   LINE      CODE     ---       #688
      00FF5EEFH   LINE      CODE     ---       #689
      00FF5EF4H   LINE      CODE     ---       #691
      00FF5EF9H   LINE      CODE     ---       #692
      00FF5EFEH   LINE      CODE     ---       #694
      00FF5F03H   LINE      CODE     ---       #695
      00FF5F08H   LINE      CODE     ---       #697
      00FF5F0DH   LINE      CODE     ---       #698
      00FF5F12H   LINE      CODE     ---       #700
      00FF5F17H   LINE      CODE     ---       #701
      00FF5F1CH   LINE      CODE     ---       #702
      00FF5F21H   LINE      CODE     ---       #704
      00FF5F26H   LINE      CODE     ---       #705
      00FF5F2BH   LINE      CODE     ---       #706
      00FF5F30H   LINE      CODE     ---       #707
      00FF5F35H   LINE      CODE     ---       #708
      00FF5F3AH   LINE      CODE     ---       #709
      00FF5F3FH   LINE      CODE     ---       #710
      00FF5F44H   LINE      CODE     ---       #711
      00FF5F49H   LINE      CODE     ---       #712
      00FF5F4EH   LINE      CODE     ---       #713
L251 LINKER/LOCATER V4.66.93.0                                                        10/06/2023  19:39:35  PAGE 76


      00FF5F53H   LINE      CODE     ---       #714
      00FF5F58H   LINE      CODE     ---       #715
      00FF5F5DH   LINE      CODE     ---       #716
      00FF5F62H   LINE      CODE     ---       #717
      00FF5F67H   LINE      CODE     ---       #718
      00FF5F6CH   LINE      CODE     ---       #720
      00FF5F71H   LINE      CODE     ---       #721
      00FF5F76H   LINE      CODE     ---       #722
      00FF5F7BH   LINE      CODE     ---       #723
      00FF5F80H   LINE      CODE     ---       #724
      00FF5F85H   LINE      CODE     ---       #725
      00FF5F8AH   LINE      CODE     ---       #726
      00FF5F8FH   LINE      CODE     ---       #727
      00FF5F94H   LINE      CODE     ---       #728
      00FF5F99H   LINE      CODE     ---       #729
      00FF5F9EH   LINE      CODE     ---       #730
      00FF5FA3H   LINE      CODE     ---       #731
      00FF5FA8H   LINE      CODE     ---       #732
      00FF5FADH   LINE      CODE     ---       #733
      00FF5FB2H   LINE      CODE     ---       #734
      00FF5FB7H   LINE      CODE     ---       #736
      00FF5FBCH   LINE      CODE     ---       #738
      00FF5FC1H   LINE      CODE     ---       #739
      00FF5FC8H   LINE      CODE     ---       #741
      00FF5FCDH   LINE      CODE     ---       #742
      00FF5FD4H   LINE      CODE     ---       #743
      ---         BLOCKEND  ---      ---       LVL=0

      00FF7496H   BLOCK     CODE     ---       LVL=0
      00000B0EH   SYMBOL    EDATA    WORD      x1
      00000B10H   SYMBOL    EDATA    WORD      y1
      00000B12H   SYMBOL    EDATA    WORD      x2
      00000B14H   SYMBOL    EDATA    WORD      y2
      00FF7496H   LINE      CODE     ---       #747
      00FF74A6H   LINE      CODE     ---       #781
      00FF74ABH   LINE      CODE     ---       #782
      00FF74B8H   LINE      CODE     ---       #783
      00FF74C5H   LINE      CODE     ---       #784
      00FF74CAH   LINE      CODE     ---       #785
      00FF74D7H   LINE      CODE     ---       #786
      00FF74E4H   LINE      CODE     ---       #787
      00FF74E9H   LINE      CODE     ---       #790
      ---         BLOCKEND  ---      ---       LVL=0

      00FF717BH   BLOCK     CODE     ---       LVL=0
      00000BE0H   SYMBOL    EDATA    WORD      color
      00FF717FH   BLOCK     CODE     NEAR LAB  LVL=1
      00000BE2H   SYMBOL    EDATA    WORD      i
      00000BE4H   SYMBOL    EDATA    WORD      j
      ---         BLOCKEND  ---      ---       LVL=1
      00FF717BH   LINE      CODE     ---       #799
      00FF717FH   LINE      CODE     ---       #800
      00FF717FH   LINE      CODE     ---       #802
      00FF718EH   LINE      CODE     ---       #803
      00FF7196H   LINE      CODE     ---       #805
      00FF719EH   LINE      CODE     ---       #807
      00FF71A5H   LINE      CODE     ---       #808
      00FF71BFH   LINE      CODE     ---       #809
      00FF71D9H   LINE      CODE     ---       #810
      ---         BLOCKEND  ---      ---       LVL=0
      00000BE6H   SYMBOL    EDATA    WORD      x
      00000BE8H   SYMBOL    EDATA    WORD      y
      00000BEAH   SYMBOL    EDATA    WORD      color

      00FF6879H   BLOCK     CODE     ---       LVL=0
L251 LINKER/LOCATER V4.66.93.0                                                        10/06/2023  19:39:35  PAGE 77


      00000B16H   SYMBOL    EDATA    WORD      x
      00000B18H   SYMBOL    EDATA    WORD      y
      00000B1AH   SYMBOL    EDATA    CHAR      dat
      00FF6885H   BLOCK     CODE     NEAR LAB  LVL=1
      00000B1BH   SYMBOL    EDATA    BYTE      i
      00000B1CH   SYMBOL    EDATA    BYTE      j
      00000B1DH   SYMBOL    EDATA    BYTE      temp
      ---         BLOCKEND  ---      ---       LVL=1
      00FF6879H   LINE      CODE     ---       #838
      00FF6885H   LINE      CODE     ---       #839
      00FF6885H   LINE      CODE     ---       #843
      00FF688DH   LINE      CODE     ---       #845
      00FF68B6H   LINE      CODE     ---       #846
      00FF68DEH   LINE      CODE     ---       #847
      00FF68E5H   LINE      CODE     ---       #849
      00FF68ECH   LINE      CODE     ---       #851
      00FF68F3H   LINE      CODE     ---       #852
      00FF68F5H   LINE      CODE     ---       #853
      00FF68FCH   LINE      CODE     ---       #854
      00FF6906H   LINE      CODE     ---       #855
      00FF691DH   LINE      CODE     ---       #856
      00FF6937H   LINE      CODE     ---       #857
      ---         BLOCKEND  ---      ---       LVL=0
      000009E3H   SYMBOL    EDATA    WORD      x
      000009E5H   SYMBOL    EDATA    WORD      y
      000009E7H   SYMBOL    EDATA    ---       dat
      000009EBH   SYMBOL    EDATA    WORD      j
      00000A87H   SYMBOL    EDATA    WORD      x
      00000A89H   SYMBOL    EDATA    WORD      y
      00000A8BH   SYMBOL    EDATA    CHAR      dat
      00000A8CH   SYMBOL    EDATA    ---       a
      00000A8FH   SYMBOL    EDATA    BYTE      i
      00000A90H   SYMBOL    EDATA    WORD      x
      00000A92H   SYMBOL    EDATA    WORD      y
      00000A94H   SYMBOL    EDATA    BYTE      dat
      00000A95H   SYMBOL    EDATA    ---       a
      00000A98H   SYMBOL    EDATA    BYTE      i
      00000909H   SYMBOL    EDATA    WORD      x
      0000090BH   SYMBOL    EDATA    WORD      y
      0000090DH   SYMBOL    EDATA    INT       dat
      0000090FH   SYMBOL    EDATA    ---       a
      00000914H   SYMBOL    EDATA    BYTE      i

      00FF67ACH   BLOCK     CODE     ---       LVL=0
      00000915H   SYMBOL    EDATA    WORD      x
      00000917H   SYMBOL    EDATA    WORD      y
      00000919H   SYMBOL    EDATA    WORD      dat
      00FF67B8H   BLOCK     CODE     NEAR LAB  LVL=1
      0000091BH   SYMBOL    EDATA    ---       a
      00000920H   SYMBOL    EDATA    BYTE      i
      ---         BLOCKEND  ---      ---       LVL=1
      00FF67ACH   LINE      CODE     ---       #980
      00FF67B8H   LINE      CODE     ---       #981
      00FF67B8H   LINE      CODE     ---       #985
      00FF67C6H   LINE      CODE     ---       #986
      00FF67DCH   LINE      CODE     ---       #987
      00FF67F2H   LINE      CODE     ---       #988
      00FF6808H   LINE      CODE     ---       #989
      00FF6818H   LINE      CODE     ---       #991
      00FF681DH   LINE      CODE     ---       #992
      00FF681FH   LINE      CODE     ---       #994
      00FF6861H   LINE      CODE     ---       #995
      00FF686EH   LINE      CODE     ---       #996
      00FF6878H   LINE      CODE     ---       #997
      ---         BLOCKEND  ---      ---       LVL=0
L251 LINKER/LOCATER V4.66.93.0                                                        10/06/2023  19:39:35  PAGE 78


      00000643H   SYMBOL    EDATA    WORD      x
      00000645H   SYMBOL    EDATA    WORD      y
      00000647H   SYMBOL    EDATA    LONG      dat
      0000064BH   SYMBOL    EDATA    BYTE      num
      0000064CH   SYMBOL    EDATA    ---       buff
      0000066EH   SYMBOL    EDATA    BYTE      length
      00000500H   SYMBOL    EDATA    WORD      x
      00000502H   SYMBOL    EDATA    WORD      y
      00000504H   SYMBOL    EDATA    FLOAT     dat
      00000508H   SYMBOL    EDATA    BYTE      num
      00000509H   SYMBOL    EDATA    BYTE      pointnum
      0000050AH   SYMBOL    EDATA    BYTE      length
      0000050BH   SYMBOL    EDATA    ---       buff
      0000052DH   SYMBOL    EDATA    CHAR      start
      0000052EH   SYMBOL    EDATA    CHAR      end
      0000052FH   SYMBOL    EDATA    CHAR      point

      ---         MODULE    ---      ---       SEEKFREE_MPU6050
      00000921H   PUBLIC    EDATA    INT       mpu6050_acc_x
      00000923H   PUBLIC    EDATA    INT       mpu6050_acc_y
      00000925H   PUBLIC    EDATA    INT       mpu6050_acc_z
      00000927H   PUBLIC    EDATA    INT       mpu6050_gyro_x
      00000929H   PUBLIC    EDATA    INT       mpu6050_gyro_y
      0000092BH   PUBLIC    EDATA    INT       mpu6050_gyro_z
      000000D0H   SFRSYM    DATA     BYTE      PSW
      0000009DH   SFRSYM    DATA     BYTE      IRCBAND
      00000097H   SFRSYM    DATA     BYTE      AUXR2
      000000EFH   SFRSYM    DATA     BYTE      AUXINTIF
      000000FDH   SFRSYM    DATA     BYTE      S4CON
      000000ACH   SFRSYM    DATA     BYTE      S3CON
      0000009AH   SFRSYM    DATA     BYTE      S2CON
      000000B7H   SFRSYM    DATA     BYTE      IPH
      000000CDH   SFRSYM    DATA     BYTE      SPSTAT
      000000DDH   SFRSYM    DATA     BYTE      T4T3M
      000000C1H   SFRSYM    DATA     BYTE      WDT_CONTR
      000000DFH   SFRSYM    DATA     BYTE      IP3
      000000F4H   SFRSYM    DATA     BYTE      USBCON
      000000B5H   SFRSYM    DATA     BYTE      IP2
      000000FFH   SFRSYM    DATA     BYTE      RSTCFG
      000000F9H   SFRSYM    DATA     BYTE      LINICR
      0000008EH   SFRSYM    DATA     BYTE      AUXR
      000000AFH   SFRSYM    DATA     BYTE      IE2
      00000088H   SFRSYM    DATA     BYTE      TCON
      000000C0H.1 SFRSYM    DATA     BIT       P41
      00000098H   SFRSYM    DATA     BYTE      SCON
      000000C0H.0 SFRSYM    DATA     BIT       P40
      000000F1H   SFRSYM    DATA     BYTE      CANICR
      00000087H   SFRSYM    DATA     BYTE      PCON
      000000BCH   SFRSYM    DATA     BYTE      ADC_CONTR
      000000E7H   SFRSYM    DATA     BYTE      CMPCR2
      000000E6H   SFRSYM    DATA     BYTE      CMPCR1
      000000B8H   SFRSYM    DATA     BYTE      IP
      0000008FH   SFRSYM    DATA     BYTE      INTCLKO
      000000EEH   SFRSYM    DATA     BYTE      IP3H
      000000B6H   SFRSYM    DATA     BYTE      IP2H
      000000A8H   SFRSYM    DATA     BYTE      IE
      000000BBH   SFRSYM    DATA     BYTE      P_SW3
      000000BAH   SFRSYM    DATA     BYTE      P_SW2
      000000A2H   SFRSYM    DATA     BYTE      P_SW1
      000000CEH   SFRSYM    DATA     BYTE      SPCTL
      000000F8H   SFRSYM    DATA     BYTE      P7
      000000E8H   SFRSYM    DATA     BYTE      P6
      000000C8H   SFRSYM    DATA     BYTE      P5
      000000C0H   SFRSYM    DATA     BYTE      P4
      000000B0H   SFRSYM    DATA     BYTE      P3
L251 LINKER/LOCATER V4.66.93.0                                                        10/06/2023  19:39:35  PAGE 79


      000000A0H   SFRSYM    DATA     BYTE      P2
      00000090H   SFRSYM    DATA     BYTE      P1
      00000080H   SFRSYM    DATA     BYTE      P0
      00FF7ECCH   SYMBOL    CODE     ---       mpu6050_simiic_start
      00FF7E11H   SYMBOL    CODE     ---       mpu6050_simiic_stop
      00FF7BE0H   SYMBOL    CODE     ---       mpu6050_simiic_sendack
      00FF7D76H   SYMBOL    CODE     ---       mpu6050_simiic_delay

      00FF7D76H   BLOCK     CODE     ---       LVL=0
      00000CF1H   SYMBOL    EDATA    WORD      j
      00FF7D76H   LINE      CODE     ---       #52
      00FF7D76H   LINE      CODE     ---       #53
      00FF7D76H   LINE      CODE     ---       #54
      00FF7D7CH   LINE      CODE     ---       #55
      00FF7D92H   LINE      CODE     ---       #56
      ---         BLOCKEND  ---      ---       LVL=0

      00FF7ECCH   BLOCK     CODE     ---       LVL=0
      00FF7ECCH   LINE      CODE     ---       #59
      00FF7ECCH   LINE      CODE     ---       #61
      00FF7ECFH   LINE      CODE     ---       #62
      00FF7ED2H   LINE      CODE     ---       #63
      00FF7ED5H   LINE      CODE     ---       #64
      00FF7ED8H   LINE      CODE     ---       #65
      00FF7EDBH   LINE      CODE     ---       #66
      00FF7EDEH   LINE      CODE     ---       #67
      ---         BLOCKEND  ---      ---       LVL=0

      00FF7E11H   BLOCK     CODE     ---       LVL=0
      00FF7E11H   LINE      CODE     ---       #70
      00FF7E11H   LINE      CODE     ---       #72
      00FF7E14H   LINE      CODE     ---       #73
      00FF7E17H   LINE      CODE     ---       #74
      00FF7E1AH   LINE      CODE     ---       #75
      00FF7E1DH   LINE      CODE     ---       #76
      00FF7E20H   LINE      CODE     ---       #77
      00FF7E23H   LINE      CODE     ---       #78
      00FF7E26H   LINE      CODE     ---       #79
      ---         BLOCKEND  ---      ---       LVL=0

      00FF7BE0H   BLOCK     CODE     ---       LVL=0
      00000D11H   SYMBOL    EDATA    BYTE      ack_dat
      00FF7BE0H   LINE      CODE     ---       #83
      00FF7BE4H   LINE      CODE     ---       #85
      00FF7BE7H   LINE      CODE     ---       #86
      00FF7BEAH   LINE      CODE     ---       #87
      00FF7BF8H   LINE      CODE     ---       #88
      00FF7BFBH   LINE      CODE     ---       #90
      00FF7BFEH   LINE      CODE     ---       #91
      00FF7C01H   LINE      CODE     ---       #92
      00FF7C04H   LINE      CODE     ---       #93
      00FF7C07H   LINE      CODE     ---       #94
      ---         BLOCKEND  ---      ---       LVL=0
      00000CF3H   SYMBOL    EDATA    BYTE      c
      00000CF4H   SYMBOL    EDATA    BYTE      i
      00000CA8H   SYMBOL    EDATA    BYTE      ack_x
      00000CA9H   SYMBOL    EDATA    BYTE      i
      00000CAAH   SYMBOL    EDATA    BYTE      c
      00000CABH   SYMBOL    EDATA    BYTE      dev_add
      00000CACH   SYMBOL    EDATA    BYTE      reg
      00000CADH   SYMBOL    EDATA    BYTE      dat
      00000CAEH   SYMBOL    EDATA    BYTE      dev_add
      00000CAFH   SYMBOL    EDATA    BYTE      reg
      00000CB0H   SYMBOL    EDATA    BYTE      dat
      00000B61H   SYMBOL    EDATA    BYTE      dev_add
L251 LINKER/LOCATER V4.66.93.0                                                        10/06/2023  19:39:35  PAGE 80


      00000B62H   SYMBOL    EDATA    BYTE      reg
      00000B63H   SYMBOL    EDATA    ---       dat_add
      00000B67H   SYMBOL    EDATA    BYTE      num
      00000BECH   SYMBOL    EDATA    ---       dat
      00000BF2H   SYMBOL    EDATA    ---       dat

      ---         MODULE    ---      ---       SEEKFREE_OLED
      00FF7AB0H   PUBLIC    CODE     ---       oled_set_pos
      00FF7711H   PUBLIC    CODE     ---       oled_wrcmd
      00FF775DH   PUBLIC    CODE     ---       oled_wrdat
      00FF7A0FH   PUBLIC    CODE     ---       oled_set_pos_spi
      00FF7E7BH   PUBLIC    CODE     ---       oled_wrcmd_spi
      00FF7E90H   PUBLIC    CODE     ---       oled_wrdat_spi
      00000530H   PUBLIC    EDATA    BYTE      ?oled_printf_float?BYTE
      00000560H   PUBLIC    EDATA    BYTE      ?oled_printf_float_spi?BYTE
      000000D0H   SFRSYM    DATA     BYTE      PSW
      0000009DH   SFRSYM    DATA     BYTE      IRCBAND
      00000097H   SFRSYM    DATA     BYTE      AUXR2
      000000EFH   SFRSYM    DATA     BYTE      AUXINTIF
      000000FDH   SFRSYM    DATA     BYTE      S4CON
      000000ACH   SFRSYM    DATA     BYTE      S3CON
      0000009AH   SFRSYM    DATA     BYTE      S2CON
      000000B7H   SFRSYM    DATA     BYTE      IPH
      000000CDH   SFRSYM    DATA     BYTE      SPSTAT
      000000DDH   SFRSYM    DATA     BYTE      T4T3M
      000000C1H   SFRSYM    DATA     BYTE      WDT_CONTR
      000000DFH   SFRSYM    DATA     BYTE      IP3
      000000F4H   SFRSYM    DATA     BYTE      USBCON
      000000B5H   SFRSYM    DATA     BYTE      IP2
      000000FFH   SFRSYM    DATA     BYTE      RSTCFG
      000000F9H   SFRSYM    DATA     BYTE      LINICR
      0000008EH   SFRSYM    DATA     BYTE      AUXR
      000000AFH   SFRSYM    DATA     BYTE      IE2
      000000A0H.5 SFRSYM    DATA     BIT       P25
      00000088H   SFRSYM    DATA     BYTE      TCON
      000000A0H.3 SFRSYM    DATA     BIT       P23
      00000098H   SFRSYM    DATA     BYTE      SCON
      000000A0H.2 SFRSYM    DATA     BIT       P22
      000000A0H.1 SFRSYM    DATA     BIT       P21
      000000A0H.0 SFRSYM    DATA     BIT       P20
      000000F1H   SFRSYM    DATA     BYTE      CANICR
      00000087H   SFRSYM    DATA     BYTE      PCON
      000000BCH   SFRSYM    DATA     BYTE      ADC_CONTR
      000000E7H   SFRSYM    DATA     BYTE      CMPCR2
      000000E6H   SFRSYM    DATA     BYTE      CMPCR1
      000000B8H   SFRSYM    DATA     BYTE      IP
      0000008FH   SFRSYM    DATA     BYTE      INTCLKO
      000000EEH   SFRSYM    DATA     BYTE      IP3H
      000000B6H   SFRSYM    DATA     BYTE      IP2H
      000000A8H   SFRSYM    DATA     BYTE      IE
      000000BBH   SFRSYM    DATA     BYTE      P_SW3
      000000BAH   SFRSYM    DATA     BYTE      P_SW2
      000000A2H   SFRSYM    DATA     BYTE      P_SW1
      000000CEH   SFRSYM    DATA     BYTE      SPCTL
      000000F8H   SFRSYM    DATA     BYTE      P7
      000000E8H   SFRSYM    DATA     BYTE      P6
      000000C8H   SFRSYM    DATA     BYTE      P5
      000000C0H   SFRSYM    DATA     BYTE      P4
      000000B0H   SFRSYM    DATA     BYTE      P3
      000000A0H   SFRSYM    DATA     BYTE      P2
      00000090H   SFRSYM    DATA     BYTE      P1
      00000080H   SFRSYM    DATA     BYTE      P0

      00FF775DH   BLOCK     CODE     ---       LVL=0
      00000CF5H   SYMBOL    EDATA    BYTE      dat
L251 LINKER/LOCATER V4.66.93.0                                                        10/06/2023  19:39:35  PAGE 81


      00FF7761H   BLOCK     CODE     NEAR LAB  LVL=1
      00000CF6H   SYMBOL    EDATA    BYTE      i
      ---         BLOCKEND  ---      ---       LVL=1
      00FF775DH   LINE      CODE     ---       #47
      00FF7761H   LINE      CODE     ---       #48
      00FF7761H   LINE      CODE     ---       #49
      00FF7767H   LINE      CODE     ---       #51
      00FF776AH   LINE      CODE     ---       #52
      00FF776DH   LINE      CODE     ---       #53
      00FF7770H   LINE      CODE     ---       #54
      00FF7772H   LINE      CODE     ---       #56
      00FF777EH   LINE      CODE     ---       #57
      00FF7781H   LINE      CODE     ---       #58
      00FF7784H   LINE      CODE     ---       #60
      00FF7787H   LINE      CODE     ---       #61
      00FF7791H   LINE      CODE     ---       #62
      00FF77A5H   LINE      CODE     ---       #63
      00FF77A8H   LINE      CODE     ---       #64
      ---         BLOCKEND  ---      ---       LVL=0

      00FF7711H   BLOCK     CODE     ---       LVL=0
      00000CF7H   SYMBOL    EDATA    BYTE      cmd
      00FF7715H   BLOCK     CODE     NEAR LAB  LVL=1
      00000CF8H   SYMBOL    EDATA    BYTE      i
      ---         BLOCKEND  ---      ---       LVL=1
      00FF7711H   LINE      CODE     ---       #98
      00FF7715H   LINE      CODE     ---       #99
      00FF7715H   LINE      CODE     ---       #100
      00FF771BH   LINE      CODE     ---       #102
      00FF771EH   LINE      CODE     ---       #103
      00FF7721H   LINE      CODE     ---       #104
      00FF7724H   LINE      CODE     ---       #106
      00FF7726H   LINE      CODE     ---       #108
      00FF7732H   LINE      CODE     ---       #109
      00FF7735H   LINE      CODE     ---       #110
      00FF7738H   LINE      CODE     ---       #112
      00FF773BH   LINE      CODE     ---       #113
      00FF7745H   LINE      CODE     ---       #114
      00FF7759H   LINE      CODE     ---       #115
      00FF775CH   LINE      CODE     ---       #116
      ---         BLOCKEND  ---      ---       LVL=0
      00000B1EH   SYMBOL    EDATA    WORD      hex
      00000B20H   SYMBOL    EDATA    ---       Print
      00000B24H   SYMBOL    EDATA    BYTE      hexcheck
      00000B25H   SYMBOL    EDATA    BYTE      TEMP

      00FF7AB0H   BLOCK     CODE     ---       LVL=0
      00000CF9H   SYMBOL    EDATA    BYTE      x
      00000CFAH   SYMBOL    EDATA    BYTE      y
      00FF7AB0H   LINE      CODE     ---       #205
      00FF7AB8H   LINE      CODE     ---       #207
      00FF7AC3H   LINE      CODE     ---       #208
      00FF7AD9H   LINE      CODE     ---       #209
      00FF7AE4H   LINE      CODE     ---       #210
      ---         BLOCKEND  ---      ---       LVL=0
      00000CB1H   SYMBOL    EDATA    BYTE      bmp_data
      00000CB2H   SYMBOL    EDATA    BYTE      y
      00000CB3H   SYMBOL    EDATA    BYTE      x
      00000CB4H   SYMBOL    EDATA    BYTE      x
      00000CB5H   SYMBOL    EDATA    BYTE      y
      00000CB6H   SYMBOL    EDATA    BYTE      data1
      00000CFBH   SYMBOL    EDATA    BYTE      x
      00000CFCH   SYMBOL    EDATA    BYTE      y
      00000A99H   SYMBOL    EDATA    BYTE      x
      00000A9AH   SYMBOL    EDATA    BYTE      y
L251 LINKER/LOCATER V4.66.93.0                                                        10/06/2023  19:39:35  PAGE 82


      00000A9BH   SYMBOL    EDATA    ---       ch
      00000A9FH   SYMBOL    EDATA    BYTE      c
      00000AA0H   SYMBOL    EDATA    BYTE      i
      00000AA1H   SYMBOL    EDATA    BYTE      j
      00000AA2H   SYMBOL    EDATA    BYTE      x
      00000AA3H   SYMBOL    EDATA    BYTE      y
      00000AA4H   SYMBOL    EDATA    ---       ch
      00000AA8H   SYMBOL    EDATA    BYTE      c
      00000AA9H   SYMBOL    EDATA    BYTE      i
      00000AAAH   SYMBOL    EDATA    BYTE      j
      0000095DH   SYMBOL    EDATA    BYTE      x
      0000095EH   SYMBOL    EDATA    BYTE      y
      0000095FH   SYMBOL    EDATA    WORD      num
      00000961H   SYMBOL    EDATA    ---       ch
      00000968H   SYMBOL    EDATA    BYTE      x
      00000969H   SYMBOL    EDATA    BYTE      y
      0000096AH   SYMBOL    EDATA    INT       num
      0000096CH   SYMBOL    EDATA    ---       ch
      0000066FH   SYMBOL    EDATA    WORD      x
      00000671H   SYMBOL    EDATA    WORD      y
      00000673H   SYMBOL    EDATA    LONG      dat
      00000677H   SYMBOL    EDATA    BYTE      num
      00000678H   SYMBOL    EDATA    ---       buff
      0000069AH   SYMBOL    EDATA    BYTE      length
      00000530H   SYMBOL    EDATA    WORD      x
      00000532H   SYMBOL    EDATA    WORD      y
      00000534H   SYMBOL    EDATA    FLOAT     dat
      00000538H   SYMBOL    EDATA    BYTE      num
      00000539H   SYMBOL    EDATA    BYTE      pointnum
      0000053AH   SYMBOL    EDATA    BYTE      length
      0000053BH   SYMBOL    EDATA    ---       buff
      0000055DH   SYMBOL    EDATA    CHAR      start
      0000055EH   SYMBOL    EDATA    CHAR      end
      0000055FH   SYMBOL    EDATA    CHAR      point
      000007C9H   SYMBOL    EDATA    WORD      high
      000007CBH   SYMBOL    EDATA    WORD      width
      000007CDH   SYMBOL    EDATA    ---       p
      000007D1H   SYMBOL    EDATA    BYTE      value
      000007D2H   SYMBOL    EDATA    WORD      i
      000007D4H   SYMBOL    EDATA    WORD      j
      000007D6H   SYMBOL    EDATA    WORD      temp
      000007D8H   SYMBOL    EDATA    WORD      temp1
      000007DAH   SYMBOL    EDATA    BYTE      dat
      00000829H   SYMBOL    EDATA    BYTE      x
      0000082AH   SYMBOL    EDATA    BYTE      y
      0000082BH   SYMBOL    EDATA    BYTE      size
      0000082CH   SYMBOL    EDATA    ---       p
      00000830H   SYMBOL    EDATA    BYTE      len
      00000831H   SYMBOL    EDATA    WORD      i
      00000833H   SYMBOL    EDATA    WORD      j
      00000835H   SYMBOL    EDATA    WORD      k

      00FF7E90H   BLOCK     CODE     ---       LVL=0
      00000D12H   SYMBOL    EDATA    BYTE      dat
      00FF7E90H   LINE      CODE     ---       #534
      00FF7E94H   LINE      CODE     ---       #536
      00FF7E97H   LINE      CODE     ---       #537
      00FF7E9AH   LINE      CODE     ---       #538
      00FF7EA1H   LINE      CODE     ---       #539
      00FF7EA4H   LINE      CODE     ---       #542
      ---         BLOCKEND  ---      ---       LVL=0

      00FF7E7BH   BLOCK     CODE     ---       LVL=0
      00000D13H   SYMBOL    EDATA    BYTE      cmd
      00FF7E7BH   LINE      CODE     ---       #576
L251 LINKER/LOCATER V4.66.93.0                                                        10/06/2023  19:39:35  PAGE 83


      00FF7E7FH   LINE      CODE     ---       #578
      00FF7E82H   LINE      CODE     ---       #579
      00FF7E85H   LINE      CODE     ---       #580
      00FF7E8CH   LINE      CODE     ---       #581
      00FF7E8FH   LINE      CODE     ---       #582
      ---         BLOCKEND  ---      ---       LVL=0
      00000B26H   SYMBOL    EDATA    WORD      hex
      00000B28H   SYMBOL    EDATA    ---       Print
      00000B2CH   SYMBOL    EDATA    BYTE      hexcheck
      00000B2DH   SYMBOL    EDATA    BYTE      TEMP

      00FF7A0FH   BLOCK     CODE     ---       LVL=0
      00000CFDH   SYMBOL    EDATA    BYTE      x
      00000CFEH   SYMBOL    EDATA    BYTE      y
      00FF7A0FH   LINE      CODE     ---       #672
      00FF7A17H   LINE      CODE     ---       #676
      00FF7A22H   LINE      CODE     ---       #677
      00FF7A39H   LINE      CODE     ---       #678
      00FF7A44H   LINE      CODE     ---       #679
      ---         BLOCKEND  ---      ---       LVL=0
      00000CB7H   SYMBOL    EDATA    BYTE      bmp_data
      00000CB8H   SYMBOL    EDATA    BYTE      y
      00000CB9H   SYMBOL    EDATA    BYTE      x
      00000CBAH   SYMBOL    EDATA    BYTE      x
      00000CBBH   SYMBOL    EDATA    BYTE      y
      00000CBCH   SYMBOL    EDATA    BYTE      data1
      00000CFFH   SYMBOL    EDATA    BYTE      x
      00000D00H   SYMBOL    EDATA    BYTE      y
      00000AABH   SYMBOL    EDATA    BYTE      x
      00000AACH   SYMBOL    EDATA    BYTE      y
      00000AADH   SYMBOL    EDATA    ---       ch
      00000AB1H   SYMBOL    EDATA    BYTE      c
      00000AB2H   SYMBOL    EDATA    BYTE      i
      00000AB3H   SYMBOL    EDATA    BYTE      j
      00000AB4H   SYMBOL    EDATA    BYTE      x
      00000AB5H   SYMBOL    EDATA    BYTE      y
      00000AB6H   SYMBOL    EDATA    ---       ch
      00000ABAH   SYMBOL    EDATA    BYTE      c
      00000ABBH   SYMBOL    EDATA    BYTE      i
      00000ABCH   SYMBOL    EDATA    BYTE      j
      00000973H   SYMBOL    EDATA    BYTE      x
      00000974H   SYMBOL    EDATA    BYTE      y
      00000975H   SYMBOL    EDATA    WORD      num
      00000977H   SYMBOL    EDATA    ---       ch
      0000097EH   SYMBOL    EDATA    BYTE      x
      0000097FH   SYMBOL    EDATA    BYTE      y
      00000980H   SYMBOL    EDATA    INT       num
      00000982H   SYMBOL    EDATA    ---       ch
      0000069BH   SYMBOL    EDATA    WORD      x
      0000069DH   SYMBOL    EDATA    WORD      y
      0000069FH   SYMBOL    EDATA    LONG      dat
      000006A3H   SYMBOL    EDATA    BYTE      num
      000006A4H   SYMBOL    EDATA    ---       buff
      000006C6H   SYMBOL    EDATA    BYTE      length
      00000560H   SYMBOL    EDATA    WORD      x
      00000562H   SYMBOL    EDATA    WORD      y
      00000564H   SYMBOL    EDATA    FLOAT     dat
      00000568H   SYMBOL    EDATA    BYTE      num
      00000569H   SYMBOL    EDATA    BYTE      pointnum
      0000056AH   SYMBOL    EDATA    BYTE      length
      0000056BH   SYMBOL    EDATA    ---       buff
      0000058DH   SYMBOL    EDATA    CHAR      start
      0000058EH   SYMBOL    EDATA    CHAR      end
      0000058FH   SYMBOL    EDATA    CHAR      point
      000007DBH   SYMBOL    EDATA    WORD      high
L251 LINKER/LOCATER V4.66.93.0                                                        10/06/2023  19:39:35  PAGE 84


      000007DDH   SYMBOL    EDATA    WORD      width
      000007DFH   SYMBOL    EDATA    ---       p
      000007E3H   SYMBOL    EDATA    BYTE      value
      000007E4H   SYMBOL    EDATA    WORD      i
      000007E6H   SYMBOL    EDATA    WORD      j
      000007E8H   SYMBOL    EDATA    WORD      temp
      000007EAH   SYMBOL    EDATA    WORD      temp1
      000007ECH   SYMBOL    EDATA    BYTE      dat
      00000837H   SYMBOL    EDATA    BYTE      x
      00000838H   SYMBOL    EDATA    BYTE      y
      00000839H   SYMBOL    EDATA    BYTE      size
      0000083AH   SYMBOL    EDATA    ---       p
      0000083EH   SYMBOL    EDATA    BYTE      len
      0000083FH   SYMBOL    EDATA    WORD      i
      00000841H   SYMBOL    EDATA    WORD      j
      00000843H   SYMBOL    EDATA    WORD      k

      ---         MODULE    ---      ---       SEEKFREE_PRINTF
      00000768H   PUBLIC    EDATA    BYTE      ?number_conversion_ascii?BYTE
      000002ECH   PUBLIC    EDATA    BYTE      ?zf_sprintf?BYTE
      000000D0H   SFRSYM    DATA     BYTE      PSW
      0000009DH   SFRSYM    DATA     BYTE      IRCBAND
      00000097H   SFRSYM    DATA     BYTE      AUXR2
      000000EFH   SFRSYM    DATA     BYTE      AUXINTIF
      000000FDH   SFRSYM    DATA     BYTE      S4CON
      000000ACH   SFRSYM    DATA     BYTE      S3CON
      0000009AH   SFRSYM    DATA     BYTE      S2CON
      000000B7H   SFRSYM    DATA     BYTE      IPH
      000000CDH   SFRSYM    DATA     BYTE      SPSTAT
      000000DDH   SFRSYM    DATA     BYTE      T4T3M
      000000C1H   SFRSYM    DATA     BYTE      WDT_CONTR
      000000DFH   SFRSYM    DATA     BYTE      IP3
      000000F4H   SFRSYM    DATA     BYTE      USBCON
      000000B5H   SFRSYM    DATA     BYTE      IP2
      000000FFH   SFRSYM    DATA     BYTE      RSTCFG
      000000F9H   SFRSYM    DATA     BYTE      LINICR
      0000008EH   SFRSYM    DATA     BYTE      AUXR
      000000AFH   SFRSYM    DATA     BYTE      IE2
      00000088H   SFRSYM    DATA     BYTE      TCON
      00000098H   SFRSYM    DATA     BYTE      SCON
      000000F1H   SFRSYM    DATA     BYTE      CANICR
      00000087H   SFRSYM    DATA     BYTE      PCON
      000000BCH   SFRSYM    DATA     BYTE      ADC_CONTR
      000000E7H   SFRSYM    DATA     BYTE      CMPCR2
      000000E6H   SFRSYM    DATA     BYTE      CMPCR1
      000000B8H   SFRSYM    DATA     BYTE      IP
      0000008FH   SFRSYM    DATA     BYTE      INTCLKO
      000000EEH   SFRSYM    DATA     BYTE      IP3H
      000000B6H   SFRSYM    DATA     BYTE      IP2H
      000000A8H   SFRSYM    DATA     BYTE      IE
      000000BBH   SFRSYM    DATA     BYTE      P_SW3
      000000BAH   SFRSYM    DATA     BYTE      P_SW2
      000000A2H   SFRSYM    DATA     BYTE      P_SW1
      000000CEH   SFRSYM    DATA     BYTE      SPCTL
      000000F8H   SFRSYM    DATA     BYTE      P7
      000000E8H   SFRSYM    DATA     BYTE      P6
      000000C8H   SFRSYM    DATA     BYTE      P5
      000000C0H   SFRSYM    DATA     BYTE      P4
      000000B0H   SFRSYM    DATA     BYTE      P3
      000000A0H   SFRSYM    DATA     BYTE      P2
      00000090H   SFRSYM    DATA     BYTE      P1
      00000080H   SFRSYM    DATA     BYTE      P0
      00000768H   SYMBOL    EDATA    DWORD     dat
      0000076CH   SYMBOL    EDATA    ---       p
      00000770H   SYMBOL    EDATA    BYTE      neg_type
L251 LINKER/LOCATER V4.66.93.0                                                        10/06/2023  19:39:35  PAGE 85


      00000771H   SYMBOL    EDATA    BYTE      radix
      00000772H   SYMBOL    EDATA    LONG      neg_dat
      00000776H   SYMBOL    EDATA    DWORD     pos_dat
      0000077AH   SYMBOL    EDATA    BYTE      temp_data
      0000077BH   SYMBOL    EDATA    BYTE      valid_num
      00000860H   SYMBOL    EDATA    ---       d_buff
      00000864H   SYMBOL    EDATA    DWORD     len
      00000868H   SYMBOL    EDATA    DWORD     i
      0000086CH   SYMBOL    EDATA    CHAR      temp_data
      000002ECH   SYMBOL    EDATA    ---       buff
      000002F0H   SYMBOL    EDATA    ---       format
      000002F4H   SYMBOL    EDATA    DWORD     buff_len
      000002F8H   SYMBOL    EDATA    ---       arg
      000002FCH   SYMBOL    EDATA    CHAR      ret
      000002FDH   SYMBOL    EDATA    CHAR      ch
      000002FDH   SYMBOL    EDATA    ---       vstr
      0000031EH   SYMBOL    EDATA    LONG      ival
      00000322H   SYMBOL    EDATA    BYTE      vlen
      000002FDH   SYMBOL    EDATA    ---       vstr
      0000031EH   SYMBOL    EDATA    FLOAT     ival
      00000322H   SYMBOL    EDATA    BYTE      vlen
      000002FDH   SYMBOL    EDATA    ---       vstr
      0000031EH   SYMBOL    EDATA    DWORD     ival
      00000322H   SYMBOL    EDATA    BYTE      vlen
      000002FDH   SYMBOL    EDATA    ---       vstr
      0000031EH   SYMBOL    EDATA    DWORD     ival
      00000322H   SYMBOL    EDATA    BYTE      vlen
      000002FDH   SYMBOL    EDATA    ---       vstr
      0000031EH   SYMBOL    EDATA    DWORD     ival
      00000322H   SYMBOL    EDATA    BYTE      vlen
      000002FDH   SYMBOL    EDATA    ---       pc
      000002FDH   SYMBOL    EDATA    ---       vstr
      0000031EH   SYMBOL    EDATA    DWORD     ival

      ---         MODULE    ---      ---       SEEKFREE_VIRSCO
      000009EDH   PUBLIC    EDATA    ---       virtual_scope_data
      00000845H   PUBLIC    EDATA    BYTE      ?data_conversion?BYTE
      000000D0H   SFRSYM    DATA     BYTE      PSW
      0000009DH   SFRSYM    DATA     BYTE      IRCBAND
      00000097H   SFRSYM    DATA     BYTE      AUXR2
      000000EFH   SFRSYM    DATA     BYTE      AUXINTIF
      000000FDH   SFRSYM    DATA     BYTE      S4CON
      000000ACH   SFRSYM    DATA     BYTE      S3CON
      0000009AH   SFRSYM    DATA     BYTE      S2CON
      000000B7H   SFRSYM    DATA     BYTE      IPH
      000000CDH   SFRSYM    DATA     BYTE      SPSTAT
      000000DDH   SFRSYM    DATA     BYTE      T4T3M
      000000C1H   SFRSYM    DATA     BYTE      WDT_CONTR
      000000DFH   SFRSYM    DATA     BYTE      IP3
      000000F4H   SFRSYM    DATA     BYTE      USBCON
      000000B5H   SFRSYM    DATA     BYTE      IP2
      000000FFH   SFRSYM    DATA     BYTE      RSTCFG
      000000F9H   SFRSYM    DATA     BYTE      LINICR
      0000008EH   SFRSYM    DATA     BYTE      AUXR
      000000AFH   SFRSYM    DATA     BYTE      IE2
      00000088H   SFRSYM    DATA     BYTE      TCON
      00000098H   SFRSYM    DATA     BYTE      SCON
      000000F1H   SFRSYM    DATA     BYTE      CANICR
      00000087H   SFRSYM    DATA     BYTE      PCON
      000000BCH   SFRSYM    DATA     BYTE      ADC_CONTR
      000000E7H   SFRSYM    DATA     BYTE      CMPCR2
      000000E6H   SFRSYM    DATA     BYTE      CMPCR1
      000000B8H   SFRSYM    DATA     BYTE      IP
      0000008FH   SFRSYM    DATA     BYTE      INTCLKO
      000000EEH   SFRSYM    DATA     BYTE      IP3H
L251 LINKER/LOCATER V4.66.93.0                                                        10/06/2023  19:39:35  PAGE 86


      000000B6H   SFRSYM    DATA     BYTE      IP2H
      000000A8H   SFRSYM    DATA     BYTE      IE
      000000BBH   SFRSYM    DATA     BYTE      P_SW3
      000000BAH   SFRSYM    DATA     BYTE      P_SW2
      000000A2H   SFRSYM    DATA     BYTE      P_SW1
      000000CEH   SFRSYM    DATA     BYTE      SPCTL
      000000F8H   SFRSYM    DATA     BYTE      P7
      000000E8H   SFRSYM    DATA     BYTE      P6
      000000C8H   SFRSYM    DATA     BYTE      P5
      000000C0H   SFRSYM    DATA     BYTE      P4
      000000B0H   SFRSYM    DATA     BYTE      P3
      000000A0H   SFRSYM    DATA     BYTE      P2
      00000090H   SFRSYM    DATA     BYTE      P1
      00000080H   SFRSYM    DATA     BYTE      P0
      00000ABDH   SYMBOL    EDATA    ---       Buf
      00000AC1H   SYMBOL    EDATA    BYTE      CRC_CNT
      00000AC2H   SYMBOL    EDATA    WORD      CRC_Temp
      00000AC4H   SYMBOL    EDATA    BYTE      i
      00000AC5H   SYMBOL    EDATA    BYTE      j
      00000845H   SYMBOL    EDATA    INT       data1
      00000847H   SYMBOL    EDATA    INT       data2
      00000849H   SYMBOL    EDATA    INT       data3
      0000084BH   SYMBOL    EDATA    INT       data4
      0000084DH   SYMBOL    EDATA    ---       dat
      00000851H   SYMBOL    EDATA    WORD      CRC16

      ---         MODULE    ---      ---       SEEKFREE_WIRELESS
      00FF7DC7H   PUBLIC    CODE     ---       wireless_uart_callback
      000000D0H   SFRSYM    DATA     BYTE      PSW
      0000009DH   SFRSYM    DATA     BYTE      IRCBAND
      00000097H   SFRSYM    DATA     BYTE      AUXR2
      000000EFH   SFRSYM    DATA     BYTE      AUXINTIF
      000000FDH   SFRSYM    DATA     BYTE      S4CON
      000000ACH   SFRSYM    DATA     BYTE      S3CON
      0000009AH   SFRSYM    DATA     BYTE      S2CON
      000000FEH   SFRSYM    DATA     BYTE      S4BUF
      000000B7H   SFRSYM    DATA     BYTE      IPH
      000000CDH   SFRSYM    DATA     BYTE      SPSTAT
      000000DDH   SFRSYM    DATA     BYTE      T4T3M
      000000C1H   SFRSYM    DATA     BYTE      WDT_CONTR
      000000DFH   SFRSYM    DATA     BYTE      IP3
      000000F4H   SFRSYM    DATA     BYTE      USBCON
      000000B5H   SFRSYM    DATA     BYTE      IP2
      000000FFH   SFRSYM    DATA     BYTE      RSTCFG
      000000F9H   SFRSYM    DATA     BYTE      LINICR
      0000008EH   SFRSYM    DATA     BYTE      AUXR
      000000AFH   SFRSYM    DATA     BYTE      IE2
      00000080H.7 SFRSYM    DATA     BIT       P07
      00000088H   SFRSYM    DATA     BYTE      TCON
      00000098H   SFRSYM    DATA     BYTE      SCON
      000000F1H   SFRSYM    DATA     BYTE      CANICR
      00000087H   SFRSYM    DATA     BYTE      PCON
      000000BCH   SFRSYM    DATA     BYTE      ADC_CONTR
      000000E7H   SFRSYM    DATA     BYTE      CMPCR2
      000000E6H   SFRSYM    DATA     BYTE      CMPCR1
      000000B8H   SFRSYM    DATA     BYTE      IP
      0000008FH   SFRSYM    DATA     BYTE      INTCLKO
      000000EEH   SFRSYM    DATA     BYTE      IP3H
      000000B6H   SFRSYM    DATA     BYTE      IP2H
      000000A8H   SFRSYM    DATA     BYTE      IE
      000000BBH   SFRSYM    DATA     BYTE      P_SW3
      000000BAH   SFRSYM    DATA     BYTE      P_SW2
      000000A2H   SFRSYM    DATA     BYTE      P_SW1
      000000CEH   SFRSYM    DATA     BYTE      SPCTL
      000000F8H   SFRSYM    DATA     BYTE      P7
L251 LINKER/LOCATER V4.66.93.0                                                        10/06/2023  19:39:35  PAGE 87


      000000E8H   SFRSYM    DATA     BYTE      P6
      000000C8H   SFRSYM    DATA     BYTE      P5
      000000C0H   SFRSYM    DATA     BYTE      P4
      000000B0H   SFRSYM    DATA     BYTE      P3
      000000A0H   SFRSYM    DATA     BYTE      P2
      00000090H   SFRSYM    DATA     BYTE      P1
      00000080H   SFRSYM    DATA     BYTE      P0
      00000378H   SYMBOL    EDATA    BYTE      wireless_uart_data
      00000379H   SYMBOL    EDATA    ---       wireless_uart_fifo
      0000038DH   SYMBOL    EDATA    ---       wireless_uart_buffer

      00FF7DC7H   BLOCK     CODE     ---       LVL=0
      00FF7DC7H   LINE      CODE     ---       #48
      00FF7DC7H   LINE      CODE     ---       #51
      00FF7DCDH   LINE      CODE     ---       #52
      00FF7DE0H   LINE      CODE     ---       #53
      ---         BLOCKEND  ---      ---       LVL=0
      00000BF8H   SYMBOL    EDATA    ---       buff
      00000BFCH   SYMBOL    EDATA    WORD      len
      0000092DH   SYMBOL    EDATA    ---       buff
      00000931H   SYMBOL    EDATA    DWORD     len
      00000935H   SYMBOL    EDATA    DWORD     data_len

      ---         MODULE    ---      ---       SEEKFREE_WIRELESS_CH573
      00FF7DE1H   PUBLIC    CODE     ---       wireless_ch573_callback
      000000D0H   SFRSYM    DATA     BYTE      PSW
      0000009DH   SFRSYM    DATA     BYTE      IRCBAND
      00000097H   SFRSYM    DATA     BYTE      AUXR2
      000000EFH   SFRSYM    DATA     BYTE      AUXINTIF
      000000FDH   SFRSYM    DATA     BYTE      S4CON
      000000ACH   SFRSYM    DATA     BYTE      S3CON
      0000009AH   SFRSYM    DATA     BYTE      S2CON
      000000FEH   SFRSYM    DATA     BYTE      S4BUF
      000000B7H   SFRSYM    DATA     BYTE      IPH
      000000CDH   SFRSYM    DATA     BYTE      SPSTAT
      000000DDH   SFRSYM    DATA     BYTE      T4T3M
      000000C1H   SFRSYM    DATA     BYTE      WDT_CONTR
      000000DFH   SFRSYM    DATA     BYTE      IP3
      000000F4H   SFRSYM    DATA     BYTE      USBCON
      000000B5H   SFRSYM    DATA     BYTE      IP2
      000000FFH   SFRSYM    DATA     BYTE      RSTCFG
      000000F9H   SFRSYM    DATA     BYTE      LINICR
      0000008EH   SFRSYM    DATA     BYTE      AUXR
      000000AFH   SFRSYM    DATA     BYTE      IE2
      00000080H.7 SFRSYM    DATA     BIT       P07
      00000088H   SFRSYM    DATA     BYTE      TCON
      00000098H   SFRSYM    DATA     BYTE      SCON
      000000F1H   SFRSYM    DATA     BYTE      CANICR
      00000087H   SFRSYM    DATA     BYTE      PCON
      000000BCH   SFRSYM    DATA     BYTE      ADC_CONTR
      000000E7H   SFRSYM    DATA     BYTE      CMPCR2
      000000E6H   SFRSYM    DATA     BYTE      CMPCR1
      000000B8H   SFRSYM    DATA     BYTE      IP
      0000008FH   SFRSYM    DATA     BYTE      INTCLKO
      000000EEH   SFRSYM    DATA     BYTE      IP3H
      000000B6H   SFRSYM    DATA     BYTE      IP2H
      000000A8H   SFRSYM    DATA     BYTE      IE
      000000BBH   SFRSYM    DATA     BYTE      P_SW3
      000000BAH   SFRSYM    DATA     BYTE      P_SW2
      000000A2H   SFRSYM    DATA     BYTE      P_SW1
      000000CEH   SFRSYM    DATA     BYTE      SPCTL
      000000F8H   SFRSYM    DATA     BYTE      P7
      000000E8H   SFRSYM    DATA     BYTE      P6
      000000C8H   SFRSYM    DATA     BYTE      P5
      000000C0H   SFRSYM    DATA     BYTE      P4
L251 LINKER/LOCATER V4.66.93.0                                                        10/06/2023  19:39:35  PAGE 88


      000000B0H   SFRSYM    DATA     BYTE      P3
      000000A0H   SFRSYM    DATA     BYTE      P2
      00000090H   SFRSYM    DATA     BYTE      P1
      00000080H   SFRSYM    DATA     BYTE      P0
      000003CDH   SYMBOL    EDATA    ---       wireless_ch573_buffer
      0000040DH   SYMBOL    EDATA    BYTE      wireless_ch573_data
      0000040EH   SYMBOL    EDATA    ---       wireless_ch573_fifo

      00FF7DE1H   BLOCK     CODE     ---       LVL=0
      00FF7DE1H   LINE      CODE     ---       #47
      00FF7DE1H   LINE      CODE     ---       #50
      00FF7DE7H   LINE      CODE     ---       #51
      00FF7DFAH   LINE      CODE     ---       #52
      ---         BLOCKEND  ---      ---       LVL=0
      00000BFEH   SYMBOL    EDATA    ---       buff
      00000C02H   SYMBOL    EDATA    WORD      len
      00000939H   SYMBOL    EDATA    ---       buff
      0000093DH   SYMBOL    EDATA    DWORD     len
      00000941H   SYMBOL    EDATA    DWORD     data_len

      ---         MODULE    ---      ---       isr
      00FF7886H   PUBLIC    CODE     ---       UART1_Isr
      00FF7D3AH   PUBLIC    CODE     ---       UART2_Isr
      00FF7D58H   PUBLIC    CODE     ---       UART3_Isr
      00FF6E2EH   PUBLIC    CODE     ---       UART4_Isr
      00FF0046H   PUBLIC    CODE     ---       INT0_Isr
      00FF000AH   PUBLIC    CODE     ---       INT1_Isr
      00FF7F03H   PUBLIC    CODE     ---       INT2_Isr
      00FF7F0BH   PUBLIC    CODE     ---       INT3_Isr
      00FF7F13H   PUBLIC    CODE     ---       INT4_Isr
      00FF000EH   PUBLIC    CODE     ---       TM0_Isr
      00FF7A45H   PUBLIC    CODE     ---       TM1_Isr
      00FF7F1BH   PUBLIC    CODE     ---       TM2_Isr
      00FF7F23H   PUBLIC    CODE     ---       TM3_Isr
      00FF7F2BH   PUBLIC    CODE     ---       TM4_Isr
      000000D0H   SFRSYM    DATA     BYTE      PSW
      0000009DH   SFRSYM    DATA     BYTE      IRCBAND
      00000097H   SFRSYM    DATA     BYTE      AUXR2
      000000EFH   SFRSYM    DATA     BYTE      AUXINTIF
      000000FDH   SFRSYM    DATA     BYTE      S4CON
      000000ACH   SFRSYM    DATA     BYTE      S3CON
      0000009AH   SFRSYM    DATA     BYTE      S2CON
      000000B7H   SFRSYM    DATA     BYTE      IPH
      000000CDH   SFRSYM    DATA     BYTE      SPSTAT
      000000DDH   SFRSYM    DATA     BYTE      T4T3M
      000000C1H   SFRSYM    DATA     BYTE      WDT_CONTR
      000000DFH   SFRSYM    DATA     BYTE      IP3
      000000F4H   SFRSYM    DATA     BYTE      USBCON
      000000B5H   SFRSYM    DATA     BYTE      IP2
      000000FFH   SFRSYM    DATA     BYTE      RSTCFG
      000000C7H   SFRSYM    DATA     BYTE      IAP_CONTR
      000000F9H   SFRSYM    DATA     BYTE      LINICR
      0000008EH   SFRSYM    DATA     BYTE      AUXR
      000000AFH   SFRSYM    DATA     BYTE      IE2
      000000C8H.2 SFRSYM    DATA     BIT       P52
      00000088H   SFRSYM    DATA     BYTE      TCON
      00000098H   SFRSYM    DATA     BYTE      SCON
      000000F1H   SFRSYM    DATA     BYTE      CANICR
      00000087H   SFRSYM    DATA     BYTE      PCON
      00000099H   SFRSYM    DATA     BYTE      SBUF
      000000BCH   SFRSYM    DATA     BYTE      ADC_CONTR
      000000E7H   SFRSYM    DATA     BYTE      CMPCR2
      000000E6H   SFRSYM    DATA     BYTE      CMPCR1
      000000B8H   SFRSYM    DATA     BYTE      IP
      0000008FH   SFRSYM    DATA     BYTE      INTCLKO
L251 LINKER/LOCATER V4.66.93.0                                                        10/06/2023  19:39:35  PAGE 89


      000000EEH   SFRSYM    DATA     BYTE      IP3H
      000000B6H   SFRSYM    DATA     BYTE      IP2H
      000000A8H   SFRSYM    DATA     BYTE      IE
      000000BBH   SFRSYM    DATA     BYTE      P_SW3
      000000BAH   SFRSYM    DATA     BYTE      P_SW2
      000000A2H   SFRSYM    DATA     BYTE      P_SW1
      000000CEH   SFRSYM    DATA     BYTE      SPCTL
      000000F8H   SFRSYM    DATA     BYTE      P7
      000000E8H   SFRSYM    DATA     BYTE      P6
      000000C8H   SFRSYM    DATA     BYTE      P5
      000000C0H   SFRSYM    DATA     BYTE      P4
      000000B0H   SFRSYM    DATA     BYTE      P3
      000000A0H   SFRSYM    DATA     BYTE      P2
      00000090H   SFRSYM    DATA     BYTE      P1
      00000080H   SFRSYM    DATA     BYTE      P0

      00FF7886H   BLOCK     CODE     ---       LVL=0
      00FF788AH   BLOCK     CODE     NEAR LAB  LVL=1
      00000D14H   SYMBOL    EDATA    BYTE      res
      00000D15H   SYMBOL    EDATA    BYTE      dwon_count
      ---         BLOCKEND  ---      ---       LVL=1
      00FF7886H   LINE      CODE     ---       #28
      00FF788AH   LINE      CODE     ---       #29
      00FF788AH   LINE      CODE     ---       #32
      00FF788FH   LINE      CODE     ---       #34
      00FF7892H   LINE      CODE     ---       #35
      00FF7897H   LINE      CODE     ---       #36
      00FF7897H   LINE      CODE     ---       #37
      00FF789CH   LINE      CODE     ---       #39
      00FF789FH   LINE      CODE     ---       #40
      00FF78A5H   LINE      CODE     ---       #42
      00FF78AAH   LINE      CODE     ---       #44
      00FF78BCH   LINE      CODE     ---       #45
      00FF78C0H   LINE      CODE     ---       #46
      00FF78C2H   LINE      CODE     ---       #49
      00FF78C7H   LINE      CODE     ---       #50
      00FF78C7H   LINE      CODE     ---       #51
      ---         BLOCKEND  ---      ---       LVL=0

      00FF7D3AH   BLOCK     CODE     ---       LVL=0
      00FF7D3AH   LINE      CODE     ---       #55
      00FF7D3EH   LINE      CODE     ---       #57
      00FF7D43H   LINE      CODE     ---       #59
      00FF7D46H   LINE      CODE     ---       #60
      00FF7D4BH   LINE      CODE     ---       #61
      00FF7D4BH   LINE      CODE     ---       #62
      00FF7D50H   LINE      CODE     ---       #64
      00FF7D53H   LINE      CODE     ---       #67
      ---         BLOCKEND  ---      ---       LVL=0

      00FF7D58H   BLOCK     CODE     ---       LVL=0
      00FF7D58H   LINE      CODE     ---       #72
      00FF7D5CH   LINE      CODE     ---       #74
      00FF7D61H   LINE      CODE     ---       #76
      00FF7D64H   LINE      CODE     ---       #77
      00FF7D69H   LINE      CODE     ---       #78
      00FF7D69H   LINE      CODE     ---       #79
      00FF7D6EH   LINE      CODE     ---       #81
      00FF7D71H   LINE      CODE     ---       #84
      ---         BLOCKEND  ---      ---       LVL=0

      00FF6E2EH   BLOCK     CODE     ---       LVL=0
      00FF6E2EH   LINE      CODE     ---       #89
      00FF6E44H   LINE      CODE     ---       #91
      00FF6E49H   LINE      CODE     ---       #93
L251 LINKER/LOCATER V4.66.93.0                                                        10/06/2023  19:39:35  PAGE 90


      00FF6E4CH   LINE      CODE     ---       #94
      00FF6E51H   LINE      CODE     ---       #95
      00FF6E51H   LINE      CODE     ---       #96
      00FF6E56H   LINE      CODE     ---       #98
      00FF6E59H   LINE      CODE     ---       #101
      00FF6E65H   LINE      CODE     ---       #103
      00FF6E68H   LINE      CODE     ---       #104
      00FF6E6AH   LINE      CODE     ---       #105
      00FF6E76H   LINE      CODE     ---       #107
      00FF6E79H   LINE      CODE     ---       #108
      00FF6E7BH   LINE      CODE     ---       #109
      00FF6E87H   LINE      CODE     ---       #111
      00FF6E8AH   LINE      CODE     ---       #112
      00FF6E8AH   LINE      CODE     ---       #114
      ---         BLOCKEND  ---      ---       LVL=0

      00FF0046H   BLOCK     CODE     ---       LVL=0
      00FF0046H   LINE      CODE     ---       #117
      00FF0048H   LINE      CODE     ---       #119
      00FF004BH   LINE      CODE     ---       #120
      ---         BLOCKEND  ---      ---       LVL=0

      00FF000AH   BLOCK     CODE     ---       LVL=0
      00FF000AH   LINE      CODE     ---       #121
      00FF000AH   LINE      CODE     ---       #124
      ---         BLOCKEND  ---      ---       LVL=0

      00FF7F03H   BLOCK     CODE     ---       LVL=0
      00FF7F03H   LINE      CODE     ---       #125
      00FF7F05H   LINE      CODE     ---       #127
      00FF7F08H   LINE      CODE     ---       #128
      ---         BLOCKEND  ---      ---       LVL=0

      00FF7F0BH   BLOCK     CODE     ---       LVL=0
      00FF7F0BH   LINE      CODE     ---       #129
      00FF7F0DH   LINE      CODE     ---       #131
      00FF7F10H   LINE      CODE     ---       #132
      ---         BLOCKEND  ---      ---       LVL=0

      00FF7F13H   BLOCK     CODE     ---       LVL=0
      00FF7F13H   LINE      CODE     ---       #134
      00FF7F15H   LINE      CODE     ---       #136
      00FF7F18H   LINE      CODE     ---       #137
      ---         BLOCKEND  ---      ---       LVL=0

      00FF000EH   BLOCK     CODE     ---       LVL=0
      00FF000EH   LINE      CODE     ---       #138
      00FF000EH   LINE      CODE     ---       #140
      ---         BLOCKEND  ---      ---       LVL=0

      00FF7A45H   BLOCK     CODE     ---       LVL=0
      00FF7A45H   LINE      CODE     ---       #141
      00FF7A5BH   LINE      CODE     ---       #143
      00FF7A5EH   LINE      CODE     ---       #144
      00FF7A61H   LINE      CODE     ---       #145
      00FF7A64H   LINE      CODE     ---       #146
      ---         BLOCKEND  ---      ---       LVL=0

      00FF7F1BH   BLOCK     CODE     ---       LVL=0
      00FF7F1BH   LINE      CODE     ---       #147
      00FF7F1DH   LINE      CODE     ---       #149
      00FF7F20H   LINE      CODE     ---       #150
      ---         BLOCKEND  ---      ---       LVL=0

      00FF7F23H   BLOCK     CODE     ---       LVL=0
L251 LINKER/LOCATER V4.66.93.0                                                        10/06/2023  19:39:35  PAGE 91


      00FF7F23H   LINE      CODE     ---       #151
      00FF7F25H   LINE      CODE     ---       #153
      00FF7F28H   LINE      CODE     ---       #154
      ---         BLOCKEND  ---      ---       LVL=0

      00FF7F2BH   BLOCK     CODE     ---       LVL=0
      00FF7F2BH   LINE      CODE     ---       #157
      00FF7F2DH   LINE      CODE     ---       #159
      00FF7F30H   LINE      CODE     ---       #164
      ---         BLOCKEND  ---      ---       LVL=0

      ---         MODULE    ---      ---       main
      00FF6BC6H   PUBLIC    CODE     ---       main
      00000D01H   PUBLIC    EDATA    INT       protect_motor
      000000D0H   SFRSYM    DATA     BYTE      PSW
      0000009DH   SFRSYM    DATA     BYTE      IRCBAND
      00000097H   SFRSYM    DATA     BYTE      AUXR2
      000000EFH   SFRSYM    DATA     BYTE      AUXINTIF
      000000FDH   SFRSYM    DATA     BYTE      S4CON
      000000ACH   SFRSYM    DATA     BYTE      S3CON
      0000009AH   SFRSYM    DATA     BYTE      S2CON
      000000B7H   SFRSYM    DATA     BYTE      IPH
      000000CDH   SFRSYM    DATA     BYTE      SPSTAT
      000000DDH   SFRSYM    DATA     BYTE      T4T3M
      000000C1H   SFRSYM    DATA     BYTE      WDT_CONTR
      000000DFH   SFRSYM    DATA     BYTE      IP3
      000000F4H   SFRSYM    DATA     BYTE      USBCON
      000000B5H   SFRSYM    DATA     BYTE      IP2
      000000FFH   SFRSYM    DATA     BYTE      RSTCFG
      000000F9H   SFRSYM    DATA     BYTE      LINICR
      0000008EH   SFRSYM    DATA     BYTE      AUXR
      000000AFH   SFRSYM    DATA     BYTE      IE2
      00000088H   SFRSYM    DATA     BYTE      TCON
      00000098H   SFRSYM    DATA     BYTE      SCON
      000000F1H   SFRSYM    DATA     BYTE      CANICR
      00000087H   SFRSYM    DATA     BYTE      PCON
      000000BCH   SFRSYM    DATA     BYTE      ADC_CONTR
      000000E7H   SFRSYM    DATA     BYTE      CMPCR2
      000000E6H   SFRSYM    DATA     BYTE      CMPCR1
      000000B8H   SFRSYM    DATA     BYTE      IP
      0000008FH   SFRSYM    DATA     BYTE      INTCLKO
      000000EEH   SFRSYM    DATA     BYTE      IP3H
      000000B6H   SFRSYM    DATA     BYTE      IP2H
      000000A8H   SFRSYM    DATA     BYTE      IE
      000000BBH   SFRSYM    DATA     BYTE      P_SW3
      000000BAH   SFRSYM    DATA     BYTE      P_SW2
      000000A2H   SFRSYM    DATA     BYTE      P_SW1
      000000CEH   SFRSYM    DATA     BYTE      SPCTL
      000000F8H   SFRSYM    DATA     BYTE      P7
      000000E8H   SFRSYM    DATA     BYTE      P6
      000000C8H   SFRSYM    DATA     BYTE      P5
      000000C0H   SFRSYM    DATA     BYTE      P4
      000000B0H   SFRSYM    DATA     BYTE      P3
      000000A0H   SFRSYM    DATA     BYTE      P2
      00000090H   SFRSYM    DATA     BYTE      P1
      00000080H   SFRSYM    DATA     BYTE      P0

      00FF6BC6H   BLOCK     CODE     ---       LVL=0
      00FF6BC6H   LINE      CODE     ---       #38
      00FF6BC6H   LINE      CODE     ---       #40
      00FF6BC9H   LINE      CODE     ---       #43
      00FF6BCCH   LINE      CODE     ---       #44
      00FF6BCFH   LINE      CODE     ---       #45
      00FF6BD2H   LINE      CODE     ---       #46
      00FF6BDBH   LINE      CODE     ---       #47
L251 LINKER/LOCATER V4.66.93.0                                                        10/06/2023  19:39:35  PAGE 92


      00FF6BE4H   LINE      CODE     ---       #48
      00FF6BE9H   LINE      CODE     ---       #49
      00FF6BF0H   LINE      CODE     ---       #50
      00FF6BFBH   LINE      CODE     ---       #52
      00FF6BFBH   LINE      CODE     ---       #55
      00FF6C02H   LINE      CODE     ---       #58
      00FF6C14H   LINE      CODE     ---       #59
      00FF6C28H   LINE      CODE     ---       #65
      00FF6C32H   LINE      CODE     ---       #66
      00FF6C3FH   LINE      CODE     ---       #67
      00FF6C46H   LINE      CODE     ---       #69
      00FF6C48H   LINE      CODE     ---       #70
      ---         BLOCKEND  ---      ---       LVL=0

      ---         MODULE    ---      ---       allinit
      000000D0H   SFRSYM    DATA     BYTE      PSW
      0000009DH   SFRSYM    DATA     BYTE      IRCBAND
      00000097H   SFRSYM    DATA     BYTE      AUXR2
      000000EFH   SFRSYM    DATA     BYTE      AUXINTIF
      000000FDH   SFRSYM    DATA     BYTE      S4CON
      000000ACH   SFRSYM    DATA     BYTE      S3CON
      0000009AH   SFRSYM    DATA     BYTE      S2CON
      000000B7H   SFRSYM    DATA     BYTE      IPH
      000000CDH   SFRSYM    DATA     BYTE      SPSTAT
      000000DDH   SFRSYM    DATA     BYTE      T4T3M
      000000C1H   SFRSYM    DATA     BYTE      WDT_CONTR
      000000DFH   SFRSYM    DATA     BYTE      IP3
      000000F4H   SFRSYM    DATA     BYTE      USBCON
      000000B5H   SFRSYM    DATA     BYTE      IP2
      000000FFH   SFRSYM    DATA     BYTE      RSTCFG
      000000F9H   SFRSYM    DATA     BYTE      LINICR
      0000008EH   SFRSYM    DATA     BYTE      AUXR
      000000AFH   SFRSYM    DATA     BYTE      IE2
      00000088H   SFRSYM    DATA     BYTE      TCON
      00000098H   SFRSYM    DATA     BYTE      SCON
      000000F1H   SFRSYM    DATA     BYTE      CANICR
      00000087H   SFRSYM    DATA     BYTE      PCON
      000000BCH   SFRSYM    DATA     BYTE      ADC_CONTR
      000000E7H   SFRSYM    DATA     BYTE      CMPCR2
      000000E6H   SFRSYM    DATA     BYTE      CMPCR1
      000000B8H   SFRSYM    DATA     BYTE      IP
      0000008FH   SFRSYM    DATA     BYTE      INTCLKO
      000000EEH   SFRSYM    DATA     BYTE      IP3H
      000000B6H   SFRSYM    DATA     BYTE      IP2H
      000000A8H   SFRSYM    DATA     BYTE      IE
      000000BBH   SFRSYM    DATA     BYTE      P_SW3
      000000BAH   SFRSYM    DATA     BYTE      P_SW2
      000000A2H   SFRSYM    DATA     BYTE      P_SW1
      000000CEH   SFRSYM    DATA     BYTE      SPCTL
      000000F8H   SFRSYM    DATA     BYTE      P7
      000000E8H   SFRSYM    DATA     BYTE      P6
      000000C8H   SFRSYM    DATA     BYTE      P5
      000000C0H   SFRSYM    DATA     BYTE      P4
      000000B0H   SFRSYM    DATA     BYTE      P3
      000000A0H   SFRSYM    DATA     BYTE      P2
      00000090H   SFRSYM    DATA     BYTE      P1
      00000080H   SFRSYM    DATA     BYTE      P0

      ---         MODULE    ---      ---       EM
      00000008H   PUBLIC    EDATA    FLOAT     distance_R
      0000000CH   PUBLIC    EDATA    FLOAT     ADC_ALL
      00000010H   PUBLIC    EDATA    ---       AD_MinValue
      00000020H   PUBLIC    EDATA    ---       AD_MaxValue
      00000030H   PUBLIC    EDATA    FLOAT     AD_M_Right
      00000034H   PUBLIC    EDATA    ---       ADC_Final
L251 LINKER/LOCATER V4.66.93.0                                                        10/06/2023  19:39:35  PAGE 93


      00000054H   PUBLIC    EDATA    FLOAT     AD_M_Lift
      00000058H   PUBLIC    EDATA    ---       adc
      00000068H   PUBLIC    EDATA    FLOAT     ADC_LD
      0000006CH   PUBLIC    EDATA    FLOAT     ADC_MD
      00000070H   PUBLIC    EDATA    FLOAT     ADC_RD
      00000074H   PUBLIC    EDATA    FLOAT     RightAverage
      00000078H   PUBLIC    EDATA    FLOAT     ADC_LM
      0000007CH   PUBLIC    EDATA    FLOAT     ADC_RM
      00000080H   PUBLIC    EDATA    ---       RightADC
      000000A8H   PUBLIC    EDATA    FLOAT     LeftAverage
      000000ACH   PUBLIC    EDATA    FLOAT     distance
      000000B0H   PUBLIC    EDATA    ---       LeftADC
      000000D8H   PUBLIC    EDATA    FLOAT     ADC_L
      000000DCH   PUBLIC    EDATA    FLOAT     ADC_M
      000000E0H   PUBLIC    EDATA    FLOAT     ADC_R
      000000E4H   PUBLIC    EDATA    FLOAT     distance_L
      000000D0H   SFRSYM    DATA     BYTE      PSW
      0000009DH   SFRSYM    DATA     BYTE      IRCBAND
      00000097H   SFRSYM    DATA     BYTE      AUXR2
      000000EFH   SFRSYM    DATA     BYTE      AUXINTIF
      000000FDH   SFRSYM    DATA     BYTE      S4CON
      000000ACH   SFRSYM    DATA     BYTE      S3CON
      0000009AH   SFRSYM    DATA     BYTE      S2CON
      000000B7H   SFRSYM    DATA     BYTE      IPH
      000000CDH   SFRSYM    DATA     BYTE      SPSTAT
      000000DDH   SFRSYM    DATA     BYTE      T4T3M
      000000C1H   SFRSYM    DATA     BYTE      WDT_CONTR
      000000DFH   SFRSYM    DATA     BYTE      IP3
      000000F4H   SFRSYM    DATA     BYTE      USBCON
      000000B5H   SFRSYM    DATA     BYTE      IP2
      000000FFH   SFRSYM    DATA     BYTE      RSTCFG
      000000F9H   SFRSYM    DATA     BYTE      LINICR
      0000008EH   SFRSYM    DATA     BYTE      AUXR
      000000AFH   SFRSYM    DATA     BYTE      IE2
      00000088H   SFRSYM    DATA     BYTE      TCON
      00000098H   SFRSYM    DATA     BYTE      SCON
      000000F1H   SFRSYM    DATA     BYTE      CANICR
      00000087H   SFRSYM    DATA     BYTE      PCON
      000000BCH   SFRSYM    DATA     BYTE      ADC_CONTR
      000000E7H   SFRSYM    DATA     BYTE      CMPCR2
      000000E6H   SFRSYM    DATA     BYTE      CMPCR1
      000000B8H   SFRSYM    DATA     BYTE      IP
      0000008FH   SFRSYM    DATA     BYTE      INTCLKO
      000000EEH   SFRSYM    DATA     BYTE      IP3H
      000000B6H   SFRSYM    DATA     BYTE      IP2H
      000000A8H   SFRSYM    DATA     BYTE      IE
      000000BBH   SFRSYM    DATA     BYTE      P_SW3
      000000BAH   SFRSYM    DATA     BYTE      P_SW2
      000000A2H   SFRSYM    DATA     BYTE      P_SW1
      000000CEH   SFRSYM    DATA     BYTE      SPCTL
      000000F8H   SFRSYM    DATA     BYTE      P7
      000000E8H   SFRSYM    DATA     BYTE      P6
      000000C8H   SFRSYM    DATA     BYTE      P5
      000000C0H   SFRSYM    DATA     BYTE      P4
      000000B0H   SFRSYM    DATA     BYTE      P3
      000000A0H   SFRSYM    DATA     BYTE      P2
      00000090H   SFRSYM    DATA     BYTE      P1
      00000080H   SFRSYM    DATA     BYTE      P0
      000000F8H   SYMBOL    EDATA    WORD      i
      000000FAH   SYMBOL    EDATA    WORD      j
      000000FCH   SYMBOL    EDATA    INT       filter_temp
      000000FEH   SYMBOL    EDATA    ---       Left
      00000112H   SYMBOL    EDATA    ---       Left_M
      00000126H   SYMBOL    EDATA    ---       Middle_L
      0000013AH   SYMBOL    EDATA    ---       Right
L251 LINKER/LOCATER V4.66.93.0                                                        10/06/2023  19:39:35  PAGE 94


      0000014EH   SYMBOL    EDATA    ---       Right_M
      00000162H   SYMBOL    EDATA    ---       Middle_R
      00000176H   SYMBOL    EDATA    ---       Middle
      0000018AH   SYMBOL    EDATA    ---       Middle_H
      000000E8H   SYMBOL    EDATA    ---       adc_last
      000006C7H   SYMBOL    EDATA    ---       AD_Sensor
      000006CBH   SYMBOL    EDATA    ---       AD_Normalized
      000006EBH   SYMBOL    EDATA    BYTE      i
      00000C04H   SYMBOL    EDATA    INT       i
      00000C06H   SYMBOL    EDATA    INT       Right_Sum
      00000C08H   SYMBOL    EDATA    INT       Left_Sum

      ---         MODULE    ---      ---       encoder
      00FF6D42H   PUBLIC    CODE     ---       EncoderCount
      0000077CH   PUBLIC    EDATA    FLOAT     encoder_integral
      00000780H   PUBLIC    EDATA    INT       right_speed_in
      00000782H   PUBLIC    EDATA    FLOAT     encoder_integral1
      00000786H   PUBLIC    EDATA    FLOAT     encoder_integral2
      0000078AH   PUBLIC    EDATA    INT       left_speed_in
      0000078CH   PUBLIC    EDATA    FLOAT     encoder
      000000D0H   SFRSYM    DATA     BYTE      PSW
      0000009DH   SFRSYM    DATA     BYTE      IRCBAND
      00000097H   SFRSYM    DATA     BYTE      AUXR2
      000000EFH   SFRSYM    DATA     BYTE      AUXINTIF
      000000FDH   SFRSYM    DATA     BYTE      S4CON
      000000ACH   SFRSYM    DATA     BYTE      S3CON
      0000009AH   SFRSYM    DATA     BYTE      S2CON
      000000B7H   SFRSYM    DATA     BYTE      IPH
      000000CDH   SFRSYM    DATA     BYTE      SPSTAT
      000000DDH   SFRSYM    DATA     BYTE      T4T3M
      000000C1H   SFRSYM    DATA     BYTE      WDT_CONTR
      000000DFH   SFRSYM    DATA     BYTE      IP3
      000000F4H   SFRSYM    DATA     BYTE      USBCON
      000000B5H   SFRSYM    DATA     BYTE      IP2
      000000FFH   SFRSYM    DATA     BYTE      RSTCFG
      000000F9H   SFRSYM    DATA     BYTE      LINICR
      0000008EH   SFRSYM    DATA     BYTE      AUXR
      000000AFH   SFRSYM    DATA     BYTE      IE2
      00000088H   SFRSYM    DATA     BYTE      TCON
      00000098H   SFRSYM    DATA     BYTE      SCON
      000000F1H   SFRSYM    DATA     BYTE      CANICR
      00000087H   SFRSYM    DATA     BYTE      PCON
      000000BCH   SFRSYM    DATA     BYTE      ADC_CONTR
      000000E7H   SFRSYM    DATA     BYTE      CMPCR2
      000000E6H   SFRSYM    DATA     BYTE      CMPCR1
      000000B8H   SFRSYM    DATA     BYTE      IP
      0000008FH   SFRSYM    DATA     BYTE      INTCLKO
      000000EEH   SFRSYM    DATA     BYTE      IP3H
      000000B6H   SFRSYM    DATA     BYTE      IP2H
      000000A8H   SFRSYM    DATA     BYTE      IE
      000000BBH   SFRSYM    DATA     BYTE      P_SW3
      000000BAH   SFRSYM    DATA     BYTE      P_SW2
      000000A2H   SFRSYM    DATA     BYTE      P_SW1
      000000CEH   SFRSYM    DATA     BYTE      SPCTL
      000000F8H   SFRSYM    DATA     BYTE      P7
      000000E8H   SFRSYM    DATA     BYTE      P6
      000000C8H   SFRSYM    DATA     BYTE      P5
      000000C0H   SFRSYM    DATA     BYTE      P4
      000000B0H   SFRSYM    DATA     BYTE      P3
      000000A0H   SFRSYM    DATA     BYTE      P2
      00000090H   SFRSYM    DATA     BYTE      P1
      00000080H   SFRSYM    DATA     BYTE      P0

      00FF6D42H   BLOCK     CODE     ---       LVL=0
      00FF6D42H   LINE      CODE     ---       #13
L251 LINKER/LOCATER V4.66.93.0                                                        10/06/2023  19:39:35  PAGE 95


      00FF6D42H   LINE      CODE     ---       #16
      00FF6D4DH   LINE      CODE     ---       #17
      00FF6D56H   LINE      CODE     ---       #19
      00FF6D5DH   LINE      CODE     ---       #20
      00FF6D62H   LINE      CODE     ---       #21
      00FF6D7EH   LINE      CODE     ---       #22
      00FF6D9AH   LINE      CODE     ---       #25
      00FF6DA9H   LINE      CODE     ---       #26
      00FF6DB8H   LINE      CODE     ---       #27
      ---         BLOCKEND  ---      ---       LVL=0

      ---         MODULE    ---      ---       motor
      00FF78CCH   PUBLIC    CODE     ---       motor_init
      00FF65D6H   PUBLIC    CODE     ---       PWMSetMotor2
      000000D0H   SFRSYM    DATA     BYTE      PSW
      0000009DH   SFRSYM    DATA     BYTE      IRCBAND
      00000097H   SFRSYM    DATA     BYTE      AUXR2
      000000EFH   SFRSYM    DATA     BYTE      AUXINTIF
      000000FDH   SFRSYM    DATA     BYTE      S4CON
      000000ACH   SFRSYM    DATA     BYTE      S3CON
      0000009AH   SFRSYM    DATA     BYTE      S2CON
      000000B7H   SFRSYM    DATA     BYTE      IPH
      000000CDH   SFRSYM    DATA     BYTE      SPSTAT
      000000DDH   SFRSYM    DATA     BYTE      T4T3M
      000000C1H   SFRSYM    DATA     BYTE      WDT_CONTR
      000000DFH   SFRSYM    DATA     BYTE      IP3
      000000F4H   SFRSYM    DATA     BYTE      USBCON
      000000B5H   SFRSYM    DATA     BYTE      IP2
      000000FFH   SFRSYM    DATA     BYTE      RSTCFG
      000000F9H   SFRSYM    DATA     BYTE      LINICR
      0000008EH   SFRSYM    DATA     BYTE      AUXR
      000000AFH   SFRSYM    DATA     BYTE      IE2
      00000088H   SFRSYM    DATA     BYTE      TCON
      00000098H   SFRSYM    DATA     BYTE      SCON
      000000F1H   SFRSYM    DATA     BYTE      CANICR
      00000087H   SFRSYM    DATA     BYTE      PCON
      000000BCH   SFRSYM    DATA     BYTE      ADC_CONTR
      000000E7H   SFRSYM    DATA     BYTE      CMPCR2
      000000E6H   SFRSYM    DATA     BYTE      CMPCR1
      000000B8H   SFRSYM    DATA     BYTE      IP
      0000008FH   SFRSYM    DATA     BYTE      INTCLKO
      000000EEH   SFRSYM    DATA     BYTE      IP3H
      000000B6H   SFRSYM    DATA     BYTE      IP2H
      000000A8H   SFRSYM    DATA     BYTE      IE
      000000BBH   SFRSYM    DATA     BYTE      P_SW3
      000000BAH   SFRSYM    DATA     BYTE      P_SW2
      000000A2H   SFRSYM    DATA     BYTE      P_SW1
      000000CEH   SFRSYM    DATA     BYTE      SPCTL
      000000F8H   SFRSYM    DATA     BYTE      P7
      000000E8H   SFRSYM    DATA     BYTE      P6
      000000C8H   SFRSYM    DATA     BYTE      P5
      000000C0H   SFRSYM    DATA     BYTE      P4
      000000B0H   SFRSYM    DATA     BYTE      P3
      000000A0H   SFRSYM    DATA     BYTE      P2
      00000090H   SFRSYM    DATA     BYTE      P1
      00000080H   SFRSYM    DATA     BYTE      P0

      00FF78CCH   BLOCK     CODE     ---       LVL=0
      00FF78CCH   LINE      CODE     ---       #13
      00FF78CCH   LINE      CODE     ---       #16
      00FF78DDH   LINE      CODE     ---       #17
      00FF78EEH   LINE      CODE     ---       #19
      00FF78FFH   LINE      CODE     ---       #20
      00FF7910H   LINE      CODE     ---       #22
      ---         BLOCKEND  ---      ---       LVL=0
L251 LINKER/LOCATER V4.66.93.0                                                        10/06/2023  19:39:35  PAGE 96



      00FF65D6H   BLOCK     CODE     ---       LVL=0
      00000C80H   SYMBOL    EDATA    INT       speed_pwmL
      00000C82H   SYMBOL    EDATA    INT       speed_pwmR
      00FF65D6H   LINE      CODE     ---       #88
      00FF65DEH   LINE      CODE     ---       #90
      00FF65EAH   LINE      CODE     ---       #92
      00FF65F2H   LINE      CODE     ---       #93
      00FF65F2H   LINE      CODE     ---       #94
      00FF65FEH   LINE      CODE     ---       #96
      00FF6606H   LINE      CODE     ---       #97
      00FF6606H   LINE      CODE     ---       #99
      00FF6612H   LINE      CODE     ---       #101
      00FF661AH   LINE      CODE     ---       #102
      00FF661AH   LINE      CODE     ---       #103
      00FF6626H   LINE      CODE     ---       #105
      00FF662EH   LINE      CODE     ---       #106
      00FF662EH   LINE      CODE     ---       #108
      00FF6638H   LINE      CODE     ---       #110
      00FF6647H   LINE      CODE     ---       #111
      00FF6652H   LINE      CODE     ---       #112
      00FF6654H   LINE      CODE     ---       #115
      00FF6662H   LINE      CODE     ---       #119
      00FF6671H   LINE      CODE     ---       #120
      00FF667AH   LINE      CODE     ---       #121
      00FF667AH   LINE      CODE     ---       #123
      00FF6684H   LINE      CODE     ---       #126
      00FF6693H   LINE      CODE     ---       #127
      00FF669EH   LINE      CODE     ---       #128
      00FF66A0H   LINE      CODE     ---       #131
      00FF66AEH   LINE      CODE     ---       #132
      00FF66BDH   LINE      CODE     ---       #133
      00FF66C6H   LINE      CODE     ---       #134
      00FF66C6H   LINE      CODE     ---       #135
      ---         BLOCKEND  ---      ---       LVL=0

      ---         MODULE    ---      ---       pid
      00000422H   PUBLIC    EDATA    FLOAT     ii1
      00000426H   PUBLIC    EDATA    FLOAT     ii2
      0000042AH   PUBLIC    EDATA    FLOAT     in1
      0000042EH   PUBLIC    EDATA    FLOAT     in2
      00000432H   PUBLIC    EDATA    FLOAT     out1
      00000436H   PUBLIC    EDATA    FLOAT     out2
      0000043AH   PUBLIC    EDATA    FLOAT     pp1
      0000043EH   PUBLIC    EDATA    FLOAT     pp2
      00000442H   PUBLIC    EDATA    FLOAT     setpoint1
      00000446H   PUBLIC    EDATA    FLOAT     setpoint2
      0000044AH   PUBLIC    EDATA    FLOAT     min_speed
      0000044EH   PUBLIC    EDATA    FLOAT     max_speed
      00000452H   PUBLIC    EDATA    FLOAT     lastin1
      00000456H   PUBLIC    EDATA    FLOAT     lastin2
      0000045AH   PUBLIC    EDATA    FLOAT     iterm1
      0000045EH   PUBLIC    EDATA    FLOAT     iterm2
      00000462H   PUBLIC    EDATA    INT       accerror
      00000464H   PUBLIC    EDATA    INT       lasterror
      00000466H   PUBLIC    EDATA    FLOAT     dd1
      0000046AH   PUBLIC    EDATA    FLOAT     dd2
      0000046EH   PUBLIC    EDATA    INT       begin_speed
      000000D0H   SFRSYM    DATA     BYTE      PSW
      0000009DH   SFRSYM    DATA     BYTE      IRCBAND
      00000097H   SFRSYM    DATA     BYTE      AUXR2
      000000EFH   SFRSYM    DATA     BYTE      AUXINTIF
      000000FDH   SFRSYM    DATA     BYTE      S4CON
      000000ACH   SFRSYM    DATA     BYTE      S3CON
      0000009AH   SFRSYM    DATA     BYTE      S2CON
L251 LINKER/LOCATER V4.66.93.0                                                        10/06/2023  19:39:35  PAGE 97


      000000B7H   SFRSYM    DATA     BYTE      IPH
      000000CDH   SFRSYM    DATA     BYTE      SPSTAT
      000000DDH   SFRSYM    DATA     BYTE      T4T3M
      000000C1H   SFRSYM    DATA     BYTE      WDT_CONTR
      000000DFH   SFRSYM    DATA     BYTE      IP3
      000000F4H   SFRSYM    DATA     BYTE      USBCON
      000000B5H   SFRSYM    DATA     BYTE      IP2
      000000FFH   SFRSYM    DATA     BYTE      RSTCFG
      000000F9H   SFRSYM    DATA     BYTE      LINICR
      0000008EH   SFRSYM    DATA     BYTE      AUXR
      000000AFH   SFRSYM    DATA     BYTE      IE2
      00000088H   SFRSYM    DATA     BYTE      TCON
      00000098H   SFRSYM    DATA     BYTE      SCON
      000000F1H   SFRSYM    DATA     BYTE      CANICR
      00000087H   SFRSYM    DATA     BYTE      PCON
      000000BCH   SFRSYM    DATA     BYTE      ADC_CONTR
      000000E7H   SFRSYM    DATA     BYTE      CMPCR2
      000000E6H   SFRSYM    DATA     BYTE      CMPCR1
      000000B8H   SFRSYM    DATA     BYTE      IP
      0000008FH   SFRSYM    DATA     BYTE      INTCLKO
      000000EEH   SFRSYM    DATA     BYTE      IP3H
      000000B6H   SFRSYM    DATA     BYTE      IP2H
      000000A8H   SFRSYM    DATA     BYTE      IE
      000000BBH   SFRSYM    DATA     BYTE      P_SW3
      000000BAH   SFRSYM    DATA     BYTE      P_SW2
      000000A2H   SFRSYM    DATA     BYTE      P_SW1
      000000CEH   SFRSYM    DATA     BYTE      SPCTL
      000000F8H   SFRSYM    DATA     BYTE      P7
      000000E8H   SFRSYM    DATA     BYTE      P6
      000000C8H   SFRSYM    DATA     BYTE      P5
      000000C0H   SFRSYM    DATA     BYTE      P4
      000000B0H   SFRSYM    DATA     BYTE      P3
      000000A0H   SFRSYM    DATA     BYTE      P2
      00000090H   SFRSYM    DATA     BYTE      P1
      00000080H   SFRSYM    DATA     BYTE      P0

      ---         MODULE    ---      ---       pidcc
      00FF57B1H   PUBLIC    CODE     ---       speedright_pid_realize
      00FF7CFCH   PUBLIC    CODE     ---       speed_pid
      00FF5A06H   PUBLIC    CODE     ---       speedleft_pid_realize
      00FF75DFH   PUBLIC    CODE     ---       pid_steers
      00FF3AB5H   PUBLIC    CODE     ---       ele_direction_control
      0000019EH   PUBLIC    EDATA    ---       toipid_speed_right
      000001A2H   PUBLIC    EDATA    FLOAT     setpoint_left
      000001A6H   PUBLIC    EDATA    ---       toipid_speed_left
      000001AAH   PUBLIC    EDATA    ---       ipid_speed_right
      000001CCH   PUBLIC    EDATA    INT       adc_right_edge
      000001CEH   PUBLIC    EDATA    INT       status
      000001D0H   PUBLIC    EDATA    ---       ipid_speed_left
      000001F2H   PUBLIC    EDATA    INT       adc_left_edge
      000001F4H   PUBLIC    EDATA    INT       speedflag
      000001F6H   PUBLIC    EDATA    INT       adc_mid
      000001F8H   PUBLIC    EDATA    ---       pid_steer
      00000230H   PUBLIC    EDATA    INT       adc_right_mid
      00000232H   PUBLIC    EDATA    INT       adc_left_mid
      00000234H   PUBLIC    EDATA    FLOAT     setpoint_right
      00000945H   PUBLIC    EDATA    BYTE      ?judge_circle_in?BYTE
      00000951H   PUBLIC    EDATA    BYTE      ?judge_circle_out?BYTE
      00000790H   PUBLIC    EDATA    BYTE      ?ele_direction_control?BYTE
      000000D0H   SFRSYM    DATA     BYTE      PSW
      0000009DH   SFRSYM    DATA     BYTE      IRCBAND
      00000097H   SFRSYM    DATA     BYTE      AUXR2
      000000EFH   SFRSYM    DATA     BYTE      AUXINTIF
      000000FDH   SFRSYM    DATA     BYTE      S4CON
      000000ACH   SFRSYM    DATA     BYTE      S3CON
L251 LINKER/LOCATER V4.66.93.0                                                        10/06/2023  19:39:35  PAGE 98


      0000009AH   SFRSYM    DATA     BYTE      S2CON
      000000B7H   SFRSYM    DATA     BYTE      IPH
      000000CDH   SFRSYM    DATA     BYTE      SPSTAT
      000000DDH   SFRSYM    DATA     BYTE      T4T3M
      000000C1H   SFRSYM    DATA     BYTE      WDT_CONTR
      000000DFH   SFRSYM    DATA     BYTE      IP3
      000000F4H   SFRSYM    DATA     BYTE      USBCON
      000000B5H   SFRSYM    DATA     BYTE      IP2
      000000FFH   SFRSYM    DATA     BYTE      RSTCFG
      000000F9H   SFRSYM    DATA     BYTE      LINICR
      0000008EH   SFRSYM    DATA     BYTE      AUXR
      000000AFH   SFRSYM    DATA     BYTE      IE2
      00000088H   SFRSYM    DATA     BYTE      TCON
      00000098H   SFRSYM    DATA     BYTE      SCON
      000000F1H   SFRSYM    DATA     BYTE      CANICR
      00000087H   SFRSYM    DATA     BYTE      PCON
      000000BCH   SFRSYM    DATA     BYTE      ADC_CONTR
      000000E7H   SFRSYM    DATA     BYTE      CMPCR2
      000000E6H   SFRSYM    DATA     BYTE      CMPCR1
      000000B8H   SFRSYM    DATA     BYTE      IP
      0000008FH   SFRSYM    DATA     BYTE      INTCLKO
      000000EEH   SFRSYM    DATA     BYTE      IP3H
      000000B6H   SFRSYM    DATA     BYTE      IP2H
      000000A8H   SFRSYM    DATA     BYTE      IE
      000000BBH   SFRSYM    DATA     BYTE      P_SW3
      000000BAH   SFRSYM    DATA     BYTE      P_SW2
      000000A2H   SFRSYM    DATA     BYTE      P_SW1
      000000CEH   SFRSYM    DATA     BYTE      SPCTL
      000000F8H   SFRSYM    DATA     BYTE      P7
      000000E8H   SFRSYM    DATA     BYTE      P6
      000000C8H   SFRSYM    DATA     BYTE      P5
      000000C0H   SFRSYM    DATA     BYTE      P4
      000000B0H   SFRSYM    DATA     BYTE      P3
      000000A0H   SFRSYM    DATA     BYTE      P2
      00000090H   SFRSYM    DATA     BYTE      P1
      00000080H   SFRSYM    DATA     BYTE      P0
      00000945H   SYMBOL    EDATA    FLOAT     adc_left_edge
      00000949H   SYMBOL    EDATA    FLOAT     adc_right_edge
      0000094DH   SYMBOL    EDATA    FLOAT     adc_mid
      00000951H   SYMBOL    EDATA    FLOAT     adc_left_edge
      00000955H   SYMBOL    EDATA    FLOAT     adc_right_edge
      00000959H   SYMBOL    EDATA    FLOAT     adc_mid

      00FF75DFH   BLOCK     CODE     ---       LVL=0
      00FF75DFH   LINE      CODE     ---       #143
      00FF75DFH   LINE      CODE     ---       #144
      00FF75EFH   LINE      CODE     ---       #145
      00FF75FFH   LINE      CODE     ---       #149
      00FF762CH   LINE      CODE     ---       #150
      ---         BLOCKEND  ---      ---       LVL=0

      00FF3AB5H   BLOCK     CODE     ---       LVL=0
      00000790H   SYMBOL    EDATA    ---       topid_steer
      00000794H   SYMBOL    EDATA    ---       toipid_speed_left
      00000798H   SYMBOL    EDATA    ---       toipid_speed_right
      0000079CH   SYMBOL    EDATA    FLOAT     adc_left_mid
      000007A0H   SYMBOL    EDATA    FLOAT     adc_right_mid
      00FF3AB5H   LINE      CODE     ---       #152
      00FF3ABDH   LINE      CODE     ---       #164
      00FF3AEAH   LINE      CODE     ---       #169
      00FF3B07H   LINE      CODE     ---       #171
      00FF3B18H   LINE      CODE     ---       #172
      00FF3B46H   LINE      CODE     ---       #173
      00FF3B52H   LINE      CODE     ---       #175
      00FF3B77H   LINE      CODE     ---       #176
L251 LINKER/LOCATER V4.66.93.0                                                        10/06/2023  19:39:35  PAGE 99


      00FF3B81H   LINE      CODE     ---       #177
      00FF3B84H   LINE      CODE     ---       #178
      00FF3B90H   LINE      CODE     ---       #180
      00FF3BB5H   LINE      CODE     ---       #181
      00FF3BBFH   LINE      CODE     ---       #182
      00FF3BC2H   LINE      CODE     ---       #183
      00FF3BD1H   LINE      CODE     ---       #185
      00FF3BDDH   LINE      CODE     ---       #186
      00FF3BFBH   LINE      CODE     ---       #187
      00FF3BFEH   LINE      CODE     ---       #190
      00FF3C38H   LINE      CODE     ---       #192
      00FF3C49H   LINE      CODE     ---       #193
      00FF3C77H   LINE      CODE     ---       #194
      00FF3C83H   LINE      CODE     ---       #196
      00FF3C9FH   LINE      CODE     ---       #197
      00FF3CA9H   LINE      CODE     ---       #198
      00FF3CACH   LINE      CODE     ---       #199
      00FF3CB8H   LINE      CODE     ---       #201
      00FF3CD4H   LINE      CODE     ---       #202
      00FF3CDEH   LINE      CODE     ---       #203
      00FF3CE1H   LINE      CODE     ---       #204
      00FF3CF0H   LINE      CODE     ---       #206
      00FF3CFCH   LINE      CODE     ---       #207
      00FF3D1AH   LINE      CODE     ---       #208
      00FF3D1DH   LINE      CODE     ---       #210
      00FF3D57H   LINE      CODE     ---       #212
      00FF3D68H   LINE      CODE     ---       #213
      00FF3D96H   LINE      CODE     ---       #214
      00FF3DA2H   LINE      CODE     ---       #216
      00FF3DBEH   LINE      CODE     ---       #217
      00FF3DC8H   LINE      CODE     ---       #218
      00FF3DCBH   LINE      CODE     ---       #219
      00FF3DD7H   LINE      CODE     ---       #221
      00FF3DF3H   LINE      CODE     ---       #222
      00FF3DFDH   LINE      CODE     ---       #223
      00FF3E00H   LINE      CODE     ---       #224
      00FF3E0FH   LINE      CODE     ---       #226
      00FF3E1BH   LINE      CODE     ---       #227
      00FF3E39H   LINE      CODE     ---       #228
      00FF3E3CH   LINE      CODE     ---       #230
      00FF3E72H   LINE      CODE     ---       #232
      00FF3E83H   LINE      CODE     ---       #233
      00FF3EB1H   LINE      CODE     ---       #234
      00FF3EBDH   LINE      CODE     ---       #236
      00FF3ED1H   LINE      CODE     ---       #237
      00FF3ED4H   LINE      CODE     ---       #238
      00FF3EE3H   LINE      CODE     ---       #240
      00FF3EF7H   LINE      CODE     ---       #241
      00FF3EFAH   LINE      CODE     ---       #244
      00FF3F30H   LINE      CODE     ---       #246
      00FF3F41H   LINE      CODE     ---       #247
      00FF3F6FH   LINE      CODE     ---       #248
      00FF3F7BH   LINE      CODE     ---       #250
      00FF3F8FH   LINE      CODE     ---       #251
      00FF3F92H   LINE      CODE     ---       #252
      00FF3FA1H   LINE      CODE     ---       #254
      00FF3FB5H   LINE      CODE     ---       #255
      00FF3FB8H   LINE      CODE     ---       #258
      00FF3FF2H   LINE      CODE     ---       #260
      00FF4003H   LINE      CODE     ---       #261
      00FF4031H   LINE      CODE     ---       #262
      00FF403DH   LINE      CODE     ---       #264
      00FF4059H   LINE      CODE     ---       #265
      00FF4063H   LINE      CODE     ---       #266
      00FF4066H   LINE      CODE     ---       #267
L251 LINKER/LOCATER V4.66.93.0                                                        10/06/2023  19:39:35  PAGE 100


      00FF4072H   LINE      CODE     ---       #269
      00FF408EH   LINE      CODE     ---       #270
      00FF4098H   LINE      CODE     ---       #271
      00FF409BH   LINE      CODE     ---       #272
      00FF40AAH   LINE      CODE     ---       #274
      00FF40C8H   LINE      CODE     ---       #275
      00FF40D4H   LINE      CODE     ---       #276
      00FF40D7H   LINE      CODE     ---       #278
      00FF4111H   LINE      CODE     ---       #280
      00FF4122H   LINE      CODE     ---       #281
      00FF4150H   LINE      CODE     ---       #282
      00FF415CH   LINE      CODE     ---       #284
      00FF4178H   LINE      CODE     ---       #285
      00FF4182H   LINE      CODE     ---       #286
      00FF4185H   LINE      CODE     ---       #287
      00FF4191H   LINE      CODE     ---       #289
      00FF41ADH   LINE      CODE     ---       #290
      00FF41B7H   LINE      CODE     ---       #291
      00FF41BAH   LINE      CODE     ---       #292
      00FF41C9H   LINE      CODE     ---       #294
      00FF41E7H   LINE      CODE     ---       #295
      00FF41F3H   LINE      CODE     ---       #296
      00FF41F6H   LINE      CODE     ---       #297
      00FF4213H   LINE      CODE     ---       #299
      00FF4224H   LINE      CODE     ---       #300
      00FF4252H   LINE      CODE     ---       #301
      00FF425EH   LINE      CODE     ---       #303
      00FF4285H   LINE      CODE     ---       #304
      00FF428FH   LINE      CODE     ---       #305
      00FF4291H   LINE      CODE     ---       #306
      00FF429DH   LINE      CODE     ---       #308
      00FF42C4H   LINE      CODE     ---       #309
      00FF42CEH   LINE      CODE     ---       #310
      00FF42DCH   LINE      CODE     ---       #312
      00FF42FAH   LINE      CODE     ---       #313
      00FF4306H   LINE      CODE     ---       #314
      00FF4306H   LINE      CODE     ---       #318
      00FF4335H   LINE      CODE     ---       #319
      00FF4364H   LINE      CODE     ---       #323
      00FF4379H   LINE      CODE     ---       #324
      00FF43BFH   LINE      CODE     ---       #326
      00FF43FBH   LINE      CODE     ---       #327
      00FF4419H   LINE      CODE     ---       #331
      00FF442DH   LINE      CODE     ---       #332
      00FF4441H   LINE      CODE     ---       #334
      00FF445FH   LINE      CODE     ---       #335
      ---         BLOCKEND  ---      ---       LVL=0

      00FF5A06H   BLOCK     CODE     ---       LVL=0
      00000B2EH   SYMBOL    EDATA    ---       toipid_left_speed
      00000B32H   SYMBOL    EDATA    INT       actual_val_left
      00FF5A0EH   BLOCK     CODE     NEAR LAB  LVL=1
      00000B34H   SYMBOL    EDATA    INT       error_left
      ---         BLOCKEND  ---      ---       LVL=1
      00FF5A06H   LINE      CODE     ---       #338
      00FF5A0EH   LINE      CODE     ---       #340
      00FF5A23H   LINE      CODE     ---       #341
      00FF5A32H   LINE      CODE     ---       #343
      00FF5A3CH   LINE      CODE     ---       #345
      00FF5A4DH   LINE      CODE     ---       #346
      00FF5A4FH   LINE      CODE     ---       #349
      00FF5A60H   LINE      CODE     ---       #350
      00FF5A60H   LINE      CODE     ---       #354
      00FF5A96H   LINE      CODE     ---       #356
      00FF5AA3H   LINE      CODE     ---       #357
L251 LINKER/LOCATER V4.66.93.0                                                        10/06/2023  19:39:35  PAGE 101


      00FF5AB0H   LINE      CODE     ---       #358
      00FF5ABDH   LINE      CODE     ---       #359
      00FF5ABDH   LINE      CODE     ---       #363
      00FF5AE3H   LINE      CODE     ---       #364
      00FF5AFEH   LINE      CODE     ---       #366
      00FF5B11H   LINE      CODE     ---       #368
      00FF5B20H   LINE      CODE     ---       #369
      00FF5B22H   LINE      CODE     ---       #370
      00FF5B35H   LINE      CODE     ---       #372
      00FF5B44H   LINE      CODE     ---       #373
      00FF5B44H   LINE      CODE     ---       #377
      00FF5B5EH   LINE      CODE     ---       #378
      00FF5B76H   LINE      CODE     ---       #379
      00FF5B90H   LINE      CODE     ---       #380
      00FF5BA6H   LINE      CODE     ---       #383
      00FF5C39H   LINE      CODE     ---       #384
      00FF5C4FH   LINE      CODE     ---       #385
      00FF5C5AH   LINE      CODE     ---       #387
      ---         BLOCKEND  ---      ---       LVL=0

      00FF57B1H   BLOCK     CODE     ---       LVL=0
      00000B36H   SYMBOL    EDATA    ---       toipid_right_speed
      00000B3AH   SYMBOL    EDATA    INT       actual_val_right
      00FF57B9H   BLOCK     CODE     NEAR LAB  LVL=1
      00000B3CH   SYMBOL    EDATA    INT       error_right
      ---         BLOCKEND  ---      ---       LVL=1
      00FF57B1H   LINE      CODE     ---       #388
      00FF57B9H   LINE      CODE     ---       #390
      00FF57CEH   LINE      CODE     ---       #391
      00FF57DDH   LINE      CODE     ---       #393
      00FF57E7H   LINE      CODE     ---       #395
      00FF57F8H   LINE      CODE     ---       #396
      00FF57FAH   LINE      CODE     ---       #399
      00FF580BH   LINE      CODE     ---       #400
      00FF580BH   LINE      CODE     ---       #403
      00FF5841H   LINE      CODE     ---       #405
      00FF584EH   LINE      CODE     ---       #406
      00FF585BH   LINE      CODE     ---       #407
      00FF5868H   LINE      CODE     ---       #408
      00FF5868H   LINE      CODE     ---       #412
      00FF588EH   LINE      CODE     ---       #413
      00FF58A9H   LINE      CODE     ---       #415
      00FF58BCH   LINE      CODE     ---       #417
      00FF58CBH   LINE      CODE     ---       #418
      00FF58CDH   LINE      CODE     ---       #419
      00FF58E0H   LINE      CODE     ---       #421
      00FF58EFH   LINE      CODE     ---       #422
      00FF58EFH   LINE      CODE     ---       #426
      00FF5909H   LINE      CODE     ---       #427
      00FF5921H   LINE      CODE     ---       #428
      00FF593BH   LINE      CODE     ---       #429
      00FF5951H   LINE      CODE     ---       #432
      00FF59E4H   LINE      CODE     ---       #433
      00FF59FAH   LINE      CODE     ---       #434
      00FF5A05H   LINE      CODE     ---       #435
      ---         BLOCKEND  ---      ---       LVL=0

      00FF7CFCH   BLOCK     CODE     ---       LVL=0
      00FF7CFCH   LINE      CODE     ---       #436
      00FF7CFCH   LINE      CODE     ---       #437
      00FF7D1BH   LINE      CODE     ---       #438
      ---         BLOCKEND  ---      ---       LVL=0

      ---         MODULE    ---      ---       steer
      00FF79D3H   PUBLIC    CODE     ---       PWMSetSteer
L251 LINKER/LOCATER V4.66.93.0                                                        10/06/2023  19:39:35  PAGE 102


      00FF7EA5H   PUBLIC    CODE     ---       steer_init
      000000D0H   SFRSYM    DATA     BYTE      PSW
      0000009DH   SFRSYM    DATA     BYTE      IRCBAND
      00000097H   SFRSYM    DATA     BYTE      AUXR2
      000000EFH   SFRSYM    DATA     BYTE      AUXINTIF
      000000FDH   SFRSYM    DATA     BYTE      S4CON
      000000ACH   SFRSYM    DATA     BYTE      S3CON
      0000009AH   SFRSYM    DATA     BYTE      S2CON
      000000B7H   SFRSYM    DATA     BYTE      IPH
      000000CDH   SFRSYM    DATA     BYTE      SPSTAT
      000000DDH   SFRSYM    DATA     BYTE      T4T3M
      000000C1H   SFRSYM    DATA     BYTE      WDT_CONTR
      000000DFH   SFRSYM    DATA     BYTE      IP3
      000000F4H   SFRSYM    DATA     BYTE      USBCON
      000000B5H   SFRSYM    DATA     BYTE      IP2
      000000FFH   SFRSYM    DATA     BYTE      RSTCFG
      000000F9H   SFRSYM    DATA     BYTE      LINICR
      0000008EH   SFRSYM    DATA     BYTE      AUXR
      000000AFH   SFRSYM    DATA     BYTE      IE2
      00000088H   SFRSYM    DATA     BYTE      TCON
      00000098H   SFRSYM    DATA     BYTE      SCON
      000000F1H   SFRSYM    DATA     BYTE      CANICR
      00000087H   SFRSYM    DATA     BYTE      PCON
      000000BCH   SFRSYM    DATA     BYTE      ADC_CONTR
      000000E7H   SFRSYM    DATA     BYTE      CMPCR2
      000000E6H   SFRSYM    DATA     BYTE      CMPCR1
      000000B8H   SFRSYM    DATA     BYTE      IP
      0000008FH   SFRSYM    DATA     BYTE      INTCLKO
      000000EEH   SFRSYM    DATA     BYTE      IP3H
      000000B6H   SFRSYM    DATA     BYTE      IP2H
      000000A8H   SFRSYM    DATA     BYTE      IE
      000000BBH   SFRSYM    DATA     BYTE      P_SW3
      000000BAH   SFRSYM    DATA     BYTE      P_SW2
      000000A2H   SFRSYM    DATA     BYTE      P_SW1
      000000CEH   SFRSYM    DATA     BYTE      SPCTL
      000000F8H   SFRSYM    DATA     BYTE      P7
      000000E8H   SFRSYM    DATA     BYTE      P6
      000000C8H   SFRSYM    DATA     BYTE      P5
      000000C0H   SFRSYM    DATA     BYTE      P4
      000000B0H   SFRSYM    DATA     BYTE      P3
      000000A0H   SFRSYM    DATA     BYTE      P2
      00000090H   SFRSYM    DATA     BYTE      P1
      00000080H   SFRSYM    DATA     BYTE      P0

      00FF7EA5H   BLOCK     CODE     ---       LVL=0
      00FF7EA5H   LINE      CODE     ---       #10
      00FF7EA5H   LINE      CODE     ---       #13
      00FF7EB8H   LINE      CODE     ---       #18
      ---         BLOCKEND  ---      ---       LVL=0

      00FF79D3H   BLOCK     CODE     ---       LVL=0
      00000D03H   SYMBOL    EDATA    INT       angle_pwm
      00FF79D3H   LINE      CODE     ---       #27
      00FF79D7H   LINE      CODE     ---       #32
      00FF79E3H   LINE      CODE     ---       #33
      00FF79EBH   LINE      CODE     ---       #34
      00FF79F7H   LINE      CODE     ---       #35
      00FF79FFH   LINE      CODE     ---       #37
      00FF7A0EH   LINE      CODE     ---       #38
      ---         BLOCKEND  ---      ---       LVL=0

      ---         MODULE    ---      ---       SEEKFREE_CONFIG
      00FF00A6H   PUBLIC    CODE     ---       dl1b_default_configuration
      00FF012DH   PUBLIC    CODE     ---       imu660ra_config_file

L251 LINKER/LOCATER V4.66.93.0                                                        10/06/2023  19:39:35  PAGE 103


      ---         MODULE    ---      ---       ?C?FPADD
      00FF2F3BH   PUBLIC    CODE     ---       ?C?FPADD
      00FF2F38H   PUBLIC    CODE     ---       ?C?FPSUB

      ---         MODULE    ---      ---       ?C?FPMUL
      00FF2FF3H   PUBLIC    CODE     ---       ?C?FPMUL

      ---         MODULE    ---      ---       ?C?FPDIV
      00FF3093H   PUBLIC    CODE     ---       ?C?FPDIV

      ---         MODULE    ---      ---       ?C?FPCMP
      00FF3116H   PUBLIC    CODE     ---       ?C?FPCMP
      00FF3114H   PUBLIC    CODE     ---       ?C?FPCMP3

      ---         MODULE    ---      ---       ?C?FCAST
      00FF3164H   PUBLIC    CODE     NEAR LAB  ?C?FCASTC
      00FF315FH   PUBLIC    CODE     NEAR LAB  ?C?FCASTI
      00FF315AH   PUBLIC    CODE     NEAR LAB  ?C?FCASTL

      ---         MODULE    ---      ---       ?C?CASTF
      00FF3197H   PUBLIC    CODE     NEAR LAB  ?C?CASTF

      ---         MODULE    ---      ---       PRINTF
      00FF31D4H   PUBLIC    CODE     NEAR LAB  PRINTF

      ---         MODULE    ---      ---       pow

      ---         MODULE    ---      ---       ?C?FPGETOPN
      00FF3200H   PUBLIC    CODE     ---       ?C?FPGETOPN2
      00FF323DH   PUBLIC    CODE     ---       ?C?FPNANRESULT
      00FF3245H   PUBLIC    CODE     ---       ?C?FPOVERFLOW
      00FF3219H   PUBLIC    CODE     ---       ?C?FPRESULT
      00FF322FH   PUBLIC    CODE     ---       ?C?FPRESULT2
      00FF3242H   PUBLIC    CODE     ---       ?C?FPUNDERFLOW

      ---         MODULE    ---      ---       _CHKFLOAT_?_
      00FF3251H   PUBLIC    CODE     ---       _CHKFLOAT_?_

      ---         MODULE    ---      ---       ?C?FPNEG
      00FF326EH   PUBLIC    CODE     ---       ?C?FPNEG

      ---         MODULE    ---      ---       ?C?PRNFMT
      00FF32A9H   PUBLIC    CODE     ---       ?C?PRNFMT

      ---         MODULE    ---      ---       EXP?_
      00FF36F1H   PUBLIC    CODE     ---       EXP?_

      ---         MODULE    ---      ---       LOG?_
      00FF3780H   PUBLIC    CODE     NEAR LAB  LOG?_

      ---         MODULE    ---      ---       ?C?FPCONVERT
      00FF3853H   PUBLIC    CODE     ---       ?C?FPCONVERT
      00FF390BH   PUBLIC    CODE     ---       ?C?FPROUND

      ---         MODULE    ---      ---       ?C?FPSERIES
      00FF394EH   PUBLIC    CODE     ---       ?C?FP2SERIES
      00FF3957H   PUBLIC    CODE     ---       ?C?FPSERIES

      ---         MODULE    ---      ---       ?C?FTNPWR
      00FF39ABH   PUBLIC    CODE     ---       ?C?FTNPWR

      ---         MODULE    ---      ---       ?C_START
      00FF0000H   PUBLIC    CODE     ---       ?C?STARTUP
      00FF0000H   PUBLIC    CODE     ---       ?C_STARTUP

L251 LINKER/LOCATER V4.66.93.0                                                        10/06/2023  19:39:35  PAGE 104


      ---         MODULE    ---      ---       ?C?INITEDATA
      00FF79A7H   PUBLIC    CODE     ---       ?C?INITEDATA

      ---         MODULE    ---      ---       ?C?SIDIV
      00FF39E2H   PUBLIC    CODE     ---       ?C?SIDIV

      ---         MODULE    ---      ---       ?C?LMUL
      00FF3A14H   PUBLIC    CODE     ---       ?C?LMUL

      ---         MODULE    ---      ---       ?C?LIMUL
      00FF3A25H   PUBLIC    CODE     ---       ?C?LIMUL

      ---         MODULE    ---      ---       ?C?ULDIV
      00FF3A30H   PUBLIC    CODE     NEAR LAB  ?C?ULDIV
      00FF3A2EH   PUBLIC    CODE     NEAR LAB  ?C?ULIDIV

      ---         MODULE    ---      ---       ?C?SLDIV
      00FF3A81H   PUBLIC    CODE     NEAR LAB  ?C?SLDIV

      ---         MODULE    ---      ---       memcpy
      00FF7C2FH   PUBLIC    CODE     ---       memcpy?_

      ---         MODULE    ---      ---       memset

      ---         MODULE    ---      ---       ?C?INITEDATA_END
      00FF80EFH   PUBLIC    HCONST   WORD      ?C?INITEDATA_END

Program Size: data=8.0 edata+hdata=3598 xdata=0 const=779 code=32514
L251 RUN COMPLETE.  0 WARNING(S),  0 ERROR(S)
